ARM GAS  C:\Users\rsef899\AppData\Local\Temp\ccDfmLu1.s 			page 1


   1              		.syntax unified
   2              		.cpu cortex-m3
   3              		.fpu softvfp
   4              		.eabi_attribute 20, 1
   5              		.eabi_attribute 21, 1
   6              		.eabi_attribute 23, 3
   7              		.eabi_attribute 24, 1
   8              		.eabi_attribute 25, 1
   9              		.eabi_attribute 26, 1
  10              		.eabi_attribute 30, 6
  11              		.eabi_attribute 34, 1
  12              		.eabi_attribute 18, 4
  13              		.thumb
  14              		.syntax unified
  15              		.file	"main.c"
  16              		.text
  17              	.Ltext0:
  18              		.cfi_sections	.debug_frame
  19              		.global	ts
  20              		.bss
  21              		.type	ts, %object
  22              		.size	ts, 1
  23              	ts:
  24 0000 00       		.space	1
  25              		.global	ts_enc
  26 0001 00       		.align	1
  27              		.type	ts_enc, %object
  28              		.size	ts_enc, 2
  29              	ts_enc:
  30 0002 0000     		.space	2
  31              		.global	ts_update
  32              		.align	1
  33              		.type	ts_update, %object
  34              		.size	ts_update, 2
  35              	ts_update:
  36 0004 0000     		.space	2
  37              		.global	ts_speed
  38              		.align	1
  39              		.type	ts_speed, %object
  40              		.size	ts_speed, 2
  41              	ts_speed:
  42 0006 0000     		.space	2
  43              		.global	ts_display
  44              		.align	1
  45              		.type	ts_display, %object
  46              		.size	ts_display, 2
  47              	ts_display:
  48 0008 0000     		.space	2
  49              		.global	flag_ts_enc
  50              		.type	flag_ts_enc, %object
  51              		.size	flag_ts_enc, 1
  52              	flag_ts_enc:
  53 000a 00       		.space	1
  54              		.global	flag_ts_update
  55              		.type	flag_ts_update, %object
  56              		.size	flag_ts_update, 1
  57              	flag_ts_update:
ARM GAS  C:\Users\rsef899\AppData\Local\Temp\ccDfmLu1.s 			page 2


  58 000b 00       		.space	1
  59              		.global	flag_ts_speed
  60              		.type	flag_ts_speed, %object
  61              		.size	flag_ts_speed, 1
  62              	flag_ts_speed:
  63 000c 00       		.space	1
  64              		.global	flag_ts_display
  65              		.type	flag_ts_display, %object
  66              		.size	flag_ts_display, 1
  67              	flag_ts_display:
  68 000d 00       		.space	1
  69              		.global	flag_rx
  70              		.type	flag_rx, %object
  71              		.size	flag_rx, 1
  72              	flag_rx:
  73 000e 00       		.space	1
  74              		.global	flag_packet
  75              		.type	flag_packet, %object
  76              		.size	flag_packet, 1
  77              	flag_packet:
  78 000f 00       		.space	1
  79              		.global	flag_KB_string
  80              		.type	flag_KB_string, %object
  81              		.size	flag_KB_string, 1
  82              	flag_KB_string:
  83 0010 00       		.space	1
  84              		.global	dataready_flag
  85              		.type	dataready_flag, %object
  86              		.size	dataready_flag, 1
  87              	dataready_flag:
  88 0011 00       		.space	1
  89              		.global	flag_rf_transmission_active
  90              		.data
  91              		.type	flag_rf_transmission_active, %object
  92              		.size	flag_rf_transmission_active, 1
  93              	flag_rf_transmission_active:
  94 0000 0A       		.byte	10
  95              		.global	displaystring
  96 0001 000000   		.align	2
  97              		.type	displaystring, %object
  98              		.size	displaystring, 64
  99              	displaystring:
 100 0004 43533330 		.ascii	"CS301 2016\012\000"
 100      31203230 
 100      31360A00 
 101 0010 00000000 		.space	52
 101      00000000 
 101      00000000 
 101      00000000 
 101      00000000 
 102              		.comm	line,64,4
 103              		.comm	entry,64,4
 104              		.comm	usbBuffer,64,4
 105              		.comm	system_state,32,4
 106              		.global	printFlag
 107              		.bss
 108              		.type	printFlag, %object
ARM GAS  C:\Users\rsef899\AppData\Local\Temp\ccDfmLu1.s 			page 3


 109              		.size	printFlag, 1
 110              	printFlag:
 111 0012 00       		.space	1
 112              		.comm	buffer,2048,4
 113              		.global	bufferIndex
 114 0013 00       		.align	1
 115              		.type	bufferIndex, %object
 116              		.size	bufferIndex, 2
 117              	bufferIndex:
 118 0014 0000     		.space	2
 119              		.section	.text.ADCInterupt,"ax",%progbits
 120              		.align	2
 121              		.global	ADCInterupt
 122              		.thumb
 123              		.thumb_func
 124              		.type	ADCInterupt, %function
 125              	ADCInterupt:
 126              	.LFB64:
 127              		.file 1 "main.c"
   1:main.c        **** /* ========================================
   2:main.c        ****  * Fully working code: 
   3:main.c        ****  * PWM      : 
   4:main.c        ****  * Encoder  : 
   5:main.c        ****  * ADC      :
   6:main.c        ****  * USB      : port displays speed and position.
   7:main.c        ****  * CMD: "PW xx"
   8:main.c        ****  * Copyright Univ of Auckland, 2016
   9:main.c        ****  * All Rights Reserved
  10:main.c        ****  * UNPUBLISHED, LICENSED SOFTWARE.
  11:main.c        ****  *
  12:main.c        ****  * CONFIDENTIAL AND PROPRIETARY INFORMATION
  13:main.c        ****  * WHICH IS THE PROPERTY OF Univ of Auckland.
  14:main.c        ****  *
  15:main.c        ****  * ========================================
  16:main.c        **** */
  17:main.c        **** #include <stdio.h>
  18:main.c        **** #include <string.h>
  19:main.c        **** #include <stdlib.h>
  20:main.c        **** #include <project.h>
  21:main.c        **** //* ========================================
  22:main.c        **** #include "defines.h"
  23:main.c        **** #include "vars.h"
  24:main.c        **** //* ========================================
  25:main.c        **** void usbPutString(char *s);
  26:main.c        **** void usbPutChar(char c);
  27:main.c        **** void handle_usb();
  28:main.c        **** //* ========================================
  29:main.c        **** void changeDutyCycle(char* dutyValue);
  30:main.c        **** 
  31:main.c        **** volatile uint8_t printFlag = 0;
  32:main.c        **** volatile uint16_t buffer[1024];
  33:main.c        **** volatile uint16_t bufferIndex = 0;
  34:main.c        **** 
  35:main.c        **** //define teh TImer Interuprt
  36:main.c        **** CY_ISR(ADCInterupt){
 128              		.loc 1 36 0
 129              		.cfi_startproc
ARM GAS  C:\Users\rsef899\AppData\Local\Temp\ccDfmLu1.s 			page 4


 130              		@ args = 0, pretend = 0, frame = 8
 131              		@ frame_needed = 1, uses_anonymous_args = 0
 132 0000 90B5     		push	{r4, r7, lr}
 133              		.cfi_def_cfa_offset 12
 134              		.cfi_offset 4, -12
 135              		.cfi_offset 7, -8
 136              		.cfi_offset 14, -4
 137 0002 83B0     		sub	sp, sp, #12
 138              		.cfi_def_cfa_offset 24
 139 0004 00AF     		add	r7, sp, #0
 140              		.cfi_def_cfa_register 7
  37:main.c        ****     //if we are printing pdmt store ADC values
  38:main.c        ****     if(printFlag == 1) return;
 141              		.loc 1 38 0
 142 0006 164B     		ldr	r3, .L5
 143 0008 1B78     		ldrb	r3, [r3]
 144 000a DBB2     		uxtb	r3, r3
 145 000c 012B     		cmp	r3, #1
 146 000e 23D0     		beq	.L4
  39:main.c        ****     uint16_t ADCReturn = ADC_GetResult16((uint16_t)0);
 147              		.loc 1 39 0
 148 0010 0020     		movs	r0, #0
 149 0012 FFF7FEFF 		bl	ADC_GetResult16
 150 0016 0346     		mov	r3, r0
 151 0018 FB80     		strh	r3, [r7, #6]	@ movhi
  40:main.c        ****     //add the result to the buffer
  41:main.c        ****     buffer[bufferIndex++] = ADC_CountsTo_mVolts(ADCReturn);
 152              		.loc 1 41 0
 153 001a 124B     		ldr	r3, .L5+4
 154 001c 1B88     		ldrh	r3, [r3]	@ movhi
 155 001e 9BB2     		uxth	r3, r3
 156 0020 5A1C     		adds	r2, r3, #1
 157 0022 91B2     		uxth	r1, r2
 158 0024 0F4A     		ldr	r2, .L5+4
 159 0026 1180     		strh	r1, [r2]	@ movhi
 160 0028 1C46     		mov	r4, r3
 161 002a B7F90630 		ldrsh	r3, [r7, #6]
 162 002e 1846     		mov	r0, r3
 163 0030 FFF7FEFF 		bl	ADC_CountsTo_mVolts
 164 0034 0346     		mov	r3, r0
 165 0036 9AB2     		uxth	r2, r3
 166 0038 0B4B     		ldr	r3, .L5+8
 167 003a 23F81420 		strh	r2, [r3, r4, lsl #1]	@ movhi
  42:main.c        ****     //when the buffer is full set the prin flag, start the buffer aggain
  43:main.c        ****     if(bufferIndex == 1024) {
 168              		.loc 1 43 0
 169 003e 094B     		ldr	r3, .L5+4
 170 0040 1B88     		ldrh	r3, [r3]	@ movhi
 171 0042 9BB2     		uxth	r3, r3
 172 0044 B3F5806F 		cmp	r3, #1024
 173 0048 07D1     		bne	.L1
  44:main.c        ****         printFlag = 1;
 174              		.loc 1 44 0
 175 004a 054B     		ldr	r3, .L5
 176 004c 0122     		movs	r2, #1
 177 004e 1A70     		strb	r2, [r3]
  45:main.c        ****         bufferIndex = 0;
ARM GAS  C:\Users\rsef899\AppData\Local\Temp\ccDfmLu1.s 			page 5


 178              		.loc 1 45 0
 179 0050 044B     		ldr	r3, .L5+4
 180 0052 0022     		movs	r2, #0
 181 0054 1A80     		strh	r2, [r3]	@ movhi
 182 0056 00E0     		b	.L1
 183              	.L4:
  38:main.c        ****     uint16_t ADCReturn = ADC_GetResult16((uint16_t)0);
 184              		.loc 1 38 0
 185 0058 00BF     		nop
 186              	.L1:
  46:main.c        ****     }
  47:main.c        **** }
 187              		.loc 1 47 0
 188 005a 0C37     		adds	r7, r7, #12
 189              		.cfi_def_cfa_offset 12
 190 005c BD46     		mov	sp, r7
 191              		.cfi_def_cfa_register 13
 192              		@ sp needed
 193 005e 90BD     		pop	{r4, r7, pc}
 194              	.L6:
 195              		.align	2
 196              	.L5:
 197 0060 00000000 		.word	printFlag
 198 0064 00000000 		.word	bufferIndex
 199 0068 00000000 		.word	buffer
 200              		.cfi_endproc
 201              	.LFE64:
 202              		.size	ADCInterupt, .-ADCInterupt
 203              		.section	.text.main,"ax",%progbits
 204              		.align	2
 205              		.global	main
 206              		.thumb
 207              		.thumb_func
 208              		.type	main, %function
 209              	main:
 210              	.LFB65:
  48:main.c        **** 
  49:main.c        **** 
  50:main.c        **** int main(){
 211              		.loc 1 50 0
 212              		.cfi_startproc
 213              		@ args = 0, pretend = 0, frame = 0
 214              		@ frame_needed = 1, uses_anonymous_args = 0
 215 0000 80B5     		push	{r7, lr}
 216              		.cfi_def_cfa_offset 8
 217              		.cfi_offset 7, -8
 218              		.cfi_offset 14, -4
 219 0002 00AF     		add	r7, sp, #0
 220              		.cfi_def_cfa_register 7
  51:main.c        ****     
  52:main.c        **** 
  53:main.c        ****     IN1A_Write(1);
 221              		.loc 1 53 0
 222 0004 0120     		movs	r0, #1
 223 0006 FFF7FEFF 		bl	IN1A_Write
  54:main.c        ****     IN1B_Write(1);
 224              		.loc 1 54 0
ARM GAS  C:\Users\rsef899\AppData\Local\Temp\ccDfmLu1.s 			page 6


 225 000a 0120     		movs	r0, #1
 226 000c FFF7FEFF 		bl	IN1B_Write
  55:main.c        ****     IN2A_Write(0);
 227              		.loc 1 55 0
 228 0010 0020     		movs	r0, #0
 229 0012 FFF7FEFF 		bl	IN2A_Write
  56:main.c        ****     IN2B_Write(0);
 230              		.loc 1 56 0
 231 0016 0020     		movs	r0, #0
 232 0018 FFF7FEFF 		bl	IN2B_Write
 233              	.L8:
  57:main.c        ****     
  58:main.c        ****     for(;;)
  59:main.c        ****     {
  60:main.c        ****       
  61:main.c        ****     }  
 234              		.loc 1 61 0 discriminator 1
 235 001c FEE7     		b	.L8
 236              		.cfi_endproc
 237              	.LFE65:
 238              		.size	main, .-main
 239 001e 00BF     		.section	.text.usbPutString,"ax",%progbits
 240              		.align	2
 241              		.global	usbPutString
 242              		.thumb
 243              		.thumb_func
 244              		.type	usbPutString, %function
 245              	usbPutString:
 246              	.LFB66:
  62:main.c        **** }//End main
  63:main.c        **** 
  64:main.c        **** //* ========================================
  65:main.c        **** void usbPutString(char *s)
  66:main.c        **** {
 247              		.loc 1 66 0
 248              		.cfi_startproc
 249              		@ args = 0, pretend = 0, frame = 8
 250              		@ frame_needed = 1, uses_anonymous_args = 0
 251 0000 80B5     		push	{r7, lr}
 252              		.cfi_def_cfa_offset 8
 253              		.cfi_offset 7, -8
 254              		.cfi_offset 14, -4
 255 0002 82B0     		sub	sp, sp, #8
 256              		.cfi_def_cfa_offset 16
 257 0004 00AF     		add	r7, sp, #0
 258              		.cfi_def_cfa_register 7
 259 0006 7860     		str	r0, [r7, #4]
  67:main.c        **** // !! Assumes that *s is a string with allocated space >=64 chars     
  68:main.c        **** //  Since USB implementation retricts data packets to 64 chars, this function truncates the
  69:main.c        **** //  length to 62 char (63rd char is a '!')
  70:main.c        **** 
  71:main.c        **** #ifdef USE_USB     
  72:main.c        ****     while (USBUART_CDCIsReady() == 0);
 260              		.loc 1 72 0
 261 0008 00BF     		nop
 262              	.L10:
 263              		.loc 1 72 0 is_stmt 0 discriminator 1
ARM GAS  C:\Users\rsef899\AppData\Local\Temp\ccDfmLu1.s 			page 7


 264 000a FFF7FEFF 		bl	USBUART_CDCIsReady
 265 000e 0346     		mov	r3, r0
 266 0010 002B     		cmp	r3, #0
 267 0012 FAD0     		beq	.L10
  73:main.c        ****     s[63]='\0';
 268              		.loc 1 73 0 is_stmt 1
 269 0014 7B68     		ldr	r3, [r7, #4]
 270 0016 3F33     		adds	r3, r3, #63
 271 0018 0022     		movs	r2, #0
 272 001a 1A70     		strb	r2, [r3]
  74:main.c        ****     s[62]='!';
 273              		.loc 1 74 0
 274 001c 7B68     		ldr	r3, [r7, #4]
 275 001e 3E33     		adds	r3, r3, #62
 276 0020 2122     		movs	r2, #33
 277 0022 1A70     		strb	r2, [r3]
  75:main.c        ****     USBUART_PutData((uint8*)s,strlen(s));
 278              		.loc 1 75 0
 279 0024 7868     		ldr	r0, [r7, #4]
 280 0026 FFF7FEFF 		bl	strlen
 281 002a 0346     		mov	r3, r0
 282 002c 9BB2     		uxth	r3, r3
 283 002e 1946     		mov	r1, r3
 284 0030 7868     		ldr	r0, [r7, #4]
 285 0032 FFF7FEFF 		bl	USBUART_PutData
  76:main.c        **** #endif
  77:main.c        **** }
 286              		.loc 1 77 0
 287 0036 00BF     		nop
 288 0038 0837     		adds	r7, r7, #8
 289              		.cfi_def_cfa_offset 8
 290 003a BD46     		mov	sp, r7
 291              		.cfi_def_cfa_register 13
 292              		@ sp needed
 293 003c 80BD     		pop	{r7, pc}
 294              		.cfi_endproc
 295              	.LFE66:
 296              		.size	usbPutString, .-usbPutString
 297 003e 00BF     		.section	.text.usbPutChar,"ax",%progbits
 298              		.align	2
 299              		.global	usbPutChar
 300              		.thumb
 301              		.thumb_func
 302              		.type	usbPutChar, %function
 303              	usbPutChar:
 304              	.LFB67:
  78:main.c        **** //* ========================================
  79:main.c        **** void usbPutChar(char c)
  80:main.c        **** {
 305              		.loc 1 80 0
 306              		.cfi_startproc
 307              		@ args = 0, pretend = 0, frame = 8
 308              		@ frame_needed = 1, uses_anonymous_args = 0
 309 0000 80B5     		push	{r7, lr}
 310              		.cfi_def_cfa_offset 8
 311              		.cfi_offset 7, -8
 312              		.cfi_offset 14, -4
ARM GAS  C:\Users\rsef899\AppData\Local\Temp\ccDfmLu1.s 			page 8


 313 0002 82B0     		sub	sp, sp, #8
 314              		.cfi_def_cfa_offset 16
 315 0004 00AF     		add	r7, sp, #0
 316              		.cfi_def_cfa_register 7
 317 0006 0346     		mov	r3, r0
 318 0008 FB71     		strb	r3, [r7, #7]
  81:main.c        **** #ifdef USE_USB     
  82:main.c        ****     while (USBUART_CDCIsReady() == 0);
 319              		.loc 1 82 0
 320 000a 00BF     		nop
 321              	.L12:
 322              		.loc 1 82 0 is_stmt 0 discriminator 1
 323 000c FFF7FEFF 		bl	USBUART_CDCIsReady
 324 0010 0346     		mov	r3, r0
 325 0012 002B     		cmp	r3, #0
 326 0014 FAD0     		beq	.L12
  83:main.c        ****     USBUART_PutChar(c);
 327              		.loc 1 83 0 is_stmt 1
 328 0016 FB79     		ldrb	r3, [r7, #7]	@ zero_extendqisi2
 329 0018 1846     		mov	r0, r3
 330 001a FFF7FEFF 		bl	USBUART_PutChar
  84:main.c        **** #endif    
  85:main.c        **** }
 331              		.loc 1 85 0
 332 001e 00BF     		nop
 333 0020 0837     		adds	r7, r7, #8
 334              		.cfi_def_cfa_offset 8
 335 0022 BD46     		mov	sp, r7
 336              		.cfi_def_cfa_register 13
 337              		@ sp needed
 338 0024 80BD     		pop	{r7, pc}
 339              		.cfi_endproc
 340              	.LFE67:
 341              		.size	usbPutChar, .-usbPutChar
 342 0026 00BF     		.text
 343              	.Letext0:
 344              		.file 2 "c:\\program files (x86)\\cypress\\psoc creator\\4.2\\psoc creator\\import\\gnu\\arm\\5.4.
 345              		.file 3 "c:\\program files (x86)\\cypress\\psoc creator\\4.2\\psoc creator\\import\\gnu\\arm\\5.4.
 346              		.file 4 "Generated_Source\\PSoC5/cytypes.h"
 347              		.file 5 "vars.h"
 348              		.file 6 "Generated_Source\\PSoC5/core_cm3.h"