ARM GAS  C:\Users\schoo\AppData\Local\Temp\ccJGZj5g.s 			page 1


   1              		.syntax unified
   2              		.cpu cortex-m3
   3              		.fpu softvfp
   4              		.eabi_attribute 20, 1
   5              		.eabi_attribute 21, 1
   6              		.eabi_attribute 23, 3
   7              		.eabi_attribute 24, 1
   8              		.eabi_attribute 25, 1
   9              		.eabi_attribute 26, 1
  10              		.eabi_attribute 30, 6
  11              		.eabi_attribute 34, 1
  12              		.eabi_attribute 18, 4
  13              		.thumb
  14              		.syntax unified
  15              		.file	"main.c"
  16              		.text
  17              	.Ltext0:
  18              		.cfi_sections	.debug_frame
  19              		.global	ts
  20              		.bss
  21              		.type	ts, %object
  22              		.size	ts, 1
  23              	ts:
  24 0000 00       		.space	1
  25              		.global	ts_enc
  26 0001 00       		.align	1
  27              		.type	ts_enc, %object
  28              		.size	ts_enc, 2
  29              	ts_enc:
  30 0002 0000     		.space	2
  31              		.global	ts_update
  32              		.align	1
  33              		.type	ts_update, %object
  34              		.size	ts_update, 2
  35              	ts_update:
  36 0004 0000     		.space	2
  37              		.global	ts_speed
  38              		.align	1
  39              		.type	ts_speed, %object
  40              		.size	ts_speed, 2
  41              	ts_speed:
  42 0006 0000     		.space	2
  43              		.global	ts_display
  44              		.align	1
  45              		.type	ts_display, %object
  46              		.size	ts_display, 2
  47              	ts_display:
  48 0008 0000     		.space	2
  49              		.global	flag_ts_enc
  50              		.type	flag_ts_enc, %object
  51              		.size	flag_ts_enc, 1
  52              	flag_ts_enc:
  53 000a 00       		.space	1
  54              		.global	flag_ts_update
  55              		.type	flag_ts_update, %object
  56              		.size	flag_ts_update, 1
  57              	flag_ts_update:
ARM GAS  C:\Users\schoo\AppData\Local\Temp\ccJGZj5g.s 			page 2


  58 000b 00       		.space	1
  59              		.global	flag_ts_speed
  60              		.type	flag_ts_speed, %object
  61              		.size	flag_ts_speed, 1
  62              	flag_ts_speed:
  63 000c 00       		.space	1
  64              		.global	flag_ts_display
  65              		.type	flag_ts_display, %object
  66              		.size	flag_ts_display, 1
  67              	flag_ts_display:
  68 000d 00       		.space	1
  69              		.global	flag_rx
  70              		.type	flag_rx, %object
  71              		.size	flag_rx, 1
  72              	flag_rx:
  73 000e 00       		.space	1
  74              		.global	flag_packet
  75              		.type	flag_packet, %object
  76              		.size	flag_packet, 1
  77              	flag_packet:
  78 000f 00       		.space	1
  79              		.global	flag_KB_string
  80              		.type	flag_KB_string, %object
  81              		.size	flag_KB_string, 1
  82              	flag_KB_string:
  83 0010 00       		.space	1
  84              		.global	dataready_flag
  85              		.type	dataready_flag, %object
  86              		.size	dataready_flag, 1
  87              	dataready_flag:
  88 0011 00       		.space	1
  89              		.global	flag_rf_transmission_active
  90              		.data
  91              		.type	flag_rf_transmission_active, %object
  92              		.size	flag_rf_transmission_active, 1
  93              	flag_rf_transmission_active:
  94 0000 0A       		.byte	10
  95              		.global	displaystring
  96 0001 000000   		.align	2
  97              		.type	displaystring, %object
  98              		.size	displaystring, 64
  99              	displaystring:
 100 0004 43533330 		.ascii	"CS301 2016\012\000"
 100      31203230 
 100      31360A00 
 101 0010 00000000 		.space	52
 101      00000000 
 101      00000000 
 101      00000000 
 101      00000000 
 102              		.comm	line,64,4
 103              		.comm	entry,64,4
 104              		.comm	usbBuffer,64,4
 105              		.comm	system_state,32,4
 106              		.global	timeIndex
 107              		.bss
 108              		.type	timeIndex, %object
ARM GAS  C:\Users\schoo\AppData\Local\Temp\ccJGZj5g.s 			page 3


 109              		.size	timeIndex, 1
 110              	timeIndex:
 111 0012 00       		.space	1
 112              		.comm	timeArray,2,4
 113              		.global	printSpeed
 114              		.type	printSpeed, %object
 115              		.size	printSpeed, 1
 116              	printSpeed:
 117 0013 00       		.space	1
 118              		.section	.text.QuadDecoderIsr,"ax",%progbits
 119              		.align	2
 120              		.global	QuadDecoderIsr
 121              		.thumb
 122              		.thumb_func
 123              		.type	QuadDecoderIsr, %function
 124              	QuadDecoderIsr:
 125              	.LFB64:
 126              		.file 1 "main.c"
   1:main.c        **** /* ========================================
   2:main.c        ****  * Fully working code: 
   3:main.c        ****  * PWM      : 
   4:main.c        ****  * Encoder  : 
   5:main.c        ****  * ADC      :
   6:main.c        ****  * USB      : port displays speed and position.
   7:main.c        ****  * CMD: "PW xx"
   8:main.c        ****  * Copyright Univ of Auckland, 2016
   9:main.c        ****  * All Rights Reserved
  10:main.c        ****  * UNPUBLISHED, LICENSED SOFTWARE.
  11:main.c        ****  *
  12:main.c        ****  * CONFIDENTIAL AND PROPRIETARY INFORMATION
  13:main.c        ****  * WHICH IS THE PROPERTY OF Univ of Auckland.
  14:main.c        ****  *
  15:main.c        ****  * ========================================
  16:main.c        **** */
  17:main.c        **** #include <stdio.h>
  18:main.c        **** #include <string.h>
  19:main.c        **** #include <stdlib.h>
  20:main.c        **** #include <project.h>
  21:main.c        **** //* ========================================
  22:main.c        **** #include "defines.h"
  23:main.c        **** #include "vars.h"
  24:main.c        **** //* ========================================
  25:main.c        **** //* ==== Our functionsality Includes =======
  26:main.c        **** #include "movement.h"
  27:main.c        **** #include "states.h"
  28:main.c        **** 
  29:main.c        **** //*=========================================
  30:main.c        **** void usbPutString(char *s);
  31:main.c        **** void usbPutChar(char c);
  32:main.c        **** void handle_usb();
  33:main.c        **** //* ========================================
  34:main.c        **** 
  35:main.c        **** 
  36:main.c        **** uint8_t timeIndex = 0;
  37:main.c        **** uint8_t timeArray[2];
  38:main.c        **** uint8_t printSpeed = 0;
  39:main.c        **** 
ARM GAS  C:\Users\schoo\AppData\Local\Temp\ccJGZj5g.s 			page 4


  40:main.c        **** 
  41:main.c        **** //Interupts
  42:main.c        **** CY_ISR(QuadDecoderIsr){
 127              		.loc 1 42 0
 128              		.cfi_startproc
 129              		@ args = 0, pretend = 0, frame = 0
 130              		@ frame_needed = 1, uses_anonymous_args = 0
 131 0000 80B5     		push	{r7, lr}
 132              		.cfi_def_cfa_offset 8
 133              		.cfi_offset 7, -8
 134              		.cfi_offset 14, -4
 135 0002 00AF     		add	r7, sp, #0
 136              		.cfi_def_cfa_register 7
  43:main.c        ****     if (timeIndex == 0){
 137              		.loc 1 43 0
 138 0004 0D4B     		ldr	r3, .L5
 139 0006 1B78     		ldrb	r3, [r3]	@ zero_extendqisi2
 140 0008 002B     		cmp	r3, #0
 141 000a 09D1     		bne	.L2
  44:main.c        ****         timeArray[0] = QuadDec_M2_GetCounter();
 142              		.loc 1 44 0
 143 000c FFF7FEFF 		bl	QuadDec_M2_GetCounter
 144 0010 0346     		mov	r3, r0
 145 0012 DAB2     		uxtb	r2, r3
 146 0014 0A4B     		ldr	r3, .L5+4
 147 0016 1A70     		strb	r2, [r3]
  45:main.c        ****         timeIndex = 1;
 148              		.loc 1 45 0
 149 0018 084B     		ldr	r3, .L5
 150 001a 0122     		movs	r2, #1
 151 001c 1A70     		strb	r2, [r3]
  46:main.c        ****     } else {
  47:main.c        ****         timeArray[1] = QuadDec_M2_GetCounter();
  48:main.c        ****         timeIndex = 0;
  49:main.c        ****         printSpeed = 1;      
  50:main.c        ****     }
  51:main.c        **** }
 152              		.loc 1 51 0
 153 001e 0BE0     		b	.L4
 154              	.L2:
  47:main.c        ****         timeIndex = 0;
 155              		.loc 1 47 0
 156 0020 FFF7FEFF 		bl	QuadDec_M2_GetCounter
 157 0024 0346     		mov	r3, r0
 158 0026 DAB2     		uxtb	r2, r3
 159 0028 054B     		ldr	r3, .L5+4
 160 002a 5A70     		strb	r2, [r3, #1]
  48:main.c        ****         printSpeed = 1;      
 161              		.loc 1 48 0
 162 002c 034B     		ldr	r3, .L5
 163 002e 0022     		movs	r2, #0
 164 0030 1A70     		strb	r2, [r3]
  49:main.c        ****     }
 165              		.loc 1 49 0
 166 0032 044B     		ldr	r3, .L5+8
 167 0034 0122     		movs	r2, #1
 168 0036 1A70     		strb	r2, [r3]
ARM GAS  C:\Users\schoo\AppData\Local\Temp\ccJGZj5g.s 			page 5


 169              	.L4:
 170              		.loc 1 51 0
 171 0038 00BF     		nop
 172 003a 80BD     		pop	{r7, pc}
 173              	.L6:
 174              		.align	2
 175              	.L5:
 176 003c 00000000 		.word	timeIndex
 177 0040 00000000 		.word	timeArray
 178 0044 00000000 		.word	printSpeed
 179              		.cfi_endproc
 180              	.LFE64:
 181              		.size	QuadDecoderIsr, .-QuadDecoderIsr
 182              		.global	__aeabi_ui2f
 183              		.global	__aeabi_f2d
 184              		.global	__aeabi_ddiv
 185              		.global	__aeabi_d2uiz
 186              		.section	.text.main,"ax",%progbits
 187              		.align	2
 188              		.global	main
 189              		.thumb
 190              		.thumb_func
 191              		.type	main, %function
 192              	main:
 193              	.LFB65:
  52:main.c        **** 
  53:main.c        **** 
  54:main.c        **** 
  55:main.c        **** int main(){
 194              		.loc 1 55 0
 195              		.cfi_startproc
 196              		@ args = 0, pretend = 0, frame = 8
 197              		@ frame_needed = 1, uses_anonymous_args = 0
 198 0000 90B5     		push	{r4, r7, lr}
 199              		.cfi_def_cfa_offset 12
 200              		.cfi_offset 4, -12
 201              		.cfi_offset 7, -8
 202              		.cfi_offset 14, -4
 203 0002 83B0     		sub	sp, sp, #12
 204              		.cfi_def_cfa_offset 24
 205 0004 00AF     		add	r7, sp, #0
 206              		.cfi_def_cfa_register 7
  56:main.c        ****     
  57:main.c        **** // --------------------------------    
  58:main.c        **** // ----- INITIALIZATIONS ----------
  59:main.c        ****     CYGlobalIntEnable;    
 207              		.loc 1 59 0
 208              		.syntax unified
 209              	@ 59 "main.c" 1
 210 0006 62B6     		CPSIE   i
 211              	@ 0 "" 2
  60:main.c        ****     
  61:main.c        ****     //PWM1
  62:main.c        ****     PWM_1_Start();
 212              		.loc 1 62 0
 213              		.thumb
 214              		.syntax unified
ARM GAS  C:\Users\schoo\AppData\Local\Temp\ccJGZj5g.s 			page 6


 215 0008 FFF7FEFF 		bl	PWM_1_Start
  63:main.c        ****     //PWM2
  64:main.c        ****     PWM_2_Start();   
 216              		.loc 1 64 0
 217 000c FFF7FEFF 		bl	PWM_2_Start
  65:main.c        ****     
  66:main.c        ****     //QuadEncoder initialisation
  67:main.c        ****     isr_quad_timer_StartEx(QuadDecoderIsr);
 218              		.loc 1 67 0
 219 0010 4148     		ldr	r0, .L23+8
 220 0012 FFF7FEFF 		bl	isr_quad_timer_StartEx
  68:main.c        ****     Quad_TImer_Start();
 221              		.loc 1 68 0
 222 0016 FFF7FEFF 		bl	Quad_TImer_Start
  69:main.c        ****     
  70:main.c        ****     
  71:main.c        ****     // control signals
  72:main.c        ****     uint8_t currentState = 0;
 223              		.loc 1 72 0
 224 001a 0023     		movs	r3, #0
 225 001c FB71     		strb	r3, [r7, #7]
  73:main.c        ****     volatile uint8_t mode = 0;
 226              		.loc 1 73 0
 227 001e 0023     		movs	r3, #0
 228 0020 FB70     		strb	r3, [r7, #3]
  74:main.c        ****     volatile uint8_t cal = 0;
 229              		.loc 1 74 0
 230 0022 0023     		movs	r3, #0
 231 0024 BB70     		strb	r3, [r7, #2]
 232              	.L21:
  75:main.c        ****     
  76:main.c        ****     
  77:main.c        ****     
  78:main.c        ****     
  79:main.c        ****     
  80:main.c        ****     for(;;)
  81:main.c        ****     {
  82:main.c        ****         //StateMachine
  83:main.c        ****         
  84:main.c        ****         switch (currentState){
 233              		.loc 1 84 0
 234 0026 FB79     		ldrb	r3, [r7, #7]	@ zero_extendqisi2
 235 0028 012B     		cmp	r3, #1
 236 002a 10D0     		beq	.L9
 237 002c 042B     		cmp	r3, #4
 238 002e 1AD0     		beq	.L10
 239 0030 002B     		cmp	r3, #0
 240 0032 46D1     		bne	.L8
  85:main.c        ****             case (MODESELECT):
  86:main.c        ****                 switch (mode){
 241              		.loc 1 86 0
 242 0034 FB78     		ldrb	r3, [r7, #3]
 243 0036 DBB2     		uxtb	r3, r3
 244 0038 002B     		cmp	r3, #0
 245 003a 02D0     		beq	.L12
 246 003c 012B     		cmp	r3, #1
 247 003e 03D0     		beq	.L13
ARM GAS  C:\Users\schoo\AppData\Local\Temp\ccJGZj5g.s 			page 7


 248 0040 05E0     		b	.L9
 249              	.L12:
  87:main.c        ****                     case (0):
  88:main.c        ****                        currentState = FREERUNNING;
 250              		.loc 1 88 0
 251 0042 0123     		movs	r3, #1
 252 0044 FB71     		strb	r3, [r7, #7]
  89:main.c        ****                     break;
 253              		.loc 1 89 0
 254 0046 02E0     		b	.L9
 255              	.L13:
  90:main.c        ****                     case (1):
  91:main.c        ****                         currentState = SHORTESTMODE;
 256              		.loc 1 91 0
 257 0048 0223     		movs	r3, #2
 258 004a FB71     		strb	r3, [r7, #7]
  92:main.c        ****                     break;
 259              		.loc 1 92 0
 260 004c 00BF     		nop
 261              	.L9:
  93:main.c        ****                 }
  94:main.c        ****             case (FREERUNNING):
  95:main.c        ****                 switch (cal){
 262              		.loc 1 95 0
 263 004e BB78     		ldrb	r3, [r7, #2]
 264 0050 DBB2     		uxtb	r3, r3
 265 0052 002B     		cmp	r3, #0
 266 0054 04D0     		beq	.L14
 267 0056 012B     		cmp	r3, #1
 268 0058 05D1     		bne	.L10
  96:main.c        ****                     case (1):
  97:main.c        ****                         currentState = CALIBRATING;
 269              		.loc 1 97 0
 270 005a 0323     		movs	r3, #3
 271 005c FB71     		strb	r3, [r7, #7]
  98:main.c        ****                     break;
 272              		.loc 1 98 0
 273 005e 02E0     		b	.L10
 274              	.L14:
  99:main.c        ****                     case(0):
 100:main.c        ****                         currentState = DRIVING;
 275              		.loc 1 100 0
 276 0060 0423     		movs	r3, #4
 277 0062 FB71     		strb	r3, [r7, #7]
 101:main.c        ****                     break;   
 278              		.loc 1 101 0
 279 0064 00BF     		nop
 280              	.L10:
 102:main.c        ****                 }
 103:main.c        ****             case (DRIVING):
 104:main.c        ****                 //state Actions
 105:main.c        ****                 //drive
 106:main.c        ****                 controlWheels(MEDIUM_FORWARD, MEDIUM_FORWARD);
 281              		.loc 1 106 0
 282 0066 4B21     		movs	r1, #75
 283 0068 4B20     		movs	r0, #75
 284 006a FFF7FEFF 		bl	controlWheels
ARM GAS  C:\Users\schoo\AppData\Local\Temp\ccJGZj5g.s 			page 8


 107:main.c        ****                 
 108:main.c        ****             
 109:main.c        ****                 if (!Q5_Read() || !Q4_Read()){
 285              		.loc 1 109 0
 286 006e FFF7FEFF 		bl	Q5_Read
 287 0072 0346     		mov	r3, r0
 288 0074 002B     		cmp	r3, #0
 289 0076 04D0     		beq	.L16
 290              		.loc 1 109 0 is_stmt 0 discriminator 1
 291 0078 FFF7FEFF 		bl	Q4_Read
 292 007c 0346     		mov	r3, r0
 293 007e 002B     		cmp	r3, #0
 294 0080 01D1     		bne	.L17
 295              	.L16:
 110:main.c        ****                     currentState = TURNING;
 296              		.loc 1 110 0 is_stmt 1
 297 0082 0523     		movs	r3, #5
 298 0084 FB71     		strb	r3, [r7, #7]
 299              	.L17:
 111:main.c        ****                 }
 112:main.c        ****                 if (Q2_Read() && !Q6_Read()){
 300              		.loc 1 112 0
 301 0086 FFF7FEFF 		bl	Q2_Read
 302 008a 0346     		mov	r3, r0
 303 008c 002B     		cmp	r3, #0
 304 008e 06D0     		beq	.L18
 305              		.loc 1 112 0 is_stmt 0 discriminator 1
 306 0090 FFF7FEFF 		bl	Q6_Read
 307 0094 0346     		mov	r3, r0
 308 0096 002B     		cmp	r3, #0
 309 0098 01D1     		bne	.L18
 113:main.c        ****                     currentState = CALIBRATING;
 310              		.loc 1 113 0 is_stmt 1
 311 009a 0323     		movs	r3, #3
 312 009c FB71     		strb	r3, [r7, #7]
 313              	.L18:
 114:main.c        ****                 }
 115:main.c        ****                 if (Q1_Read() && Q2_Read() && Q3_Read()){
 314              		.loc 1 115 0
 315 009e FFF7FEFF 		bl	Q1_Read
 316 00a2 0346     		mov	r3, r0
 317 00a4 002B     		cmp	r3, #0
 318 00a6 0BD0     		beq	.L22
 319              		.loc 1 115 0 is_stmt 0 discriminator 1
 320 00a8 FFF7FEFF 		bl	Q2_Read
 321 00ac 0346     		mov	r3, r0
 322 00ae 002B     		cmp	r3, #0
 323 00b0 06D0     		beq	.L22
 324              		.loc 1 115 0 discriminator 2
 325 00b2 FFF7FEFF 		bl	Q3_Read
 326 00b6 0346     		mov	r3, r0
 327 00b8 002B     		cmp	r3, #0
 328 00ba 01D0     		beq	.L22
 116:main.c        ****                     currentState = STOPCAR;
 329              		.loc 1 116 0 is_stmt 1
 330 00bc 0A23     		movs	r3, #10
 331 00be FB71     		strb	r3, [r7, #7]
ARM GAS  C:\Users\schoo\AppData\Local\Temp\ccJGZj5g.s 			page 9


 332              	.L22:
 117:main.c        ****                 }
 118:main.c        ****                     
 119:main.c        ****             break;
 333              		.loc 1 119 0
 334 00c0 00BF     		nop
 335              	.L8:
 120:main.c        ****         }
 121:main.c        ****         
 122:main.c        ****         
 123:main.c        ****         //QuadEncoder icode
 124:main.c        ****         if (printSpeed == 1){
 336              		.loc 1 124 0
 337 00c2 164B     		ldr	r3, .L23+12
 338 00c4 1B78     		ldrb	r3, [r3]	@ zero_extendqisi2
 339 00c6 012B     		cmp	r3, #1
 340 00c8 ADD1     		bne	.L21
 341              	.LBB2:
 125:main.c        ****             uint16_t speed = timeArray[0] - timeArray[1];
 342              		.loc 1 125 0
 343 00ca 154B     		ldr	r3, .L23+16
 344 00cc 1B78     		ldrb	r3, [r3]	@ zero_extendqisi2
 345 00ce 9AB2     		uxth	r2, r3
 346 00d0 134B     		ldr	r3, .L23+16
 347 00d2 5B78     		ldrb	r3, [r3, #1]	@ zero_extendqisi2
 348 00d4 9BB2     		uxth	r3, r3
 349 00d6 D31A     		subs	r3, r2, r3
 350 00d8 BB80     		strh	r3, [r7, #4]	@ movhi
 126:main.c        ****             speed =  (float)speed / 1.31;
 351              		.loc 1 126 0
 352 00da BB88     		ldrh	r3, [r7, #4]
 353 00dc 1846     		mov	r0, r3
 354 00de FFF7FEFF 		bl	__aeabi_ui2f
 355 00e2 0346     		mov	r3, r0
 356 00e4 1846     		mov	r0, r3
 357 00e6 FFF7FEFF 		bl	__aeabi_f2d
 358 00ea 09A3     		adr	r3, .L23
 359 00ec D3E90023 		ldrd	r2, [r3]
 360 00f0 FFF7FEFF 		bl	__aeabi_ddiv
 361 00f4 0346     		mov	r3, r0
 362 00f6 0C46     		mov	r4, r1
 363 00f8 1846     		mov	r0, r3
 364 00fa 2146     		mov	r1, r4
 365 00fc FFF7FEFF 		bl	__aeabi_d2uiz
 366 0100 0346     		mov	r3, r0
 367 0102 BB80     		strh	r3, [r7, #4]	@ movhi
 127:main.c        ****             
 128:main.c        ****             //char buffer [64];
 129:main.c        ****             //itoa(speed, buffer, 10);
 130:main.c        ****            // USBUART_PutString(buffer);
 131:main.c        ****             printSpeed = 0; 
 368              		.loc 1 131 0
 369 0104 054B     		ldr	r3, .L23+12
 370 0106 0022     		movs	r2, #0
 371 0108 1A70     		strb	r2, [r3]
 372              	.LBE2:
 132:main.c        ****         }
ARM GAS  C:\Users\schoo\AppData\Local\Temp\ccJGZj5g.s 			page 10


 133:main.c        ****     }  
 373              		.loc 1 133 0
 374 010a 8CE7     		b	.L21
 375              	.L24:
 376 010c AFF30080 		.align	3
 377              	.L23:
 378 0110 F6285C8F 		.word	-1889785610
 379 0114 C2F5F43F 		.word	1073018306
 380 0118 00000000 		.word	QuadDecoderIsr
 381 011c 00000000 		.word	printSpeed
 382 0120 00000000 		.word	timeArray
 383              		.cfi_endproc
 384              	.LFE65:
 385              		.size	main, .-main
 386              		.section	.text.usbPutString,"ax",%progbits
 387              		.align	2
 388              		.global	usbPutString
 389              		.thumb
 390              		.thumb_func
 391              		.type	usbPutString, %function
 392              	usbPutString:
 393              	.LFB66:
 134:main.c        **** }//End main
 135:main.c        **** 
 136:main.c        **** 
 137:main.c        **** 
 138:main.c        **** //* ========================================
 139:main.c        **** void usbPutString(char *s)
 140:main.c        **** {
 394              		.loc 1 140 0
 395              		.cfi_startproc
 396              		@ args = 0, pretend = 0, frame = 8
 397              		@ frame_needed = 1, uses_anonymous_args = 0
 398 0000 80B5     		push	{r7, lr}
 399              		.cfi_def_cfa_offset 8
 400              		.cfi_offset 7, -8
 401              		.cfi_offset 14, -4
 402 0002 82B0     		sub	sp, sp, #8
 403              		.cfi_def_cfa_offset 16
 404 0004 00AF     		add	r7, sp, #0
 405              		.cfi_def_cfa_register 7
 406 0006 7860     		str	r0, [r7, #4]
 141:main.c        **** // !! Assumes that *s is a string with allocated space >=64 chars     
 142:main.c        **** //  Since USB implementation retricts data packets to 64 chars, this function truncates the
 143:main.c        **** //  length to 62 char (63rd char is a '!')
 144:main.c        **** 
 145:main.c        **** #ifdef USE_USB     
 146:main.c        ****     while (USBUART_CDCIsReady() == 0);
 407              		.loc 1 146 0
 408 0008 00BF     		nop
 409              	.L26:
 410              		.loc 1 146 0 is_stmt 0 discriminator 1
 411 000a FFF7FEFF 		bl	USBUART_CDCIsReady
 412 000e 0346     		mov	r3, r0
 413 0010 002B     		cmp	r3, #0
 414 0012 FAD0     		beq	.L26
 147:main.c        ****     s[63]='\0';
ARM GAS  C:\Users\schoo\AppData\Local\Temp\ccJGZj5g.s 			page 11


 415              		.loc 1 147 0 is_stmt 1
 416 0014 7B68     		ldr	r3, [r7, #4]
 417 0016 3F33     		adds	r3, r3, #63
 418 0018 0022     		movs	r2, #0
 419 001a 1A70     		strb	r2, [r3]
 148:main.c        ****     s[62]='!';
 420              		.loc 1 148 0
 421 001c 7B68     		ldr	r3, [r7, #4]
 422 001e 3E33     		adds	r3, r3, #62
 423 0020 2122     		movs	r2, #33
 424 0022 1A70     		strb	r2, [r3]
 149:main.c        ****     USBUART_PutData((uint8*)s,strlen(s));
 425              		.loc 1 149 0
 426 0024 7868     		ldr	r0, [r7, #4]
 427 0026 FFF7FEFF 		bl	strlen
 428 002a 0346     		mov	r3, r0
 429 002c 9BB2     		uxth	r3, r3
 430 002e 1946     		mov	r1, r3
 431 0030 7868     		ldr	r0, [r7, #4]
 432 0032 FFF7FEFF 		bl	USBUART_PutData
 150:main.c        **** #endif
 151:main.c        **** }
 433              		.loc 1 151 0
 434 0036 00BF     		nop
 435 0038 0837     		adds	r7, r7, #8
 436              		.cfi_def_cfa_offset 8
 437 003a BD46     		mov	sp, r7
 438              		.cfi_def_cfa_register 13
 439              		@ sp needed
 440 003c 80BD     		pop	{r7, pc}
 441              		.cfi_endproc
 442              	.LFE66:
 443              		.size	usbPutString, .-usbPutString
 444 003e 00BF     		.section	.text.usbPutChar,"ax",%progbits
 445              		.align	2
 446              		.global	usbPutChar
 447              		.thumb
 448              		.thumb_func
 449              		.type	usbPutChar, %function
 450              	usbPutChar:
 451              	.LFB67:
 152:main.c        **** //* ========================================
 153:main.c        **** void usbPutChar(char c)
 154:main.c        **** {
 452              		.loc 1 154 0
 453              		.cfi_startproc
 454              		@ args = 0, pretend = 0, frame = 8
 455              		@ frame_needed = 1, uses_anonymous_args = 0
 456 0000 80B5     		push	{r7, lr}
 457              		.cfi_def_cfa_offset 8
 458              		.cfi_offset 7, -8
 459              		.cfi_offset 14, -4
 460 0002 82B0     		sub	sp, sp, #8
 461              		.cfi_def_cfa_offset 16
 462 0004 00AF     		add	r7, sp, #0
 463              		.cfi_def_cfa_register 7
 464 0006 0346     		mov	r3, r0
ARM GAS  C:\Users\schoo\AppData\Local\Temp\ccJGZj5g.s 			page 12


 465 0008 FB71     		strb	r3, [r7, #7]
 155:main.c        **** #ifdef USE_USB     
 156:main.c        ****     while (USBUART_CDCIsReady() == 0);
 466              		.loc 1 156 0
 467 000a 00BF     		nop
 468              	.L28:
 469              		.loc 1 156 0 is_stmt 0 discriminator 1
 470 000c FFF7FEFF 		bl	USBUART_CDCIsReady
 471 0010 0346     		mov	r3, r0
 472 0012 002B     		cmp	r3, #0
 473 0014 FAD0     		beq	.L28
 157:main.c        ****     USBUART_PutChar(c);
 474              		.loc 1 157 0 is_stmt 1
 475 0016 FB79     		ldrb	r3, [r7, #7]	@ zero_extendqisi2
 476 0018 1846     		mov	r0, r3
 477 001a FFF7FEFF 		bl	USBUART_PutChar
 158:main.c        **** #endif    
 159:main.c        **** }
 478              		.loc 1 159 0
 479 001e 00BF     		nop
 480 0020 0837     		adds	r7, r7, #8
 481              		.cfi_def_cfa_offset 8
 482 0022 BD46     		mov	sp, r7
 483              		.cfi_def_cfa_register 13
 484              		@ sp needed
 485 0024 80BD     		pop	{r7, pc}
 486              		.cfi_endproc
 487              	.LFE67:
 488              		.size	usbPutChar, .-usbPutChar
 489 0026 00BF     		.text
 490              	.Letext0:
 491              		.file 2 "c:\\program files (x86)\\cypress\\psoc creator\\4.2\\psoc creator\\import\\gnu\\arm\\5.4.
 492              		.file 3 "c:\\program files (x86)\\cypress\\psoc creator\\4.2\\psoc creator\\import\\gnu\\arm\\5.4.
 493              		.file 4 "Generated_Source\\PSoC5/cytypes.h"
 494              		.file 5 "vars.h"
 495              		.file 6 "Generated_Source\\PSoC5/core_cm3.h"