ARM GAS  C:\Users\schoo\AppData\Local\Temp\ccMYmloP.s 			page 1


   1              		.syntax unified
   2              		.cpu cortex-m3
   3              		.fpu softvfp
   4              		.eabi_attribute 20, 1
   5              		.eabi_attribute 21, 1
   6              		.eabi_attribute 23, 3
   7              		.eabi_attribute 24, 1
   8              		.eabi_attribute 25, 1
   9              		.eabi_attribute 26, 1
  10              		.eabi_attribute 30, 6
  11              		.eabi_attribute 34, 1
  12              		.eabi_attribute 18, 4
  13              		.thumb
  14              		.syntax unified
  15              		.file	"movement.c"
  16              		.text
  17              	.Ltext0:
  18              		.cfi_sections	.debug_frame
  19              		.global	__aeabi_ui2f
  20              		.global	__aeabi_f2d
  21              		.global	__aeabi_i2d
  22              		.global	__aeabi_ddiv
  23              		.global	__aeabi_dmul
  24              		.global	__aeabi_d2uiz
  25              		.section	.text.controlWheels,"ax",%progbits
  26              		.align	2
  27              		.global	controlWheels
  28              		.thumb
  29              		.thumb_func
  30              		.type	controlWheels, %function
  31              	controlWheels:
  32              	.LFB64:
  33              		.file 1 "movement.c"
   1:movement.c    **** /* ========================================
   2:movement.c    ****  *
   3:movement.c    ****  * Copyright YOUR COMPANY, THE YEAR
   4:movement.c    ****  * All Rights Reserved
   5:movement.c    ****  * UNPUBLISHED, LICENSED SOFTWARE.
   6:movement.c    ****  *
   7:movement.c    ****  * CONFIDENTIAL AND PROPRIETARY INFORMATION
   8:movement.c    ****  * WHICH IS THE PROPERTY OF your company.
   9:movement.c    ****  *
  10:movement.c    ****  * ========================================
  11:movement.c    **** */
  12:movement.c    **** #include <stdio.h>
  13:movement.c    **** #include <string.h>
  14:movement.c    **** #include <stdlib.h>
  15:movement.c    **** #include <project.h>
  16:movement.c    **** 
  17:movement.c    **** 
  18:movement.c    **** uint8_t controlWheels(uint8_t wheel1Duty, uint8_t wheel2Duty){
  34              		.loc 1 18 0
  35              		.cfi_startproc
  36              		@ args = 0, pretend = 0, frame = 16
  37              		@ frame_needed = 1, uses_anonymous_args = 0
  38 0000 B0B5     		push	{r4, r5, r7, lr}
  39              		.cfi_def_cfa_offset 16
ARM GAS  C:\Users\schoo\AppData\Local\Temp\ccMYmloP.s 			page 2


  40              		.cfi_offset 4, -16
  41              		.cfi_offset 5, -12
  42              		.cfi_offset 7, -8
  43              		.cfi_offset 14, -4
  44 0002 84B0     		sub	sp, sp, #16
  45              		.cfi_def_cfa_offset 32
  46 0004 00AF     		add	r7, sp, #0
  47              		.cfi_def_cfa_register 7
  48 0006 0346     		mov	r3, r0
  49 0008 0A46     		mov	r2, r1
  50 000a FB71     		strb	r3, [r7, #7]
  51 000c 1346     		mov	r3, r2
  52 000e BB71     		strb	r3, [r7, #6]
  19:movement.c    ****     
  20:movement.c    ****     //find the compare value, i.e count number of each PWM
  21:movement.c    ****     uint8_t compareValue1 = ((float)PWM_1_ReadPeriod() * (wheel1Duty/100.0));
  53              		.loc 1 21 0
  54 0010 FFF7FEFF 		bl	PWM_1_ReadPeriod
  55 0014 0346     		mov	r3, r0
  56 0016 1846     		mov	r0, r3
  57 0018 FFF7FEFF 		bl	__aeabi_ui2f
  58 001c 0346     		mov	r3, r0
  59 001e 1846     		mov	r0, r3
  60 0020 FFF7FEFF 		bl	__aeabi_f2d
  61 0024 0446     		mov	r4, r0
  62 0026 0D46     		mov	r5, r1
  63 0028 FB79     		ldrb	r3, [r7, #7]	@ zero_extendqisi2
  64 002a 1846     		mov	r0, r3
  65 002c FFF7FEFF 		bl	__aeabi_i2d
  66 0030 4FF00002 		mov	r2, #0
  67 0034 204B     		ldr	r3, .L2
  68 0036 FFF7FEFF 		bl	__aeabi_ddiv
  69 003a 0246     		mov	r2, r0
  70 003c 0B46     		mov	r3, r1
  71 003e 2046     		mov	r0, r4
  72 0040 2946     		mov	r1, r5
  73 0042 FFF7FEFF 		bl	__aeabi_dmul
  74 0046 0346     		mov	r3, r0
  75 0048 0C46     		mov	r4, r1
  76 004a 1846     		mov	r0, r3
  77 004c 2146     		mov	r1, r4
  78 004e FFF7FEFF 		bl	__aeabi_d2uiz
  79 0052 0346     		mov	r3, r0
  80 0054 FB73     		strb	r3, [r7, #15]
  22:movement.c    ****     uint8_t compareValue2 = ((float)PWM_2_ReadPeriod() * (wheel2Duty/100.0));
  81              		.loc 1 22 0
  82 0056 FFF7FEFF 		bl	PWM_2_ReadPeriod
  83 005a 0346     		mov	r3, r0
  84 005c 1846     		mov	r0, r3
  85 005e FFF7FEFF 		bl	__aeabi_ui2f
  86 0062 0346     		mov	r3, r0
  87 0064 1846     		mov	r0, r3
  88 0066 FFF7FEFF 		bl	__aeabi_f2d
  89 006a 0446     		mov	r4, r0
  90 006c 0D46     		mov	r5, r1
  91 006e BB79     		ldrb	r3, [r7, #6]	@ zero_extendqisi2
  92 0070 1846     		mov	r0, r3
ARM GAS  C:\Users\schoo\AppData\Local\Temp\ccMYmloP.s 			page 3


  93 0072 FFF7FEFF 		bl	__aeabi_i2d
  94 0076 4FF00002 		mov	r2, #0
  95 007a 0F4B     		ldr	r3, .L2
  96 007c FFF7FEFF 		bl	__aeabi_ddiv
  97 0080 0246     		mov	r2, r0
  98 0082 0B46     		mov	r3, r1
  99 0084 2046     		mov	r0, r4
 100 0086 2946     		mov	r1, r5
 101 0088 FFF7FEFF 		bl	__aeabi_dmul
 102 008c 0346     		mov	r3, r0
 103 008e 0C46     		mov	r4, r1
 104 0090 1846     		mov	r0, r3
 105 0092 2146     		mov	r1, r4
 106 0094 FFF7FEFF 		bl	__aeabi_d2uiz
 107 0098 0346     		mov	r3, r0
 108 009a BB73     		strb	r3, [r7, #14]
  23:movement.c    ****     //set the PWM to the found value
  24:movement.c    ****     PWM_1_WriteCompare(compareValue1);
 109              		.loc 1 24 0
 110 009c FB7B     		ldrb	r3, [r7, #15]	@ zero_extendqisi2
 111 009e 1846     		mov	r0, r3
 112 00a0 FFF7FEFF 		bl	PWM_1_WriteCompare
  25:movement.c    ****     PWM_2_WriteCompare(compareValue2);
 113              		.loc 1 25 0
 114 00a4 BB7B     		ldrb	r3, [r7, #14]	@ zero_extendqisi2
 115 00a6 1846     		mov	r0, r3
 116 00a8 FFF7FEFF 		bl	PWM_2_WriteCompare
  26:movement.c    ****  
  27:movement.c    **** }
 117              		.loc 1 27 0
 118 00ac 00BF     		nop
 119 00ae 1846     		mov	r0, r3
 120 00b0 1037     		adds	r7, r7, #16
 121              		.cfi_def_cfa_offset 16
 122 00b2 BD46     		mov	sp, r7
 123              		.cfi_def_cfa_register 13
 124              		@ sp needed
 125 00b4 B0BD     		pop	{r4, r5, r7, pc}
 126              	.L3:
 127 00b6 00BF     		.align	2
 128              	.L2:
 129 00b8 00005940 		.word	1079574528
 130              		.cfi_endproc
 131              	.LFE64:
 132              		.size	controlWheels, .-controlWheels
 133              		.text
 134              	.Letext0:
 135              		.file 2 "c:\\program files (x86)\\cypress\\psoc creator\\4.2\\psoc creator\\import\\gnu\\arm\\5.4.
 136              		.file 3 "c:\\program files (x86)\\cypress\\psoc creator\\4.2\\psoc creator\\import\\gnu\\arm\\5.4.
 137              		.file 4 "Generated_Source\\PSoC5/core_cm3.h"