ARM GAS  C:\Users\NITISH~1\AppData\Local\Temp\cc8QXSmQ.s 			page 1


   1              		.syntax unified
   2              		.cpu cortex-m3
   3              		.fpu softvfp
   4              		.eabi_attribute 20, 1
   5              		.eabi_attribute 21, 1
   6              		.eabi_attribute 23, 3
   7              		.eabi_attribute 24, 1
   8              		.eabi_attribute 25, 1
   9              		.eabi_attribute 26, 1
  10              		.eabi_attribute 30, 1
  11              		.eabi_attribute 34, 1
  12              		.eabi_attribute 18, 4
  13              		.thumb
  14              		.file	"isr_TC.c"
  15              		.text
  16              	.Ltext0:
  17              		.cfi_sections	.debug_frame
  18              		.section	.text.isr_TC_Interrupt,"ax",%progbits
  19              		.align	2
  20              		.global	isr_TC_Interrupt
  21              		.thumb
  22              		.thumb_func
  23              		.type	isr_TC_Interrupt, %function
  24              	isr_TC_Interrupt:
  25              	.LFB66:
  26              		.file 1 ".\\Generated_Source\\PSoC5\\isr_TC.c"
   1:.\Generated_Source\PSoC5/isr_TC.c **** /*******************************************************************************
   2:.\Generated_Source\PSoC5/isr_TC.c **** * File Name: isr_TC.c  
   3:.\Generated_Source\PSoC5/isr_TC.c **** * Version 1.70
   4:.\Generated_Source\PSoC5/isr_TC.c **** *
   5:.\Generated_Source\PSoC5/isr_TC.c **** *  Description:
   6:.\Generated_Source\PSoC5/isr_TC.c **** *   API for controlling the state of an interrupt.
   7:.\Generated_Source\PSoC5/isr_TC.c **** *
   8:.\Generated_Source\PSoC5/isr_TC.c **** *
   9:.\Generated_Source\PSoC5/isr_TC.c **** *  Note:
  10:.\Generated_Source\PSoC5/isr_TC.c **** *
  11:.\Generated_Source\PSoC5/isr_TC.c **** ********************************************************************************
  12:.\Generated_Source\PSoC5/isr_TC.c **** * Copyright 2008-2015, Cypress Semiconductor Corporation.  All rights reserved.
  13:.\Generated_Source\PSoC5/isr_TC.c **** * You may use this file only in accordance with the license, terms, conditions, 
  14:.\Generated_Source\PSoC5/isr_TC.c **** * disclaimers, and limitations in the end user license agreement accompanying 
  15:.\Generated_Source\PSoC5/isr_TC.c **** * the software package with which this file was provided.
  16:.\Generated_Source\PSoC5/isr_TC.c **** *******************************************************************************/
  17:.\Generated_Source\PSoC5/isr_TC.c **** 
  18:.\Generated_Source\PSoC5/isr_TC.c **** 
  19:.\Generated_Source\PSoC5/isr_TC.c **** #include <cydevice_trm.h>
  20:.\Generated_Source\PSoC5/isr_TC.c **** #include <CyLib.h>
  21:.\Generated_Source\PSoC5/isr_TC.c **** #include <isr_TC.h>
  22:.\Generated_Source\PSoC5/isr_TC.c **** #include "cyapicallbacks.h"
  23:.\Generated_Source\PSoC5/isr_TC.c **** 
  24:.\Generated_Source\PSoC5/isr_TC.c **** #if !defined(isr_TC__REMOVED) /* Check for removal by optimization */
  25:.\Generated_Source\PSoC5/isr_TC.c **** 
  26:.\Generated_Source\PSoC5/isr_TC.c **** /*******************************************************************************
  27:.\Generated_Source\PSoC5/isr_TC.c **** *  Place your includes, defines and code here 
  28:.\Generated_Source\PSoC5/isr_TC.c **** ********************************************************************************/
  29:.\Generated_Source\PSoC5/isr_TC.c **** /* `#START isr_TC_intc` */
  30:.\Generated_Source\PSoC5/isr_TC.c **** #include <project.h>
  31:.\Generated_Source\PSoC5/isr_TC.c **** /* `#END` */
ARM GAS  C:\Users\NITISH~1\AppData\Local\Temp\cc8QXSmQ.s 			page 2


  32:.\Generated_Source\PSoC5/isr_TC.c **** 
  33:.\Generated_Source\PSoC5/isr_TC.c **** #ifndef CYINT_IRQ_BASE
  34:.\Generated_Source\PSoC5/isr_TC.c **** #define CYINT_IRQ_BASE      16
  35:.\Generated_Source\PSoC5/isr_TC.c **** #endif /* CYINT_IRQ_BASE */
  36:.\Generated_Source\PSoC5/isr_TC.c **** #ifndef CYINT_VECT_TABLE
  37:.\Generated_Source\PSoC5/isr_TC.c **** #define CYINT_VECT_TABLE    ((cyisraddress **) CYREG_NVIC_VECT_OFFSET)
  38:.\Generated_Source\PSoC5/isr_TC.c **** #endif /* CYINT_VECT_TABLE */
  39:.\Generated_Source\PSoC5/isr_TC.c **** 
  40:.\Generated_Source\PSoC5/isr_TC.c **** /* Declared in startup, used to set unused interrupts to. */
  41:.\Generated_Source\PSoC5/isr_TC.c **** CY_ISR_PROTO(IntDefaultHandler);
  42:.\Generated_Source\PSoC5/isr_TC.c **** 
  43:.\Generated_Source\PSoC5/isr_TC.c **** 
  44:.\Generated_Source\PSoC5/isr_TC.c **** /*******************************************************************************
  45:.\Generated_Source\PSoC5/isr_TC.c **** * Function Name: isr_TC_Start
  46:.\Generated_Source\PSoC5/isr_TC.c **** ********************************************************************************
  47:.\Generated_Source\PSoC5/isr_TC.c **** *
  48:.\Generated_Source\PSoC5/isr_TC.c **** * Summary:
  49:.\Generated_Source\PSoC5/isr_TC.c **** *  Set up the interrupt and enable it. This function disables the interrupt, 
  50:.\Generated_Source\PSoC5/isr_TC.c **** *  sets the default interrupt vector, sets the priority from the value in the
  51:.\Generated_Source\PSoC5/isr_TC.c **** *  Design Wide Resources Interrupt Editor, then enables the interrupt to the 
  52:.\Generated_Source\PSoC5/isr_TC.c **** *  interrupt controller.
  53:.\Generated_Source\PSoC5/isr_TC.c **** *
  54:.\Generated_Source\PSoC5/isr_TC.c **** * Parameters:  
  55:.\Generated_Source\PSoC5/isr_TC.c **** *   None
  56:.\Generated_Source\PSoC5/isr_TC.c **** *
  57:.\Generated_Source\PSoC5/isr_TC.c **** * Return:
  58:.\Generated_Source\PSoC5/isr_TC.c **** *   None
  59:.\Generated_Source\PSoC5/isr_TC.c **** *
  60:.\Generated_Source\PSoC5/isr_TC.c **** *******************************************************************************/
  61:.\Generated_Source\PSoC5/isr_TC.c **** void isr_TC_Start(void)
  62:.\Generated_Source\PSoC5/isr_TC.c **** {
  63:.\Generated_Source\PSoC5/isr_TC.c ****     /* For all we know the interrupt is active. */
  64:.\Generated_Source\PSoC5/isr_TC.c ****     isr_TC_Disable();
  65:.\Generated_Source\PSoC5/isr_TC.c **** 
  66:.\Generated_Source\PSoC5/isr_TC.c ****     /* Set the ISR to point to the isr_TC Interrupt. */
  67:.\Generated_Source\PSoC5/isr_TC.c ****     isr_TC_SetVector(&isr_TC_Interrupt);
  68:.\Generated_Source\PSoC5/isr_TC.c **** 
  69:.\Generated_Source\PSoC5/isr_TC.c ****     /* Set the priority. */
  70:.\Generated_Source\PSoC5/isr_TC.c ****     isr_TC_SetPriority((uint8)isr_TC_INTC_PRIOR_NUMBER);
  71:.\Generated_Source\PSoC5/isr_TC.c **** 
  72:.\Generated_Source\PSoC5/isr_TC.c ****     /* Enable it. */
  73:.\Generated_Source\PSoC5/isr_TC.c ****     isr_TC_Enable();
  74:.\Generated_Source\PSoC5/isr_TC.c **** }
  75:.\Generated_Source\PSoC5/isr_TC.c **** 
  76:.\Generated_Source\PSoC5/isr_TC.c **** 
  77:.\Generated_Source\PSoC5/isr_TC.c **** /*******************************************************************************
  78:.\Generated_Source\PSoC5/isr_TC.c **** * Function Name: isr_TC_StartEx
  79:.\Generated_Source\PSoC5/isr_TC.c **** ********************************************************************************
  80:.\Generated_Source\PSoC5/isr_TC.c **** *
  81:.\Generated_Source\PSoC5/isr_TC.c **** * Summary:
  82:.\Generated_Source\PSoC5/isr_TC.c **** *  Sets up the interrupt and enables it. This function disables the interrupt,
  83:.\Generated_Source\PSoC5/isr_TC.c **** *  sets the interrupt vector based on the address passed in, sets the priority 
  84:.\Generated_Source\PSoC5/isr_TC.c **** *  from the value in the Design Wide Resources Interrupt Editor, then enables 
  85:.\Generated_Source\PSoC5/isr_TC.c **** *  the interrupt to the interrupt controller.
  86:.\Generated_Source\PSoC5/isr_TC.c **** *  
  87:.\Generated_Source\PSoC5/isr_TC.c **** *  When defining ISR functions, the CY_ISR and CY_ISR_PROTO macros should be 
  88:.\Generated_Source\PSoC5/isr_TC.c **** *  used to provide consistent definition across compilers:
ARM GAS  C:\Users\NITISH~1\AppData\Local\Temp\cc8QXSmQ.s 			page 3


  89:.\Generated_Source\PSoC5/isr_TC.c **** *  
  90:.\Generated_Source\PSoC5/isr_TC.c **** *  Function definition example:
  91:.\Generated_Source\PSoC5/isr_TC.c **** *   CY_ISR(MyISR)
  92:.\Generated_Source\PSoC5/isr_TC.c **** *   {
  93:.\Generated_Source\PSoC5/isr_TC.c **** *   }
  94:.\Generated_Source\PSoC5/isr_TC.c **** *   Function prototype example:
  95:.\Generated_Source\PSoC5/isr_TC.c **** *   CY_ISR_PROTO(MyISR);
  96:.\Generated_Source\PSoC5/isr_TC.c **** *
  97:.\Generated_Source\PSoC5/isr_TC.c **** * Parameters:  
  98:.\Generated_Source\PSoC5/isr_TC.c **** *   address: Address of the ISR to set in the interrupt vector table.
  99:.\Generated_Source\PSoC5/isr_TC.c **** *
 100:.\Generated_Source\PSoC5/isr_TC.c **** * Return:
 101:.\Generated_Source\PSoC5/isr_TC.c **** *   None
 102:.\Generated_Source\PSoC5/isr_TC.c **** *
 103:.\Generated_Source\PSoC5/isr_TC.c **** *******************************************************************************/
 104:.\Generated_Source\PSoC5/isr_TC.c **** void isr_TC_StartEx(cyisraddress address)
 105:.\Generated_Source\PSoC5/isr_TC.c **** {
 106:.\Generated_Source\PSoC5/isr_TC.c ****     /* For all we know the interrupt is active. */
 107:.\Generated_Source\PSoC5/isr_TC.c ****     isr_TC_Disable();
 108:.\Generated_Source\PSoC5/isr_TC.c **** 
 109:.\Generated_Source\PSoC5/isr_TC.c ****     /* Set the ISR to point to the isr_TC Interrupt. */
 110:.\Generated_Source\PSoC5/isr_TC.c ****     isr_TC_SetVector(address);
 111:.\Generated_Source\PSoC5/isr_TC.c **** 
 112:.\Generated_Source\PSoC5/isr_TC.c ****     /* Set the priority. */
 113:.\Generated_Source\PSoC5/isr_TC.c ****     isr_TC_SetPriority((uint8)isr_TC_INTC_PRIOR_NUMBER);
 114:.\Generated_Source\PSoC5/isr_TC.c **** 
 115:.\Generated_Source\PSoC5/isr_TC.c ****     /* Enable it. */
 116:.\Generated_Source\PSoC5/isr_TC.c ****     isr_TC_Enable();
 117:.\Generated_Source\PSoC5/isr_TC.c **** }
 118:.\Generated_Source\PSoC5/isr_TC.c **** 
 119:.\Generated_Source\PSoC5/isr_TC.c **** 
 120:.\Generated_Source\PSoC5/isr_TC.c **** /*******************************************************************************
 121:.\Generated_Source\PSoC5/isr_TC.c **** * Function Name: isr_TC_Stop
 122:.\Generated_Source\PSoC5/isr_TC.c **** ********************************************************************************
 123:.\Generated_Source\PSoC5/isr_TC.c **** *
 124:.\Generated_Source\PSoC5/isr_TC.c **** * Summary:
 125:.\Generated_Source\PSoC5/isr_TC.c **** *   Disables and removes the interrupt.
 126:.\Generated_Source\PSoC5/isr_TC.c **** *
 127:.\Generated_Source\PSoC5/isr_TC.c **** * Parameters:  
 128:.\Generated_Source\PSoC5/isr_TC.c **** *   None
 129:.\Generated_Source\PSoC5/isr_TC.c **** *
 130:.\Generated_Source\PSoC5/isr_TC.c **** * Return:
 131:.\Generated_Source\PSoC5/isr_TC.c **** *   None
 132:.\Generated_Source\PSoC5/isr_TC.c **** *
 133:.\Generated_Source\PSoC5/isr_TC.c **** *******************************************************************************/
 134:.\Generated_Source\PSoC5/isr_TC.c **** void isr_TC_Stop(void)
 135:.\Generated_Source\PSoC5/isr_TC.c **** {
 136:.\Generated_Source\PSoC5/isr_TC.c ****     /* Disable this interrupt. */
 137:.\Generated_Source\PSoC5/isr_TC.c ****     isr_TC_Disable();
 138:.\Generated_Source\PSoC5/isr_TC.c **** 
 139:.\Generated_Source\PSoC5/isr_TC.c ****     /* Set the ISR to point to the passive one. */
 140:.\Generated_Source\PSoC5/isr_TC.c ****     isr_TC_SetVector(&IntDefaultHandler);
 141:.\Generated_Source\PSoC5/isr_TC.c **** }
 142:.\Generated_Source\PSoC5/isr_TC.c **** 
 143:.\Generated_Source\PSoC5/isr_TC.c **** 
 144:.\Generated_Source\PSoC5/isr_TC.c **** /*******************************************************************************
 145:.\Generated_Source\PSoC5/isr_TC.c **** * Function Name: isr_TC_Interrupt
ARM GAS  C:\Users\NITISH~1\AppData\Local\Temp\cc8QXSmQ.s 			page 4


 146:.\Generated_Source\PSoC5/isr_TC.c **** ********************************************************************************
 147:.\Generated_Source\PSoC5/isr_TC.c **** *
 148:.\Generated_Source\PSoC5/isr_TC.c **** * Summary:
 149:.\Generated_Source\PSoC5/isr_TC.c **** *   The default Interrupt Service Routine for isr_TC.
 150:.\Generated_Source\PSoC5/isr_TC.c **** *
 151:.\Generated_Source\PSoC5/isr_TC.c **** *   Add custom code between the coments to keep the next version of this file
 152:.\Generated_Source\PSoC5/isr_TC.c **** *   from over writting your code.
 153:.\Generated_Source\PSoC5/isr_TC.c **** *
 154:.\Generated_Source\PSoC5/isr_TC.c **** * Parameters:  
 155:.\Generated_Source\PSoC5/isr_TC.c **** *
 156:.\Generated_Source\PSoC5/isr_TC.c **** * Return:
 157:.\Generated_Source\PSoC5/isr_TC.c **** *   None
 158:.\Generated_Source\PSoC5/isr_TC.c **** *
 159:.\Generated_Source\PSoC5/isr_TC.c **** *******************************************************************************/
 160:.\Generated_Source\PSoC5/isr_TC.c **** CY_ISR(isr_TC_Interrupt)
 161:.\Generated_Source\PSoC5/isr_TC.c **** {
  27              		.loc 1 161 0
  28              		.cfi_startproc
  29              		@ args = 0, pretend = 0, frame = 0
  30              		@ frame_needed = 0, uses_anonymous_args = 0
  31 0000 08B5     		push	{r3, lr}
  32              		.cfi_def_cfa_offset 8
  33              		.cfi_offset 3, -8
  34              		.cfi_offset 14, -4
 162:.\Generated_Source\PSoC5/isr_TC.c ****     #ifdef isr_TC_INTERRUPT_INTERRUPT_CALLBACK
 163:.\Generated_Source\PSoC5/isr_TC.c ****         isr_TC_Interrupt_InterruptCallback();
 164:.\Generated_Source\PSoC5/isr_TC.c ****     #endif /* isr_TC_INTERRUPT_INTERRUPT_CALLBACK */ 
 165:.\Generated_Source\PSoC5/isr_TC.c **** 
 166:.\Generated_Source\PSoC5/isr_TC.c ****     /*  Place your Interrupt code here. */
 167:.\Generated_Source\PSoC5/isr_TC.c ****     /* `#START isr_TC_Interrupt` */
 168:.\Generated_Source\PSoC5/isr_TC.c ****     Timer_1_ReadStatusRegister();
  35              		.loc 1 168 0
  36 0002 FFF7FEFF 		bl	Timer_1_ReadStatusRegister
  37              	.LVL0:
 169:.\Generated_Source\PSoC5/isr_TC.c ****     LED_Write(~LED_Read());
  38              		.loc 1 169 0
  39 0006 FFF7FEFF 		bl	LED_Read
  40              	.LVL1:
  41 000a C043     		mvns	r0, r0
  42 000c C0B2     		uxtb	r0, r0
  43 000e FFF7FEFF 		bl	LED_Write
  44              	.LVL2:
  45 0012 08BD     		pop	{r3, pc}
  46              		.cfi_endproc
  47              	.LFE66:
  48              		.size	isr_TC_Interrupt, .-isr_TC_Interrupt
  49              		.section	.text.isr_TC_SetVector,"ax",%progbits
  50              		.align	2
  51              		.global	isr_TC_SetVector
  52              		.thumb
  53              		.thumb_func
  54              		.type	isr_TC_SetVector, %function
  55              	isr_TC_SetVector:
  56              	.LFB67:
 170:.\Generated_Source\PSoC5/isr_TC.c ****     /* `#END` */
 171:.\Generated_Source\PSoC5/isr_TC.c **** }
 172:.\Generated_Source\PSoC5/isr_TC.c **** 
ARM GAS  C:\Users\NITISH~1\AppData\Local\Temp\cc8QXSmQ.s 			page 5


 173:.\Generated_Source\PSoC5/isr_TC.c **** 
 174:.\Generated_Source\PSoC5/isr_TC.c **** /*******************************************************************************
 175:.\Generated_Source\PSoC5/isr_TC.c **** * Function Name: isr_TC_SetVector
 176:.\Generated_Source\PSoC5/isr_TC.c **** ********************************************************************************
 177:.\Generated_Source\PSoC5/isr_TC.c **** *
 178:.\Generated_Source\PSoC5/isr_TC.c **** * Summary:
 179:.\Generated_Source\PSoC5/isr_TC.c **** *   Change the ISR vector for the Interrupt. Note calling isr_TC_Start
 180:.\Generated_Source\PSoC5/isr_TC.c **** *   will override any effect this method would have had. To set the vector 
 181:.\Generated_Source\PSoC5/isr_TC.c **** *   before the component has been started use isr_TC_StartEx instead.
 182:.\Generated_Source\PSoC5/isr_TC.c **** * 
 183:.\Generated_Source\PSoC5/isr_TC.c **** *   When defining ISR functions, the CY_ISR and CY_ISR_PROTO macros should be 
 184:.\Generated_Source\PSoC5/isr_TC.c **** *   used to provide consistent definition across compilers:
 185:.\Generated_Source\PSoC5/isr_TC.c **** *
 186:.\Generated_Source\PSoC5/isr_TC.c **** *   Function definition example:
 187:.\Generated_Source\PSoC5/isr_TC.c **** *   CY_ISR(MyISR)
 188:.\Generated_Source\PSoC5/isr_TC.c **** *   {
 189:.\Generated_Source\PSoC5/isr_TC.c **** *   }
 190:.\Generated_Source\PSoC5/isr_TC.c **** *
 191:.\Generated_Source\PSoC5/isr_TC.c **** *   Function prototype example:
 192:.\Generated_Source\PSoC5/isr_TC.c **** *     CY_ISR_PROTO(MyISR);
 193:.\Generated_Source\PSoC5/isr_TC.c **** *
 194:.\Generated_Source\PSoC5/isr_TC.c **** * Parameters:
 195:.\Generated_Source\PSoC5/isr_TC.c **** *   address: Address of the ISR to set in the interrupt vector table.
 196:.\Generated_Source\PSoC5/isr_TC.c **** *
 197:.\Generated_Source\PSoC5/isr_TC.c **** * Return:
 198:.\Generated_Source\PSoC5/isr_TC.c **** *   None
 199:.\Generated_Source\PSoC5/isr_TC.c **** *
 200:.\Generated_Source\PSoC5/isr_TC.c **** *******************************************************************************/
 201:.\Generated_Source\PSoC5/isr_TC.c **** void isr_TC_SetVector(cyisraddress address)
 202:.\Generated_Source\PSoC5/isr_TC.c **** {
  57              		.loc 1 202 0
  58              		.cfi_startproc
  59              		@ args = 0, pretend = 0, frame = 0
  60              		@ frame_needed = 0, uses_anonymous_args = 0
  61              		@ link register save eliminated.
  62              	.LVL3:
 203:.\Generated_Source\PSoC5/isr_TC.c ****     cyisraddress * ramVectorTable;
 204:.\Generated_Source\PSoC5/isr_TC.c **** 
 205:.\Generated_Source\PSoC5/isr_TC.c ****     ramVectorTable = (cyisraddress *) *CYINT_VECT_TABLE;
  63              		.loc 1 205 0
  64 0000 024B     		ldr	r3, .L4
  65 0002 1B68     		ldr	r3, [r3]
  66              	.LVL4:
 206:.\Generated_Source\PSoC5/isr_TC.c **** 
 207:.\Generated_Source\PSoC5/isr_TC.c ****     ramVectorTable[CYINT_IRQ_BASE + (uint32)isr_TC__INTC_NUMBER] = address;
  67              		.loc 1 207 0
  68 0004 C3F88400 		str	r0, [r3, #132]
  69 0008 7047     		bx	lr
  70              	.L5:
  71 000a 00BF     		.align	2
  72              	.L4:
  73 000c 08ED00E0 		.word	-536810232
  74              		.cfi_endproc
  75              	.LFE67:
  76              		.size	isr_TC_SetVector, .-isr_TC_SetVector
  77              		.section	.text.isr_TC_GetVector,"ax",%progbits
  78              		.align	2
ARM GAS  C:\Users\NITISH~1\AppData\Local\Temp\cc8QXSmQ.s 			page 6


  79              		.global	isr_TC_GetVector
  80              		.thumb
  81              		.thumb_func
  82              		.type	isr_TC_GetVector, %function
  83              	isr_TC_GetVector:
  84              	.LFB68:
 208:.\Generated_Source\PSoC5/isr_TC.c **** }
 209:.\Generated_Source\PSoC5/isr_TC.c **** 
 210:.\Generated_Source\PSoC5/isr_TC.c **** 
 211:.\Generated_Source\PSoC5/isr_TC.c **** /*******************************************************************************
 212:.\Generated_Source\PSoC5/isr_TC.c **** * Function Name: isr_TC_GetVector
 213:.\Generated_Source\PSoC5/isr_TC.c **** ********************************************************************************
 214:.\Generated_Source\PSoC5/isr_TC.c **** *
 215:.\Generated_Source\PSoC5/isr_TC.c **** * Summary:
 216:.\Generated_Source\PSoC5/isr_TC.c **** *   Gets the "address" of the current ISR vector for the Interrupt.
 217:.\Generated_Source\PSoC5/isr_TC.c **** *
 218:.\Generated_Source\PSoC5/isr_TC.c **** * Parameters:
 219:.\Generated_Source\PSoC5/isr_TC.c **** *   None
 220:.\Generated_Source\PSoC5/isr_TC.c **** *
 221:.\Generated_Source\PSoC5/isr_TC.c **** * Return:
 222:.\Generated_Source\PSoC5/isr_TC.c **** *   Address of the ISR in the interrupt vector table.
 223:.\Generated_Source\PSoC5/isr_TC.c **** *
 224:.\Generated_Source\PSoC5/isr_TC.c **** *******************************************************************************/
 225:.\Generated_Source\PSoC5/isr_TC.c **** cyisraddress isr_TC_GetVector(void)
 226:.\Generated_Source\PSoC5/isr_TC.c **** {
  85              		.loc 1 226 0
  86              		.cfi_startproc
  87              		@ args = 0, pretend = 0, frame = 0
  88              		@ frame_needed = 0, uses_anonymous_args = 0
  89              		@ link register save eliminated.
 227:.\Generated_Source\PSoC5/isr_TC.c ****     cyisraddress * ramVectorTable;
 228:.\Generated_Source\PSoC5/isr_TC.c **** 
 229:.\Generated_Source\PSoC5/isr_TC.c ****     ramVectorTable = (cyisraddress *) *CYINT_VECT_TABLE;
  90              		.loc 1 229 0
  91 0000 024B     		ldr	r3, .L7
  92 0002 1B68     		ldr	r3, [r3]
  93              	.LVL5:
 230:.\Generated_Source\PSoC5/isr_TC.c **** 
 231:.\Generated_Source\PSoC5/isr_TC.c ****     return ramVectorTable[CYINT_IRQ_BASE + (uint32)isr_TC__INTC_NUMBER];
 232:.\Generated_Source\PSoC5/isr_TC.c **** }
  94              		.loc 1 232 0
  95 0004 D3F88400 		ldr	r0, [r3, #132]
  96 0008 7047     		bx	lr
  97              	.L8:
  98 000a 00BF     		.align	2
  99              	.L7:
 100 000c 08ED00E0 		.word	-536810232
 101              		.cfi_endproc
 102              	.LFE68:
 103              		.size	isr_TC_GetVector, .-isr_TC_GetVector
 104              		.section	.text.isr_TC_SetPriority,"ax",%progbits
 105              		.align	2
 106              		.global	isr_TC_SetPriority
 107              		.thumb
 108              		.thumb_func
 109              		.type	isr_TC_SetPriority, %function
 110              	isr_TC_SetPriority:
ARM GAS  C:\Users\NITISH~1\AppData\Local\Temp\cc8QXSmQ.s 			page 7


 111              	.LFB69:
 233:.\Generated_Source\PSoC5/isr_TC.c **** 
 234:.\Generated_Source\PSoC5/isr_TC.c **** 
 235:.\Generated_Source\PSoC5/isr_TC.c **** /*******************************************************************************
 236:.\Generated_Source\PSoC5/isr_TC.c **** * Function Name: isr_TC_SetPriority
 237:.\Generated_Source\PSoC5/isr_TC.c **** ********************************************************************************
 238:.\Generated_Source\PSoC5/isr_TC.c **** *
 239:.\Generated_Source\PSoC5/isr_TC.c **** * Summary:
 240:.\Generated_Source\PSoC5/isr_TC.c **** *   Sets the Priority of the Interrupt. 
 241:.\Generated_Source\PSoC5/isr_TC.c **** *
 242:.\Generated_Source\PSoC5/isr_TC.c **** *   Note calling isr_TC_Start or isr_TC_StartEx will 
 243:.\Generated_Source\PSoC5/isr_TC.c **** *   override any effect this API would have had. This API should only be called
 244:.\Generated_Source\PSoC5/isr_TC.c **** *   after isr_TC_Start or isr_TC_StartEx has been called. 
 245:.\Generated_Source\PSoC5/isr_TC.c **** *   To set the initial priority for the component, use the Design-Wide Resources
 246:.\Generated_Source\PSoC5/isr_TC.c **** *   Interrupt Editor.
 247:.\Generated_Source\PSoC5/isr_TC.c **** *
 248:.\Generated_Source\PSoC5/isr_TC.c **** *   Note This API has no effect on Non-maskable interrupt NMI).
 249:.\Generated_Source\PSoC5/isr_TC.c **** *
 250:.\Generated_Source\PSoC5/isr_TC.c **** * Parameters:
 251:.\Generated_Source\PSoC5/isr_TC.c **** *   priority: Priority of the interrupt, 0 being the highest priority
 252:.\Generated_Source\PSoC5/isr_TC.c **** *             PSoC 3 and PSoC 5LP: Priority is from 0 to 7.
 253:.\Generated_Source\PSoC5/isr_TC.c **** *             PSoC 4: Priority is from 0 to 3.
 254:.\Generated_Source\PSoC5/isr_TC.c **** *
 255:.\Generated_Source\PSoC5/isr_TC.c **** * Return:
 256:.\Generated_Source\PSoC5/isr_TC.c **** *   None
 257:.\Generated_Source\PSoC5/isr_TC.c **** *
 258:.\Generated_Source\PSoC5/isr_TC.c **** *******************************************************************************/
 259:.\Generated_Source\PSoC5/isr_TC.c **** void isr_TC_SetPriority(uint8 priority)
 260:.\Generated_Source\PSoC5/isr_TC.c **** {
 112              		.loc 1 260 0
 113              		.cfi_startproc
 114              		@ args = 0, pretend = 0, frame = 0
 115              		@ frame_needed = 0, uses_anonymous_args = 0
 116              		@ link register save eliminated.
 117              	.LVL6:
 261:.\Generated_Source\PSoC5/isr_TC.c ****     *isr_TC_INTC_PRIOR = priority << 5;
 118              		.loc 1 261 0
 119 0000 4001     		lsls	r0, r0, #5
 120              	.LVL7:
 121 0002 C0B2     		uxtb	r0, r0
 122 0004 014B     		ldr	r3, .L10
 123 0006 1870     		strb	r0, [r3]
 124 0008 7047     		bx	lr
 125              	.L11:
 126 000a 00BF     		.align	2
 127              	.L10:
 128 000c 11E400E0 		.word	-536812527
 129              		.cfi_endproc
 130              	.LFE69:
 131              		.size	isr_TC_SetPriority, .-isr_TC_SetPriority
 132              		.section	.text.isr_TC_GetPriority,"ax",%progbits
 133              		.align	2
 134              		.global	isr_TC_GetPriority
 135              		.thumb
 136              		.thumb_func
 137              		.type	isr_TC_GetPriority, %function
 138              	isr_TC_GetPriority:
ARM GAS  C:\Users\NITISH~1\AppData\Local\Temp\cc8QXSmQ.s 			page 8


 139              	.LFB70:
 262:.\Generated_Source\PSoC5/isr_TC.c **** }
 263:.\Generated_Source\PSoC5/isr_TC.c **** 
 264:.\Generated_Source\PSoC5/isr_TC.c **** 
 265:.\Generated_Source\PSoC5/isr_TC.c **** /*******************************************************************************
 266:.\Generated_Source\PSoC5/isr_TC.c **** * Function Name: isr_TC_GetPriority
 267:.\Generated_Source\PSoC5/isr_TC.c **** ********************************************************************************
 268:.\Generated_Source\PSoC5/isr_TC.c **** *
 269:.\Generated_Source\PSoC5/isr_TC.c **** * Summary:
 270:.\Generated_Source\PSoC5/isr_TC.c **** *   Gets the Priority of the Interrupt.
 271:.\Generated_Source\PSoC5/isr_TC.c **** *
 272:.\Generated_Source\PSoC5/isr_TC.c **** * Parameters:
 273:.\Generated_Source\PSoC5/isr_TC.c **** *   None
 274:.\Generated_Source\PSoC5/isr_TC.c **** *
 275:.\Generated_Source\PSoC5/isr_TC.c **** * Return:
 276:.\Generated_Source\PSoC5/isr_TC.c **** *   Priority of the interrupt, 0 being the highest priority
 277:.\Generated_Source\PSoC5/isr_TC.c **** *    PSoC 3 and PSoC 5LP: Priority is from 0 to 7.
 278:.\Generated_Source\PSoC5/isr_TC.c **** *    PSoC 4: Priority is from 0 to 3.
 279:.\Generated_Source\PSoC5/isr_TC.c **** *
 280:.\Generated_Source\PSoC5/isr_TC.c **** *******************************************************************************/
 281:.\Generated_Source\PSoC5/isr_TC.c **** uint8 isr_TC_GetPriority(void)
 282:.\Generated_Source\PSoC5/isr_TC.c **** {
 140              		.loc 1 282 0
 141              		.cfi_startproc
 142              		@ args = 0, pretend = 0, frame = 0
 143              		@ frame_needed = 0, uses_anonymous_args = 0
 144              		@ link register save eliminated.
 283:.\Generated_Source\PSoC5/isr_TC.c ****     uint8 priority;
 284:.\Generated_Source\PSoC5/isr_TC.c **** 
 285:.\Generated_Source\PSoC5/isr_TC.c **** 
 286:.\Generated_Source\PSoC5/isr_TC.c ****     priority = *isr_TC_INTC_PRIOR >> 5;
 145              		.loc 1 286 0
 146 0000 014B     		ldr	r3, .L13
 147 0002 1878     		ldrb	r0, [r3]	@ zero_extendqisi2
 148              	.LVL8:
 287:.\Generated_Source\PSoC5/isr_TC.c **** 
 288:.\Generated_Source\PSoC5/isr_TC.c ****     return priority;
 289:.\Generated_Source\PSoC5/isr_TC.c **** }
 149              		.loc 1 289 0
 150 0004 4009     		lsrs	r0, r0, #5
 151              	.LVL9:
 152 0006 7047     		bx	lr
 153              	.L14:
 154              		.align	2
 155              	.L13:
 156 0008 11E400E0 		.word	-536812527
 157              		.cfi_endproc
 158              	.LFE70:
 159              		.size	isr_TC_GetPriority, .-isr_TC_GetPriority
 160              		.section	.text.isr_TC_Enable,"ax",%progbits
 161              		.align	2
 162              		.global	isr_TC_Enable
 163              		.thumb
 164              		.thumb_func
 165              		.type	isr_TC_Enable, %function
 166              	isr_TC_Enable:
 167              	.LFB71:
ARM GAS  C:\Users\NITISH~1\AppData\Local\Temp\cc8QXSmQ.s 			page 9


 290:.\Generated_Source\PSoC5/isr_TC.c **** 
 291:.\Generated_Source\PSoC5/isr_TC.c **** 
 292:.\Generated_Source\PSoC5/isr_TC.c **** /*******************************************************************************
 293:.\Generated_Source\PSoC5/isr_TC.c **** * Function Name: isr_TC_Enable
 294:.\Generated_Source\PSoC5/isr_TC.c **** ********************************************************************************
 295:.\Generated_Source\PSoC5/isr_TC.c **** *
 296:.\Generated_Source\PSoC5/isr_TC.c **** * Summary:
 297:.\Generated_Source\PSoC5/isr_TC.c **** *   Enables the interrupt to the interrupt controller. Do not call this function
 298:.\Generated_Source\PSoC5/isr_TC.c **** *   unless ISR_Start() has been called or the functionality of the ISR_Start() 
 299:.\Generated_Source\PSoC5/isr_TC.c **** *   function, which sets the vector and the priority, has been called.
 300:.\Generated_Source\PSoC5/isr_TC.c **** *
 301:.\Generated_Source\PSoC5/isr_TC.c **** * Parameters:
 302:.\Generated_Source\PSoC5/isr_TC.c **** *   None
 303:.\Generated_Source\PSoC5/isr_TC.c **** *
 304:.\Generated_Source\PSoC5/isr_TC.c **** * Return:
 305:.\Generated_Source\PSoC5/isr_TC.c **** *   None
 306:.\Generated_Source\PSoC5/isr_TC.c **** *
 307:.\Generated_Source\PSoC5/isr_TC.c **** *******************************************************************************/
 308:.\Generated_Source\PSoC5/isr_TC.c **** void isr_TC_Enable(void)
 309:.\Generated_Source\PSoC5/isr_TC.c **** {
 168              		.loc 1 309 0
 169              		.cfi_startproc
 170              		@ args = 0, pretend = 0, frame = 0
 171              		@ frame_needed = 0, uses_anonymous_args = 0
 172              		@ link register save eliminated.
 310:.\Generated_Source\PSoC5/isr_TC.c ****     /* Enable the general interrupt. */
 311:.\Generated_Source\PSoC5/isr_TC.c ****     *isr_TC_INTC_SET_EN = isr_TC__INTC_MASK;
 173              		.loc 1 311 0
 174 0000 4FF40032 		mov	r2, #131072
 175 0004 014B     		ldr	r3, .L16
 176 0006 1A60     		str	r2, [r3]
 177 0008 7047     		bx	lr
 178              	.L17:
 179 000a 00BF     		.align	2
 180              	.L16:
 181 000c 00E100E0 		.word	-536813312
 182              		.cfi_endproc
 183              	.LFE71:
 184              		.size	isr_TC_Enable, .-isr_TC_Enable
 185              		.section	.text.isr_TC_GetState,"ax",%progbits
 186              		.align	2
 187              		.global	isr_TC_GetState
 188              		.thumb
 189              		.thumb_func
 190              		.type	isr_TC_GetState, %function
 191              	isr_TC_GetState:
 192              	.LFB72:
 312:.\Generated_Source\PSoC5/isr_TC.c **** }
 313:.\Generated_Source\PSoC5/isr_TC.c **** 
 314:.\Generated_Source\PSoC5/isr_TC.c **** 
 315:.\Generated_Source\PSoC5/isr_TC.c **** /*******************************************************************************
 316:.\Generated_Source\PSoC5/isr_TC.c **** * Function Name: isr_TC_GetState
 317:.\Generated_Source\PSoC5/isr_TC.c **** ********************************************************************************
 318:.\Generated_Source\PSoC5/isr_TC.c **** *
 319:.\Generated_Source\PSoC5/isr_TC.c **** * Summary:
 320:.\Generated_Source\PSoC5/isr_TC.c **** *   Gets the state (enabled, disabled) of the Interrupt.
 321:.\Generated_Source\PSoC5/isr_TC.c **** *
ARM GAS  C:\Users\NITISH~1\AppData\Local\Temp\cc8QXSmQ.s 			page 10


 322:.\Generated_Source\PSoC5/isr_TC.c **** * Parameters:
 323:.\Generated_Source\PSoC5/isr_TC.c **** *   None
 324:.\Generated_Source\PSoC5/isr_TC.c **** *
 325:.\Generated_Source\PSoC5/isr_TC.c **** * Return:
 326:.\Generated_Source\PSoC5/isr_TC.c **** *   1 if enabled, 0 if disabled.
 327:.\Generated_Source\PSoC5/isr_TC.c **** *
 328:.\Generated_Source\PSoC5/isr_TC.c **** *******************************************************************************/
 329:.\Generated_Source\PSoC5/isr_TC.c **** uint8 isr_TC_GetState(void)
 330:.\Generated_Source\PSoC5/isr_TC.c **** {
 193              		.loc 1 330 0
 194              		.cfi_startproc
 195              		@ args = 0, pretend = 0, frame = 0
 196              		@ frame_needed = 0, uses_anonymous_args = 0
 197              		@ link register save eliminated.
 331:.\Generated_Source\PSoC5/isr_TC.c ****     /* Get the state of the general interrupt. */
 332:.\Generated_Source\PSoC5/isr_TC.c ****     return ((*isr_TC_INTC_SET_EN & (uint32)isr_TC__INTC_MASK) != 0u) ? 1u:0u;
 198              		.loc 1 332 0
 199 0000 044B     		ldr	r3, .L21
 200 0002 1B68     		ldr	r3, [r3]
 201 0004 13F4003F 		tst	r3, #131072
 202 0008 01D0     		beq	.L20
 203 000a 0120     		movs	r0, #1
 204 000c 7047     		bx	lr
 205              	.L20:
 206 000e 0020     		movs	r0, #0
 333:.\Generated_Source\PSoC5/isr_TC.c **** }
 207              		.loc 1 333 0
 208 0010 7047     		bx	lr
 209              	.L22:
 210 0012 00BF     		.align	2
 211              	.L21:
 212 0014 00E100E0 		.word	-536813312
 213              		.cfi_endproc
 214              	.LFE72:
 215              		.size	isr_TC_GetState, .-isr_TC_GetState
 216              		.section	.text.isr_TC_Disable,"ax",%progbits
 217              		.align	2
 218              		.global	isr_TC_Disable
 219              		.thumb
 220              		.thumb_func
 221              		.type	isr_TC_Disable, %function
 222              	isr_TC_Disable:
 223              	.LFB73:
 334:.\Generated_Source\PSoC5/isr_TC.c **** 
 335:.\Generated_Source\PSoC5/isr_TC.c **** 
 336:.\Generated_Source\PSoC5/isr_TC.c **** /*******************************************************************************
 337:.\Generated_Source\PSoC5/isr_TC.c **** * Function Name: isr_TC_Disable
 338:.\Generated_Source\PSoC5/isr_TC.c **** ********************************************************************************
 339:.\Generated_Source\PSoC5/isr_TC.c **** *
 340:.\Generated_Source\PSoC5/isr_TC.c **** * Summary:
 341:.\Generated_Source\PSoC5/isr_TC.c **** *   Disables the Interrupt in the interrupt controller.
 342:.\Generated_Source\PSoC5/isr_TC.c **** *
 343:.\Generated_Source\PSoC5/isr_TC.c **** * Parameters:
 344:.\Generated_Source\PSoC5/isr_TC.c **** *   None
 345:.\Generated_Source\PSoC5/isr_TC.c **** *
 346:.\Generated_Source\PSoC5/isr_TC.c **** * Return:
 347:.\Generated_Source\PSoC5/isr_TC.c **** *   None
ARM GAS  C:\Users\NITISH~1\AppData\Local\Temp\cc8QXSmQ.s 			page 11


 348:.\Generated_Source\PSoC5/isr_TC.c **** *
 349:.\Generated_Source\PSoC5/isr_TC.c **** *******************************************************************************/
 350:.\Generated_Source\PSoC5/isr_TC.c **** void isr_TC_Disable(void)
 351:.\Generated_Source\PSoC5/isr_TC.c **** {
 224              		.loc 1 351 0
 225              		.cfi_startproc
 226              		@ args = 0, pretend = 0, frame = 0
 227              		@ frame_needed = 0, uses_anonymous_args = 0
 228              		@ link register save eliminated.
 352:.\Generated_Source\PSoC5/isr_TC.c ****     /* Disable the general interrupt. */
 353:.\Generated_Source\PSoC5/isr_TC.c ****     *isr_TC_INTC_CLR_EN = isr_TC__INTC_MASK;
 229              		.loc 1 353 0
 230 0000 4FF40032 		mov	r2, #131072
 231 0004 014B     		ldr	r3, .L24
 232 0006 1A60     		str	r2, [r3]
 233 0008 7047     		bx	lr
 234              	.L25:
 235 000a 00BF     		.align	2
 236              	.L24:
 237 000c 80E100E0 		.word	-536813184
 238              		.cfi_endproc
 239              	.LFE73:
 240              		.size	isr_TC_Disable, .-isr_TC_Disable
 241              		.section	.text.isr_TC_Start,"ax",%progbits
 242              		.align	2
 243              		.global	isr_TC_Start
 244              		.thumb
 245              		.thumb_func
 246              		.type	isr_TC_Start, %function
 247              	isr_TC_Start:
 248              	.LFB63:
  62:.\Generated_Source\PSoC5/isr_TC.c ****     /* For all we know the interrupt is active. */
 249              		.loc 1 62 0
 250              		.cfi_startproc
 251              		@ args = 0, pretend = 0, frame = 0
 252              		@ frame_needed = 0, uses_anonymous_args = 0
 253 0000 08B5     		push	{r3, lr}
 254              		.cfi_def_cfa_offset 8
 255              		.cfi_offset 3, -8
 256              		.cfi_offset 14, -4
  64:.\Generated_Source\PSoC5/isr_TC.c **** 
 257              		.loc 1 64 0
 258 0002 FFF7FEFF 		bl	isr_TC_Disable
 259              	.LVL10:
  67:.\Generated_Source\PSoC5/isr_TC.c **** 
 260              		.loc 1 67 0
 261 0006 0448     		ldr	r0, .L28
 262 0008 FFF7FEFF 		bl	isr_TC_SetVector
 263              	.LVL11:
  70:.\Generated_Source\PSoC5/isr_TC.c **** 
 264              		.loc 1 70 0
 265 000c 0720     		movs	r0, #7
 266 000e FFF7FEFF 		bl	isr_TC_SetPriority
 267              	.LVL12:
  73:.\Generated_Source\PSoC5/isr_TC.c **** }
 268              		.loc 1 73 0
 269 0012 FFF7FEFF 		bl	isr_TC_Enable
ARM GAS  C:\Users\NITISH~1\AppData\Local\Temp\cc8QXSmQ.s 			page 12


 270              	.LVL13:
 271 0016 08BD     		pop	{r3, pc}
 272              	.L29:
 273              		.align	2
 274              	.L28:
 275 0018 00000000 		.word	isr_TC_Interrupt
 276              		.cfi_endproc
 277              	.LFE63:
 278              		.size	isr_TC_Start, .-isr_TC_Start
 279              		.section	.text.isr_TC_StartEx,"ax",%progbits
 280              		.align	2
 281              		.global	isr_TC_StartEx
 282              		.thumb
 283              		.thumb_func
 284              		.type	isr_TC_StartEx, %function
 285              	isr_TC_StartEx:
 286              	.LFB64:
 105:.\Generated_Source\PSoC5/isr_TC.c ****     /* For all we know the interrupt is active. */
 287              		.loc 1 105 0
 288              		.cfi_startproc
 289              		@ args = 0, pretend = 0, frame = 0
 290              		@ frame_needed = 0, uses_anonymous_args = 0
 291              	.LVL14:
 292 0000 10B5     		push	{r4, lr}
 293              		.cfi_def_cfa_offset 8
 294              		.cfi_offset 4, -8
 295              		.cfi_offset 14, -4
 296 0002 0446     		mov	r4, r0
 107:.\Generated_Source\PSoC5/isr_TC.c **** 
 297              		.loc 1 107 0
 298 0004 FFF7FEFF 		bl	isr_TC_Disable
 299              	.LVL15:
 110:.\Generated_Source\PSoC5/isr_TC.c **** 
 300              		.loc 1 110 0
 301 0008 2046     		mov	r0, r4
 302 000a FFF7FEFF 		bl	isr_TC_SetVector
 303              	.LVL16:
 113:.\Generated_Source\PSoC5/isr_TC.c **** 
 304              		.loc 1 113 0
 305 000e 0720     		movs	r0, #7
 306 0010 FFF7FEFF 		bl	isr_TC_SetPriority
 307              	.LVL17:
 116:.\Generated_Source\PSoC5/isr_TC.c **** }
 308              		.loc 1 116 0
 309 0014 FFF7FEFF 		bl	isr_TC_Enable
 310              	.LVL18:
 311 0018 10BD     		pop	{r4, pc}
 312              		.cfi_endproc
 313              	.LFE64:
 314              		.size	isr_TC_StartEx, .-isr_TC_StartEx
 315 001a 00BF     		.section	.text.isr_TC_Stop,"ax",%progbits
 316              		.align	2
 317              		.global	isr_TC_Stop
 318              		.thumb
 319              		.thumb_func
 320              		.type	isr_TC_Stop, %function
 321              	isr_TC_Stop:
ARM GAS  C:\Users\NITISH~1\AppData\Local\Temp\cc8QXSmQ.s 			page 13


 322              	.LFB65:
 135:.\Generated_Source\PSoC5/isr_TC.c ****     /* Disable this interrupt. */
 323              		.loc 1 135 0
 324              		.cfi_startproc
 325              		@ args = 0, pretend = 0, frame = 0
 326              		@ frame_needed = 0, uses_anonymous_args = 0
 327 0000 08B5     		push	{r3, lr}
 328              		.cfi_def_cfa_offset 8
 329              		.cfi_offset 3, -8
 330              		.cfi_offset 14, -4
 137:.\Generated_Source\PSoC5/isr_TC.c **** 
 331              		.loc 1 137 0
 332 0002 FFF7FEFF 		bl	isr_TC_Disable
 333              	.LVL19:
 140:.\Generated_Source\PSoC5/isr_TC.c **** }
 334              		.loc 1 140 0
 335 0006 0248     		ldr	r0, .L34
 336 0008 FFF7FEFF 		bl	isr_TC_SetVector
 337              	.LVL20:
 338 000c 08BD     		pop	{r3, pc}
 339              	.L35:
 340 000e 00BF     		.align	2
 341              	.L34:
 342 0010 00000000 		.word	IntDefaultHandler
 343              		.cfi_endproc
 344              	.LFE65:
 345              		.size	isr_TC_Stop, .-isr_TC_Stop
 346              		.section	.text.isr_TC_SetPending,"ax",%progbits
 347              		.align	2
 348              		.global	isr_TC_SetPending
 349              		.thumb
 350              		.thumb_func
 351              		.type	isr_TC_SetPending, %function
 352              	isr_TC_SetPending:
 353              	.LFB74:
 354:.\Generated_Source\PSoC5/isr_TC.c **** }
 355:.\Generated_Source\PSoC5/isr_TC.c **** 
 356:.\Generated_Source\PSoC5/isr_TC.c **** 
 357:.\Generated_Source\PSoC5/isr_TC.c **** /*******************************************************************************
 358:.\Generated_Source\PSoC5/isr_TC.c **** * Function Name: isr_TC_SetPending
 359:.\Generated_Source\PSoC5/isr_TC.c **** ********************************************************************************
 360:.\Generated_Source\PSoC5/isr_TC.c **** *
 361:.\Generated_Source\PSoC5/isr_TC.c **** * Summary:
 362:.\Generated_Source\PSoC5/isr_TC.c **** *   Causes the Interrupt to enter the pending state, a software method of
 363:.\Generated_Source\PSoC5/isr_TC.c **** *   generating the interrupt.
 364:.\Generated_Source\PSoC5/isr_TC.c **** *
 365:.\Generated_Source\PSoC5/isr_TC.c **** * Parameters:
 366:.\Generated_Source\PSoC5/isr_TC.c **** *   None
 367:.\Generated_Source\PSoC5/isr_TC.c **** *
 368:.\Generated_Source\PSoC5/isr_TC.c **** * Return:
 369:.\Generated_Source\PSoC5/isr_TC.c **** *   None
 370:.\Generated_Source\PSoC5/isr_TC.c **** *
 371:.\Generated_Source\PSoC5/isr_TC.c **** * Side Effects:
 372:.\Generated_Source\PSoC5/isr_TC.c **** *   If interrupts are enabled and the interrupt is set up properly, the ISR is
 373:.\Generated_Source\PSoC5/isr_TC.c **** *   entered (depending on the priority of this interrupt and other pending 
 374:.\Generated_Source\PSoC5/isr_TC.c **** *   interrupts).
 375:.\Generated_Source\PSoC5/isr_TC.c **** *
ARM GAS  C:\Users\NITISH~1\AppData\Local\Temp\cc8QXSmQ.s 			page 14


 376:.\Generated_Source\PSoC5/isr_TC.c **** *******************************************************************************/
 377:.\Generated_Source\PSoC5/isr_TC.c **** void isr_TC_SetPending(void)
 378:.\Generated_Source\PSoC5/isr_TC.c **** {
 354              		.loc 1 378 0
 355              		.cfi_startproc
 356              		@ args = 0, pretend = 0, frame = 0
 357              		@ frame_needed = 0, uses_anonymous_args = 0
 358              		@ link register save eliminated.
 379:.\Generated_Source\PSoC5/isr_TC.c ****     *isr_TC_INTC_SET_PD = isr_TC__INTC_MASK;
 359              		.loc 1 379 0
 360 0000 4FF40032 		mov	r2, #131072
 361 0004 014B     		ldr	r3, .L37
 362 0006 1A60     		str	r2, [r3]
 363 0008 7047     		bx	lr
 364              	.L38:
 365 000a 00BF     		.align	2
 366              	.L37:
 367 000c 00E200E0 		.word	-536813056
 368              		.cfi_endproc
 369              	.LFE74:
 370              		.size	isr_TC_SetPending, .-isr_TC_SetPending
 371              		.section	.text.isr_TC_ClearPending,"ax",%progbits
 372              		.align	2
 373              		.global	isr_TC_ClearPending
 374              		.thumb
 375              		.thumb_func
 376              		.type	isr_TC_ClearPending, %function
 377              	isr_TC_ClearPending:
 378              	.LFB75:
 380:.\Generated_Source\PSoC5/isr_TC.c **** }
 381:.\Generated_Source\PSoC5/isr_TC.c **** 
 382:.\Generated_Source\PSoC5/isr_TC.c **** 
 383:.\Generated_Source\PSoC5/isr_TC.c **** /*******************************************************************************
 384:.\Generated_Source\PSoC5/isr_TC.c **** * Function Name: isr_TC_ClearPending
 385:.\Generated_Source\PSoC5/isr_TC.c **** ********************************************************************************
 386:.\Generated_Source\PSoC5/isr_TC.c **** *
 387:.\Generated_Source\PSoC5/isr_TC.c **** * Summary:
 388:.\Generated_Source\PSoC5/isr_TC.c **** *   Clears a pending interrupt in the interrupt controller.
 389:.\Generated_Source\PSoC5/isr_TC.c **** *
 390:.\Generated_Source\PSoC5/isr_TC.c **** *   Note Some interrupt sources are clear-on-read and require the block 
 391:.\Generated_Source\PSoC5/isr_TC.c **** *   interrupt/status register to be read/cleared with the appropriate block API 
 392:.\Generated_Source\PSoC5/isr_TC.c **** *   (GPIO, UART, and so on). Otherwise the ISR will continue to remain in 
 393:.\Generated_Source\PSoC5/isr_TC.c **** *   pending state even though the interrupt itself is cleared using this API.
 394:.\Generated_Source\PSoC5/isr_TC.c **** *
 395:.\Generated_Source\PSoC5/isr_TC.c **** * Parameters:
 396:.\Generated_Source\PSoC5/isr_TC.c **** *   None
 397:.\Generated_Source\PSoC5/isr_TC.c **** *
 398:.\Generated_Source\PSoC5/isr_TC.c **** * Return:
 399:.\Generated_Source\PSoC5/isr_TC.c **** *   None
 400:.\Generated_Source\PSoC5/isr_TC.c **** *
 401:.\Generated_Source\PSoC5/isr_TC.c **** *******************************************************************************/
 402:.\Generated_Source\PSoC5/isr_TC.c **** void isr_TC_ClearPending(void)
 403:.\Generated_Source\PSoC5/isr_TC.c **** {
 379              		.loc 1 403 0
 380              		.cfi_startproc
 381              		@ args = 0, pretend = 0, frame = 0
 382              		@ frame_needed = 0, uses_anonymous_args = 0
ARM GAS  C:\Users\NITISH~1\AppData\Local\Temp\cc8QXSmQ.s 			page 15


 383              		@ link register save eliminated.
 404:.\Generated_Source\PSoC5/isr_TC.c ****     *isr_TC_INTC_CLR_PD = isr_TC__INTC_MASK;
 384              		.loc 1 404 0
 385 0000 4FF40032 		mov	r2, #131072
 386 0004 014B     		ldr	r3, .L40
 387 0006 1A60     		str	r2, [r3]
 388 0008 7047     		bx	lr
 389              	.L41:
 390 000a 00BF     		.align	2
 391              	.L40:
 392 000c 80E200E0 		.word	-536812928
 393              		.cfi_endproc
 394              	.LFE75:
 395              		.size	isr_TC_ClearPending, .-isr_TC_ClearPending
 396              		.text
 397              	.Letext0:
 398              		.file 2 "c:\\program files (x86)\\cypress\\psoc creator\\3.3\\psoc creator\\import\\gnu\\arm\\4.9.
 399              		.file 3 "c:\\program files (x86)\\cypress\\psoc creator\\3.3\\psoc creator\\import\\gnu\\arm\\4.9.
 400              		.file 4 "Generated_Source\\PSoC5/cytypes.h"
 401              		.file 5 "Generated_Source\\PSoC5/Timer_1.h"
 402              		.file 6 "Generated_Source\\PSoC5/LED.h"
 403              		.file 7 "Generated_Source\\PSoC5/core_cm3.h"