ARM GAS  C:\Users\schoo\AppData\Local\Temp\cchXedFh.s 			page 1


   1              		.syntax unified
   2              		.cpu cortex-m3
   3              		.fpu softvfp
   4              		.eabi_attribute 20, 1
   5              		.eabi_attribute 21, 1
   6              		.eabi_attribute 23, 3
   7              		.eabi_attribute 24, 1
   8              		.eabi_attribute 25, 1
   9              		.eabi_attribute 26, 1
  10              		.eabi_attribute 30, 1
  11              		.eabi_attribute 34, 1
  12              		.eabi_attribute 18, 4
  13              		.thumb
  14              		.syntax unified
  15              		.file	"main.c"
  16              		.text
  17              	.Ltext0:
  18              		.cfi_sections	.debug_frame
  19              		.section	.text.TC_Interrupt,"ax",%progbits
  20              		.align	2
  21              		.global	TC_Interrupt
  22              		.thumb
  23              		.thumb_func
  24              		.type	TC_Interrupt, %function
  25              	TC_Interrupt:
  26              	.LFB63:
  27              		.file 1 "main.c"
   1:main.c        **** 
   2:main.c        **** /* ========================================
   3:main.c        ****  * Laboratory Exercise 3
   4:main.c        ****  *
   5:main.c        ****  * Program timer to flash LED at 1Hz, use interrupts
   6:main.c        ****  *
   7:main.c        ****  * Copyright Univ of Auckland, 2016
   8:main.c        ****  * All Rights Reserved
   9:main.c        ****  * UNPUBLISHED, LICENSED SOFTWARE.
  10:main.c        ****  *
  11:main.c        ****  * CONFIDENTIAL AND PROPRIETARY INFORMATION
  12:main.c        ****  * WHICH IS THE PROPERTY OF Univ of Auckland.
  13:main.c        ****  *
  14:main.c        ****  * ========================================
  15:main.c        **** */
  16:main.c        **** #include "project.h"
  17:main.c        **** 
  18:main.c        **** 
  19:main.c        **** //Define the ISR, CY_ISR is used tod efine the function
  20:main.c        **** CY_ISR(TC_Interrupt) {
  28              		.loc 1 20 0
  29              		.cfi_startproc
  30              		@ args = 0, pretend = 0, frame = 0
  31              		@ frame_needed = 0, uses_anonymous_args = 0
  32 0000 08B5     		push	{r3, lr}
  33              		.cfi_def_cfa_offset 8
  34              		.cfi_offset 3, -8
  35              		.cfi_offset 14, -4
  21:main.c        ****     //Toggle the LED, Write to it the opposite of its curent value
  22:main.c        ****     LED_Write(~LED_Read());
ARM GAS  C:\Users\schoo\AppData\Local\Temp\cchXedFh.s 			page 2


  36              		.loc 1 22 0
  37 0002 FFF7FEFF 		bl	LED_Read
  38              	.LVL0:
  39 0006 C043     		mvns	r0, r0
  40 0008 C0B2     		uxtb	r0, r0
  41 000a FFF7FEFF 		bl	LED_Write
  42              	.LVL1:
  23:main.c        ****     //reset the TIMER value
  24:main.c        ****     Timer_1_ReadStatusRegister();   
  43              		.loc 1 24 0
  44 000e FFF7FEFF 		bl	Timer_1_ReadStatusRegister
  45              	.LVL2:
  46 0012 08BD     		pop	{r3, pc}
  47              		.cfi_endproc
  48              	.LFE63:
  49              		.size	TC_Interrupt, .-TC_Interrupt
  50              		.section	.text.main,"ax",%progbits
  51              		.align	2
  52              		.global	main
  53              		.thumb
  54              		.thumb_func
  55              		.type	main, %function
  56              	main:
  57              	.LFB64:
  25:main.c        **** }
  26:main.c        **** 
  27:main.c        **** int main()
  28:main.c        **** {
  58              		.loc 1 28 0
  59              		.cfi_startproc
  60              		@ Volatile: function does not return.
  61              		@ args = 0, pretend = 0, frame = 0
  62              		@ frame_needed = 0, uses_anonymous_args = 0
  63 0000 08B5     		push	{r3, lr}
  64              		.cfi_def_cfa_offset 8
  65              		.cfi_offset 3, -8
  66              		.cfi_offset 14, -4
  29:main.c        ****     
  30:main.c        ****     CyGlobalIntEnable; /* Enable global interrupts. */
  67              		.loc 1 30 0
  68              		.syntax unified
  69              	@ 30 "main.c" 1
  70 0002 62B6     		CPSIE   i
  71              	@ 0 "" 2
  31:main.c        **** 
  32:main.c        ****     /* Place your initialization/startup code here (e.g. MyInst_Start()) */
  33:main.c        ****     
  34:main.c        ****     
  35:main.c        ****     //Start the Define ISR, pass the ISR to the isr start
  36:main.c        ****     isr_TC_StartEx(TC_Interrupt);
  72              		.loc 1 36 0
  73              		.thumb
  74              		.syntax unified
  75 0004 0248     		ldr	r0, .L6
  76 0006 FFF7FEFF 		bl	isr_TC_StartEx
  77              	.LVL3:
  37:main.c        ****     
ARM GAS  C:\Users\schoo\AppData\Local\Temp\cchXedFh.s 			page 3


  38:main.c        ****     
  39:main.c        ****     //Start the TIemr
  40:main.c        ****     Timer_1_Start();
  78              		.loc 1 40 0
  79 000a FFF7FEFF 		bl	Timer_1_Start
  80              	.LVL4:
  81              	.L4:
  82 000e FEE7     		b	.L4
  83              	.L7:
  84              		.align	2
  85              	.L6:
  86 0010 00000000 		.word	TC_Interrupt
  87              		.cfi_endproc
  88              	.LFE64:
  89              		.size	main, .-main
  90              		.text
  91              	.Letext0:
  92              		.file 2 "c:\\program files (x86)\\cypress\\psoc creator\\4.2\\psoc creator\\import\\gnu\\arm\\5.4.
  93              		.file 3 "c:\\program files (x86)\\cypress\\psoc creator\\4.2\\psoc creator\\import\\gnu\\arm\\5.4.
  94              		.file 4 "Generated_Source\\PSoC5/LED.h"
  95              		.file 5 "Generated_Source\\PSoC5/Timer_1.h"
  96              		.file 6 "Generated_Source\\PSoC5/isr_TC.h"
  97              		.file 7 "Generated_Source\\PSoC5/core_cm3.h"