ARM GAS  C:\Users\sela847\AppData\Local\Temp\ccCWOKTW.s 			page 1


   1              		.syntax unified
   2              		.cpu cortex-m3
   3              		.fpu softvfp
   4              		.eabi_attribute 20, 1
   5              		.eabi_attribute 21, 1
   6              		.eabi_attribute 23, 3
   7              		.eabi_attribute 24, 1
   8              		.eabi_attribute 25, 1
   9              		.eabi_attribute 26, 1
  10              		.eabi_attribute 30, 6
  11              		.eabi_attribute 34, 1
  12              		.eabi_attribute 18, 4
  13              		.thumb
  14              		.syntax unified
  15              		.file	"main.c"
  16              		.text
  17              	.Ltext0:
  18              		.cfi_sections	.debug_frame
  19              		.global	ts
  20              		.bss
  21              		.type	ts, %object
  22              		.size	ts, 1
  23              	ts:
  24 0000 00       		.space	1
  25              		.global	ts_enc
  26 0001 00       		.align	1
  27              		.type	ts_enc, %object
  28              		.size	ts_enc, 2
  29              	ts_enc:
  30 0002 0000     		.space	2
  31              		.global	ts_update
  32              		.align	1
  33              		.type	ts_update, %object
  34              		.size	ts_update, 2
  35              	ts_update:
  36 0004 0000     		.space	2
  37              		.global	ts_speed
  38              		.align	1
  39              		.type	ts_speed, %object
  40              		.size	ts_speed, 2
  41              	ts_speed:
  42 0006 0000     		.space	2
  43              		.global	ts_display
  44              		.align	1
  45              		.type	ts_display, %object
  46              		.size	ts_display, 2
  47              	ts_display:
  48 0008 0000     		.space	2
  49              		.global	flag_ts_enc
  50              		.type	flag_ts_enc, %object
  51              		.size	flag_ts_enc, 1
  52              	flag_ts_enc:
  53 000a 00       		.space	1
  54              		.global	flag_ts_update
  55              		.type	flag_ts_update, %object
  56              		.size	flag_ts_update, 1
  57              	flag_ts_update:
ARM GAS  C:\Users\sela847\AppData\Local\Temp\ccCWOKTW.s 			page 2


  58 000b 00       		.space	1
  59              		.global	flag_ts_speed
  60              		.type	flag_ts_speed, %object
  61              		.size	flag_ts_speed, 1
  62              	flag_ts_speed:
  63 000c 00       		.space	1
  64              		.global	flag_ts_display
  65              		.type	flag_ts_display, %object
  66              		.size	flag_ts_display, 1
  67              	flag_ts_display:
  68 000d 00       		.space	1
  69              		.global	flag_rx
  70              		.type	flag_rx, %object
  71              		.size	flag_rx, 1
  72              	flag_rx:
  73 000e 00       		.space	1
  74              		.global	flag_packet
  75              		.type	flag_packet, %object
  76              		.size	flag_packet, 1
  77              	flag_packet:
  78 000f 00       		.space	1
  79              		.global	flag_KB_string
  80              		.type	flag_KB_string, %object
  81              		.size	flag_KB_string, 1
  82              	flag_KB_string:
  83 0010 00       		.space	1
  84              		.global	dataready_flag
  85              		.type	dataready_flag, %object
  86              		.size	dataready_flag, 1
  87              	dataready_flag:
  88 0011 00       		.space	1
  89              		.global	flag_rf_transmission_active
  90              		.data
  91              		.type	flag_rf_transmission_active, %object
  92              		.size	flag_rf_transmission_active, 1
  93              	flag_rf_transmission_active:
  94 0000 0A       		.byte	10
  95              		.global	displaystring
  96 0001 000000   		.align	2
  97              		.type	displaystring, %object
  98              		.size	displaystring, 64
  99              	displaystring:
 100 0004 43533330 		.ascii	"CS301 2016\012\000"
 100      31203230 
 100      31360A00 
 101 0010 00000000 		.space	52
 101      00000000 
 101      00000000 
 101      00000000 
 101      00000000 
 102              		.comm	line,64,4
 103              		.comm	entry,64,4
 104              		.comm	usbBuffer,64,4
 105              		.comm	system_state,32,4
 106              		.global	timeIndex
 107              		.bss
 108              		.type	timeIndex, %object
ARM GAS  C:\Users\sela847\AppData\Local\Temp\ccCWOKTW.s 			page 3


 109              		.size	timeIndex, 1
 110              	timeIndex:
 111 0012 00       		.space	1
 112              		.global	m1motorSpeed
 113 0013 00       		.align	2
 114              		.type	m1motorSpeed, %object
 115              		.size	m1motorSpeed, 4
 116              	m1motorSpeed:
 117 0014 00000000 		.space	4
 118              		.global	m2motorSpeed
 119              		.align	2
 120              		.type	m2motorSpeed, %object
 121              		.size	m2motorSpeed, 4
 122              	m2motorSpeed:
 123 0018 00000000 		.space	4
 124              		.comm	timeArrayM1,4,4
 125              		.comm	timeArrayM2,4,4
 126              		.global	printSpeed
 127              		.type	printSpeed, %object
 128              		.size	printSpeed, 1
 129              	printSpeed:
 130 001c 00       		.space	1
 131              		.global	changeVal
 132              		.type	changeVal, %object
 133              		.size	changeVal, 1
 134              	changeVal:
 135 001d 00       		.space	1
 136              		.global	m1Count
 137              		.align	1
 138              		.type	m1Count, %object
 139              		.size	m1Count, 2
 140              	m1Count:
 141 001e 0000     		.space	2
 142              		.global	m2Count
 143              		.align	1
 144              		.type	m2Count, %object
 145              		.size	m2Count, 2
 146              	m2Count:
 147 0020 0000     		.space	2
 148              		.global	stop
 149              		.type	stop, %object
 150              		.size	stop, 1
 151              	stop:
 152 0022 00       		.space	1
 153              		.comm	speedL,2,2
 154              		.comm	speedR,2,2
 155              		.comm	posL,2,2
 156              		.comm	posR,2,2
 157              		.comm	m1Comp,4,4
 158              		.comm	m2Comp,4,4
 159              		.section	.text.get_speed,"ax",%progbits
 160              		.align	2
 161              		.global	get_speed
 162              		.thumb
 163              		.thumb_func
 164              		.type	get_speed, %function
 165              	get_speed:
ARM GAS  C:\Users\sela847\AppData\Local\Temp\ccCWOKTW.s 			page 4


 166              	.LFB64:
 167              		.file 1 "main.c"
   1:main.c        **** /* ========================================
   2:main.c        ****  * Fully working code: 
   3:main.c        ****  * PWM      : 
   4:main.c        ****  * Encoder  : 
   5:main.c        ****  * ADC      :
   6:main.c        ****  * USB      : port displays speed and position.
   7:main.c        ****  * CMD: "PW xx"
   8:main.c        ****  * Copyright Univ of Auckland, 2016
   9:main.c        ****  * All Rights Reserved
  10:main.c        ****  * UNPUBLISHED, LICENSED SOFTWARE.
  11:main.c        ****  *
  12:main.c        ****  * CONFIDENTIAL AND PROPRIETARY INFORMATION
  13:main.c        ****  * WHICH IS THE PROPERTY OF Univ of Auckland.
  14:main.c        ****  *
  15:main.c        ****  * ========================================
  16:main.c        **** */
  17:main.c        **** #include <stdio.h>
  18:main.c        **** #include <string.h>
  19:main.c        **** #include <stdlib.h>
  20:main.c        **** #include <project.h>
  21:main.c        **** #include <math.h>
  22:main.c        **** 
  23:main.c        **** //* ========================================
  24:main.c        **** #include "defines.h"
  25:main.c        **** #include "vars.h"
  26:main.c        **** #define GEAR_RATIO 19
  27:main.c        **** #define PULSES_PER_ROT (GEAR_RATIO * 3 * QuadDec_M1_COUNTER_RESOLUTION)
  28:main.c        **** #define RADIUS (3.25f)
  29:main.c        **** #define MOTORSPEED_PER_SECOND ((float) 50/1000.0f) // 100ms is the period we want to be changing th
  30:main.c        **** //* ========================================
  31:main.c        **** void usbPutString(char *s);
  32:main.c        **** uint8_t changeDutyCycle(uint8_t dutyValue);
  33:main.c        **** void usbPutChar(char c);
  34:main.c        **** void handle_usb();
  35:main.c        **** //* ========================================
  36:main.c        **** uint8_t timeIndex = 0;
  37:main.c        **** float m1motorSpeed =0;
  38:main.c        **** float m2motorSpeed =0;
  39:main.c        **** uint16_t timeArrayM1[2];
  40:main.c        **** uint16_t timeArrayM2[2];
  41:main.c        **** uint8_t printSpeed = 0;
  42:main.c        **** volatile uint8_t changeVal = 0;
  43:main.c        **** uint16_t m1Count = 0;
  44:main.c        **** uint16_t m2Count = 0;
  45:main.c        **** uint8_t stop = 0;
  46:main.c        **** uint16_t speedL, speedR;
  47:main.c        **** uint16_t posL, posR;
  48:main.c        **** float m1Comp,m2Comp;
  49:main.c        **** void get_speed()
  50:main.c        **** {
 168              		.loc 1 50 0
 169              		.cfi_startproc
 170              		@ args = 0, pretend = 0, frame = 8
 171              		@ frame_needed = 1, uses_anonymous_args = 0
 172 0000 80B5     		push	{r7, lr}
ARM GAS  C:\Users\sela847\AppData\Local\Temp\ccCWOKTW.s 			page 5


 173              		.cfi_def_cfa_offset 8
 174              		.cfi_offset 7, -8
 175              		.cfi_offset 14, -4
 176 0002 82B0     		sub	sp, sp, #8
 177              		.cfi_def_cfa_offset 16
 178 0004 00AF     		add	r7, sp, #0
 179              		.cfi_def_cfa_register 7
  51:main.c        ****     int16 pl, pr;
  52:main.c        ****     
  53:main.c        ****     // get current position.
  54:main.c        ****     pl = QuadDec_M1_GetCounter();
 180              		.loc 1 54 0
 181 0006 FFF7FEFF 		bl	QuadDec_M1_GetCounter
 182 000a 0346     		mov	r3, r0
 183 000c BB80     		strh	r3, [r7, #4]	@ movhi
  55:main.c        ****     pr = QuadDec_M2_GetCounter();
 184              		.loc 1 55 0
 185 000e FFF7FEFF 		bl	QuadDec_M2_GetCounter
 186 0012 0346     		mov	r3, r0
 187 0014 7B80     		strh	r3, [r7, #2]	@ movhi
  56:main.c        ****     
  57:main.c        ****     speedL = pl - posL;
 188              		.loc 1 57 0
 189 0016 BA88     		ldrh	r2, [r7, #4]
 190 0018 294B     		ldr	r3, .L6
 191 001a 1B88     		ldrh	r3, [r3]
 192 001c D31A     		subs	r3, r2, r3
 193 001e 9AB2     		uxth	r2, r3
 194 0020 284B     		ldr	r3, .L6+4
 195 0022 1A80     		strh	r2, [r3]	@ movhi
  58:main.c        ****     speedR = pr - posR;
 196              		.loc 1 58 0
 197 0024 7A88     		ldrh	r2, [r7, #2]
 198 0026 284B     		ldr	r3, .L6+8
 199 0028 1B88     		ldrh	r3, [r3]
 200 002a D31A     		subs	r3, r2, r3
 201 002c 9AB2     		uxth	r2, r3
 202 002e 274B     		ldr	r3, .L6+12
 203 0030 1A80     		strh	r2, [r3]	@ movhi
  59:main.c        ****     posL = pl;
 204              		.loc 1 59 0
 205 0032 BA88     		ldrh	r2, [r7, #4]
 206 0034 224B     		ldr	r3, .L6
 207 0036 1A80     		strh	r2, [r3]	@ movhi
  60:main.c        ****     posR = pr;
 208              		.loc 1 60 0
 209 0038 7A88     		ldrh	r2, [r7, #2]
 210 003a 234B     		ldr	r3, .L6+8
 211 003c 1A80     		strh	r2, [r3]	@ movhi
  61:main.c        ****     
  62:main.c        ****     
  63:main.c        ****     // Speed of Motor 1
  64:main.c        ****     uint8_t state = QuadDec_M1_GetEvents();
 212              		.loc 1 64 0
 213 003e FFF7FEFF 		bl	QuadDec_M1_GetEvents
 214 0042 0346     		mov	r3, r0
 215 0044 7B70     		strb	r3, [r7, #1]
ARM GAS  C:\Users\sela847\AppData\Local\Temp\ccCWOKTW.s 			page 6


  65:main.c        ****     uint8_t speed = pl - posL;
 216              		.loc 1 65 0
 217 0046 BB88     		ldrh	r3, [r7, #4]	@ movhi
 218 0048 DAB2     		uxtb	r2, r3
 219 004a 1D4B     		ldr	r3, .L6
 220 004c 1B88     		ldrh	r3, [r3]
 221 004e DBB2     		uxtb	r3, r3
 222 0050 D31A     		subs	r3, r2, r3
 223 0052 FB71     		strb	r3, [r7, #7]
  66:main.c        ****     if ((state & QuadDec_M1_COUNTER_OVERFLOW) != 0x00)
 224              		.loc 1 66 0
 225 0054 7B78     		ldrb	r3, [r7, #1]	@ zero_extendqisi2
 226 0056 03F00103 		and	r3, r3, #1
 227 005a 002B     		cmp	r3, #0
 228 005c 02D0     		beq	.L2
  67:main.c        ****         speed += 32767;
 229              		.loc 1 67 0
 230 005e FB79     		ldrb	r3, [r7, #7]
 231 0060 013B     		subs	r3, r3, #1
 232 0062 FB71     		strb	r3, [r7, #7]
 233              	.L2:
  68:main.c        ****     
  69:main.c        ****     if ((state & QuadDec_M1_COUNTER_UNDERFLOW) != 0x00)
 234              		.loc 1 69 0
 235 0064 7B78     		ldrb	r3, [r7, #1]	@ zero_extendqisi2
 236 0066 03F00203 		and	r3, r3, #2
 237 006a 002B     		cmp	r3, #0
  70:main.c        ****         speed += -32768;
  71:main.c        ****     speedL = speed;
 238              		.loc 1 71 0
 239 006c FB79     		ldrb	r3, [r7, #7]	@ zero_extendqisi2
 240 006e 9AB2     		uxth	r2, r3
 241 0070 144B     		ldr	r3, .L6+4
 242 0072 1A80     		strh	r2, [r3]	@ movhi
  72:main.c        ****     posL = pl;
 243              		.loc 1 72 0
 244 0074 BA88     		ldrh	r2, [r7, #4]
 245 0076 124B     		ldr	r3, .L6
 246 0078 1A80     		strh	r2, [r3]	@ movhi
  73:main.c        ****     
  74:main.c        ****     // Speed of Motor 2
  75:main.c        ****     state = QuadDec_M2_GetEvents();
 247              		.loc 1 75 0
 248 007a FFF7FEFF 		bl	QuadDec_M2_GetEvents
 249 007e 0346     		mov	r3, r0
 250 0080 7B70     		strb	r3, [r7, #1]
  76:main.c        ****     speed = pr - posR;
 251              		.loc 1 76 0
 252 0082 7B88     		ldrh	r3, [r7, #2]	@ movhi
 253 0084 DAB2     		uxtb	r2, r3
 254 0086 104B     		ldr	r3, .L6+8
 255 0088 1B88     		ldrh	r3, [r3]
 256 008a DBB2     		uxtb	r3, r3
 257 008c D31A     		subs	r3, r2, r3
 258 008e FB71     		strb	r3, [r7, #7]
  77:main.c        ****     if ((state & QuadDec_M2_COUNTER_OVERFLOW) != 0x00)
 259              		.loc 1 77 0
ARM GAS  C:\Users\sela847\AppData\Local\Temp\ccCWOKTW.s 			page 7


 260 0090 7B78     		ldrb	r3, [r7, #1]	@ zero_extendqisi2
 261 0092 03F00103 		and	r3, r3, #1
 262 0096 002B     		cmp	r3, #0
 263 0098 02D0     		beq	.L4
  78:main.c        ****         speed += 32767;
 264              		.loc 1 78 0
 265 009a FB79     		ldrb	r3, [r7, #7]
 266 009c 013B     		subs	r3, r3, #1
 267 009e FB71     		strb	r3, [r7, #7]
 268              	.L4:
  79:main.c        ****     
  80:main.c        ****     if ((state & QuadDec_M2_COUNTER_UNDERFLOW) != 0x00)
 269              		.loc 1 80 0
 270 00a0 7B78     		ldrb	r3, [r7, #1]	@ zero_extendqisi2
 271 00a2 03F00203 		and	r3, r3, #2
 272 00a6 002B     		cmp	r3, #0
  81:main.c        ****         speed += -32768;
  82:main.c        ****     speedR = speed;    
 273              		.loc 1 82 0
 274 00a8 FB79     		ldrb	r3, [r7, #7]	@ zero_extendqisi2
 275 00aa 9AB2     		uxth	r2, r3
 276 00ac 074B     		ldr	r3, .L6+12
 277 00ae 1A80     		strh	r2, [r3]	@ movhi
  83:main.c        ****     posR = pr;
 278              		.loc 1 83 0
 279 00b0 7A88     		ldrh	r2, [r7, #2]
 280 00b2 054B     		ldr	r3, .L6+8
 281 00b4 1A80     		strh	r2, [r3]	@ movhi
  84:main.c        **** }
 282              		.loc 1 84 0
 283 00b6 00BF     		nop
 284 00b8 0837     		adds	r7, r7, #8
 285              		.cfi_def_cfa_offset 8
 286 00ba BD46     		mov	sp, r7
 287              		.cfi_def_cfa_register 13
 288              		@ sp needed
 289 00bc 80BD     		pop	{r7, pc}
 290              	.L7:
 291 00be 00BF     		.align	2
 292              	.L6:
 293 00c0 00000000 		.word	posL
 294 00c4 00000000 		.word	speedL
 295 00c8 00000000 		.word	posR
 296 00cc 00000000 		.word	speedR
 297              		.cfi_endproc
 298              	.LFE64:
 299              		.size	get_speed, .-get_speed
 300              		.global	__aeabi_ui2f
 301              		.global	__aeabi_fdiv
 302              		.global	__aeabi_f2d
 303              		.global	__aeabi_dmul
 304              		.global	__aeabi_ddiv
 305              		.global	__aeabi_d2f
 306              		.global	__aeabi_fmul
 307              		.global	__aeabi_fsub
 308              		.global	__aeabi_fadd
 309              		.global	__aeabi_fcmpgt
ARM GAS  C:\Users\sela847\AppData\Local\Temp\ccCWOKTW.s 			page 8


 310              		.global	__aeabi_fcmplt
 311              		.global	__aeabi_f2uiz
 312              		.section	.text.motorControl,"ax",%progbits
 313              		.align	2
 314              		.global	motorControl
 315              		.thumb
 316              		.thumb_func
 317              		.type	motorControl, %function
 318              	motorControl:
 319              	.LFB65:
  85:main.c        **** void motorControl(float m1speed, float m2speed) {
 320              		.loc 1 85 0
 321              		.cfi_startproc
 322              		@ args = 0, pretend = 0, frame = 24
 323              		@ frame_needed = 1, uses_anonymous_args = 0
 324 0000 90B5     		push	{r4, r7, lr}
 325              		.cfi_def_cfa_offset 12
 326              		.cfi_offset 4, -12
 327              		.cfi_offset 7, -8
 328              		.cfi_offset 14, -4
 329 0002 87B0     		sub	sp, sp, #28
 330              		.cfi_def_cfa_offset 40
 331 0004 00AF     		add	r7, sp, #0
 332              		.cfi_def_cfa_register 7
 333 0006 7860     		str	r0, [r7, #4]	@ float
 334 0008 3960     		str	r1, [r7]	@ float
  86:main.c        ****     
  87:main.c        ****     if(changeVal == 0) {
 335              		.loc 1 87 0
 336 000a 794B     		ldr	r3, .L30+16
 337 000c 1B78     		ldrb	r3, [r3]
 338 000e DBB2     		uxtb	r3, r3
 339 0010 002B     		cmp	r3, #0
 340 0012 00F0E180 		beq	.L29
  88:main.c        ****         
  89:main.c        ****         return;
  90:main.c        ****     } else if (stop ==1) {
 341              		.loc 1 90 0
 342 0016 774B     		ldr	r3, .L30+20
 343 0018 1B78     		ldrb	r3, [r3]	@ zero_extendqisi2
 344 001a 012B     		cmp	r3, #1
 345 001c 02D1     		bne	.L11
  91:main.c        ****         changeDutyCycle(50);
 346              		.loc 1 91 0
 347 001e 3220     		movs	r0, #50
 348 0020 FFF7FEFF 		bl	changeDutyCycle
 349              	.L11:
  92:main.c        ****     }
  93:main.c        ****     //PWM_1_WriteCompare(250);
  94:main.c        ****     changeVal = 0;
 350              		.loc 1 94 0
 351 0024 724B     		ldr	r3, .L30+16
 352 0026 0022     		movs	r2, #0
 353 0028 1A70     		strb	r2, [r3]
  95:main.c        ****     m1motorSpeed =  (float) m1Count / (float) PULSES_PER_ROT;
 354              		.loc 1 95 0
 355 002a 734B     		ldr	r3, .L30+24
ARM GAS  C:\Users\sela847\AppData\Local\Temp\ccCWOKTW.s 			page 9


 356 002c 1B88     		ldrh	r3, [r3]
 357 002e 1846     		mov	r0, r3
 358 0030 FFF7FEFF 		bl	__aeabi_ui2f
 359 0034 0346     		mov	r3, r0
 360 0036 7149     		ldr	r1, .L30+28
 361 0038 1846     		mov	r0, r3
 362 003a FFF7FEFF 		bl	__aeabi_fdiv
 363 003e 0346     		mov	r3, r0
 364 0040 1A46     		mov	r2, r3
 365 0042 6F4B     		ldr	r3, .L30+32
 366 0044 1A60     		str	r2, [r3]	@ float
  96:main.c        ****     m2motorSpeed = (float) m2Count / (float) PULSES_PER_ROT;
 367              		.loc 1 96 0
 368 0046 6F4B     		ldr	r3, .L30+36
 369 0048 1B88     		ldrh	r3, [r3]
 370 004a 1846     		mov	r0, r3
 371 004c FFF7FEFF 		bl	__aeabi_ui2f
 372 0050 0346     		mov	r3, r0
 373 0052 6A49     		ldr	r1, .L30+28
 374 0054 1846     		mov	r0, r3
 375 0056 FFF7FEFF 		bl	__aeabi_fdiv
 376 005a 0346     		mov	r3, r0
 377 005c 1A46     		mov	r2, r3
 378 005e 6A4B     		ldr	r3, .L30+40
 379 0060 1A60     		str	r2, [r3]	@ float
  97:main.c        ****     m1motorSpeed = 2 * CY_M_PI * m1motorSpeed / MOTORSPEED_PER_SECOND; // 2 * pi * rotations / (m/s
 380              		.loc 1 97 0
 381 0062 674B     		ldr	r3, .L30+32
 382 0064 1B68     		ldr	r3, [r3]	@ float
 383 0066 1846     		mov	r0, r3
 384 0068 FFF7FEFF 		bl	__aeabi_f2d
 385 006c 5CA3     		adr	r3, .L30
 386 006e D3E90023 		ldrd	r2, [r3]
 387 0072 FFF7FEFF 		bl	__aeabi_dmul
 388 0076 0346     		mov	r3, r0
 389 0078 0C46     		mov	r4, r1
 390 007a 1846     		mov	r0, r3
 391 007c 2146     		mov	r1, r4
 392 007e 5AA3     		adr	r3, .L30+8
 393 0080 D3E90023 		ldrd	r2, [r3]
 394 0084 FFF7FEFF 		bl	__aeabi_ddiv
 395 0088 0346     		mov	r3, r0
 396 008a 0C46     		mov	r4, r1
 397 008c 1846     		mov	r0, r3
 398 008e 2146     		mov	r1, r4
 399 0090 FFF7FEFF 		bl	__aeabi_d2f
 400 0094 0246     		mov	r2, r0
 401 0096 5A4B     		ldr	r3, .L30+32
 402 0098 1A60     		str	r2, [r3]	@ float
  98:main.c        ****     m1motorSpeed = m1motorSpeed * RADIUS;
 403              		.loc 1 98 0
 404 009a 594B     		ldr	r3, .L30+32
 405 009c 1B68     		ldr	r3, [r3]	@ float
 406 009e 5B49     		ldr	r1, .L30+44
 407 00a0 1846     		mov	r0, r3
 408 00a2 FFF7FEFF 		bl	__aeabi_fmul
 409 00a6 0346     		mov	r3, r0
ARM GAS  C:\Users\sela847\AppData\Local\Temp\ccCWOKTW.s 			page 10


 410 00a8 1A46     		mov	r2, r3
 411 00aa 554B     		ldr	r3, .L30+32
 412 00ac 1A60     		str	r2, [r3]	@ float
  99:main.c        ****     m2motorSpeed = 2 * CY_M_PI * m2motorSpeed / MOTORSPEED_PER_SECOND;
 413              		.loc 1 99 0
 414 00ae 564B     		ldr	r3, .L30+40
 415 00b0 1B68     		ldr	r3, [r3]	@ float
 416 00b2 1846     		mov	r0, r3
 417 00b4 FFF7FEFF 		bl	__aeabi_f2d
 418 00b8 49A3     		adr	r3, .L30
 419 00ba D3E90023 		ldrd	r2, [r3]
 420 00be FFF7FEFF 		bl	__aeabi_dmul
 421 00c2 0346     		mov	r3, r0
 422 00c4 0C46     		mov	r4, r1
 423 00c6 1846     		mov	r0, r3
 424 00c8 2146     		mov	r1, r4
 425 00ca 47A3     		adr	r3, .L30+8
 426 00cc D3E90023 		ldrd	r2, [r3]
 427 00d0 FFF7FEFF 		bl	__aeabi_ddiv
 428 00d4 0346     		mov	r3, r0
 429 00d6 0C46     		mov	r4, r1
 430 00d8 1846     		mov	r0, r3
 431 00da 2146     		mov	r1, r4
 432 00dc FFF7FEFF 		bl	__aeabi_d2f
 433 00e0 0246     		mov	r2, r0
 434 00e2 494B     		ldr	r3, .L30+40
 435 00e4 1A60     		str	r2, [r3]	@ float
 100:main.c        ****     m2motorSpeed = m2motorSpeed * RADIUS;
 436              		.loc 1 100 0
 437 00e6 484B     		ldr	r3, .L30+40
 438 00e8 1B68     		ldr	r3, [r3]	@ float
 439 00ea 4849     		ldr	r1, .L30+44
 440 00ec 1846     		mov	r0, r3
 441 00ee FFF7FEFF 		bl	__aeabi_fmul
 442 00f2 0346     		mov	r3, r0
 443 00f4 1A46     		mov	r2, r3
 444 00f6 444B     		ldr	r3, .L30+40
 445 00f8 1A60     		str	r2, [r3]	@ float
 101:main.c        ****     float m1error = m1speed - m1motorSpeed;
 446              		.loc 1 101 0
 447 00fa 414B     		ldr	r3, .L30+32
 448 00fc 1B68     		ldr	r3, [r3]	@ float
 449 00fe 1946     		mov	r1, r3
 450 0100 7868     		ldr	r0, [r7, #4]	@ float
 451 0102 FFF7FEFF 		bl	__aeabi_fsub
 452 0106 0346     		mov	r3, r0
 453 0108 7B61     		str	r3, [r7, #20]	@ float
 102:main.c        ****     float m2error = m2speed - m2motorSpeed;
 454              		.loc 1 102 0
 455 010a 3F4B     		ldr	r3, .L30+40
 456 010c 1B68     		ldr	r3, [r3]	@ float
 457 010e 1946     		mov	r1, r3
 458 0110 3868     		ldr	r0, [r7]	@ float
 459 0112 FFF7FEFF 		bl	__aeabi_fsub
 460 0116 0346     		mov	r3, r0
 461 0118 3B61     		str	r3, [r7, #16]	@ float
 103:main.c        ****     
ARM GAS  C:\Users\sela847\AppData\Local\Temp\ccCWOKTW.s 			page 11


 104:main.c        ****     //m1error = (m1speed * 228.0f * (float) MOTORSPEED_PER_SECOND) / ((float) 7.5f * CY_M_PI);
 105:main.c        ****     //m2error = (m2speed * 228.0f * (float) MOTORSPEED_PER_SECOND) / ((float) 7.5f * CY_M_PI);
 106:main.c        ****     m1Comp = PWM_1_ReadCompare();
 462              		.loc 1 106 0
 463 011a FFF7FEFF 		bl	PWM_1_ReadCompare
 464 011e 0346     		mov	r3, r0
 465 0120 1846     		mov	r0, r3
 466 0122 FFF7FEFF 		bl	__aeabi_ui2f
 467 0126 0246     		mov	r2, r0
 468 0128 394B     		ldr	r3, .L30+48
 469 012a 1A60     		str	r2, [r3]	@ float
 107:main.c        ****     m2Comp = PWM_2_ReadCompare();
 470              		.loc 1 107 0
 471 012c FFF7FEFF 		bl	PWM_2_ReadCompare
 472 0130 0346     		mov	r3, r0
 473 0132 1846     		mov	r0, r3
 474 0134 FFF7FEFF 		bl	__aeabi_ui2f
 475 0138 0246     		mov	r2, r0
 476 013a 364B     		ldr	r3, .L30+52
 477 013c 1A60     		str	r2, [r3]	@ float
 108:main.c        ****     float m1Target = m1Comp + m1error;
 478              		.loc 1 108 0
 479 013e 344B     		ldr	r3, .L30+48
 480 0140 1B68     		ldr	r3, [r3]	@ float
 481 0142 7969     		ldr	r1, [r7, #20]	@ float
 482 0144 1846     		mov	r0, r3
 483 0146 FFF7FEFF 		bl	__aeabi_fadd
 484 014a 0346     		mov	r3, r0
 485 014c FB60     		str	r3, [r7, #12]	@ float
 109:main.c        ****     float m2Target = m2Comp + m2error;
 486              		.loc 1 109 0
 487 014e 314B     		ldr	r3, .L30+52
 488 0150 1B68     		ldr	r3, [r3]	@ float
 489 0152 3969     		ldr	r1, [r7, #16]	@ float
 490 0154 1846     		mov	r0, r3
 491 0156 FFF7FEFF 		bl	__aeabi_fadd
 492 015a 0346     		mov	r3, r0
 493 015c BB60     		str	r3, [r7, #8]	@ float
 110:main.c        ****     //float m1Target = m2Target - 5;
 111:main.c        ****     
 112:main.c        ****     //PWM_1_WriteCompare((uint8_t) m1Target);
 113:main.c        ****     //PWM_2_WriteCompare((uint8_t) m2Target);
 114:main.c        ****     
 115:main.c        ****     
 116:main.c        ****     if (m1Target > 255) {
 494              		.loc 1 116 0
 495 015e 2E49     		ldr	r1, .L30+56
 496 0160 F868     		ldr	r0, [r7, #12]	@ float
 497 0162 FFF7FEFF 		bl	__aeabi_fcmpgt
 498 0166 0346     		mov	r3, r0
 499 0168 002B     		cmp	r3, #0
 500 016a 03D0     		beq	.L25
 117:main.c        ****         PWM_1_WriteCompare(255);   
 501              		.loc 1 117 0
 502 016c FF20     		movs	r0, #255
 503 016e FFF7FEFF 		bl	PWM_1_WriteCompare
 504 0172 12E0     		b	.L14
ARM GAS  C:\Users\sela847\AppData\Local\Temp\ccCWOKTW.s 			page 12


 505              	.L25:
 118:main.c        ****     } else if (m1Target < 122) {
 506              		.loc 1 118 0
 507 0174 2949     		ldr	r1, .L30+60
 508 0176 F868     		ldr	r0, [r7, #12]	@ float
 509 0178 FFF7FEFF 		bl	__aeabi_fcmplt
 510 017c 0346     		mov	r3, r0
 511 017e 002B     		cmp	r3, #0
 512 0180 03D0     		beq	.L26
 119:main.c        ****         PWM_1_WriteCompare(125);      
 513              		.loc 1 119 0
 514 0182 7D20     		movs	r0, #125
 515 0184 FFF7FEFF 		bl	PWM_1_WriteCompare
 516 0188 07E0     		b	.L14
 517              	.L26:
 120:main.c        ****     } else {
 121:main.c        ****         PWM_1_WriteCompare((uint8_t) m1Target);
 518              		.loc 1 121 0
 519 018a F868     		ldr	r0, [r7, #12]	@ float
 520 018c FFF7FEFF 		bl	__aeabi_f2uiz
 521 0190 0346     		mov	r3, r0
 522 0192 DBB2     		uxtb	r3, r3
 523 0194 1846     		mov	r0, r3
 524 0196 FFF7FEFF 		bl	PWM_1_WriteCompare
 525              	.L14:
 122:main.c        ****     }
 123:main.c        ****     if (m2Target > 255) {
 526              		.loc 1 123 0
 527 019a 1F49     		ldr	r1, .L30+56
 528 019c B868     		ldr	r0, [r7, #8]	@ float
 529 019e FFF7FEFF 		bl	__aeabi_fcmpgt
 530 01a2 0346     		mov	r3, r0
 531 01a4 002B     		cmp	r3, #0
 532 01a6 03D0     		beq	.L27
 124:main.c        ****         PWM_2_WriteCompare(255);   
 533              		.loc 1 124 0
 534 01a8 FF20     		movs	r0, #255
 535 01aa FFF7FEFF 		bl	PWM_2_WriteCompare
 536 01ae 14E0     		b	.L8
 537              	.L27:
 125:main.c        ****     } else if (m2Target < 122) {
 538              		.loc 1 125 0
 539 01b0 1A49     		ldr	r1, .L30+60
 540 01b2 B868     		ldr	r0, [r7, #8]	@ float
 541 01b4 FFF7FEFF 		bl	__aeabi_fcmplt
 542 01b8 0346     		mov	r3, r0
 543 01ba 002B     		cmp	r3, #0
 544 01bc 03D0     		beq	.L28
 126:main.c        ****         PWM_2_WriteCompare(125);      
 545              		.loc 1 126 0
 546 01be 7D20     		movs	r0, #125
 547 01c0 FFF7FEFF 		bl	PWM_2_WriteCompare
 548 01c4 09E0     		b	.L8
 549              	.L28:
 127:main.c        ****     } else {
 128:main.c        ****         PWM_2_WriteCompare((uint8_t) m2Target);
 550              		.loc 1 128 0
ARM GAS  C:\Users\sela847\AppData\Local\Temp\ccCWOKTW.s 			page 13


 551 01c6 B868     		ldr	r0, [r7, #8]	@ float
 552 01c8 FFF7FEFF 		bl	__aeabi_f2uiz
 553 01cc 0346     		mov	r3, r0
 554 01ce DBB2     		uxtb	r3, r3
 555 01d0 1846     		mov	r0, r3
 556 01d2 FFF7FEFF 		bl	PWM_2_WriteCompare
 557 01d6 00E0     		b	.L8
 558              	.L29:
  89:main.c        ****     } else if (stop ==1) {
 559              		.loc 1 89 0
 560 01d8 00BF     		nop
 561              	.L8:
 129:main.c        ****     }
 130:main.c        ****    
 131:main.c        ****     
 132:main.c        ****     
 133:main.c        **** }
 562              		.loc 1 133 0
 563 01da 1C37     		adds	r7, r7, #28
 564              		.cfi_def_cfa_offset 12
 565 01dc BD46     		mov	sp, r7
 566              		.cfi_def_cfa_register 13
 567              		@ sp needed
 568 01de 90BD     		pop	{r4, r7, pc}
 569              	.L31:
 570              		.align	3
 571              	.L30:
 572 01e0 182D4454 		.word	1413754136
 573 01e4 FB211940 		.word	1075388923
 574 01e8 000000A0 		.word	-1610612736
 575 01ec 9999A93F 		.word	1068079513
 576 01f0 00000000 		.word	changeVal
 577 01f4 00000000 		.word	stop
 578 01f8 00000000 		.word	m1Count
 579 01fc 00006443 		.word	1130627072
 580 0200 00000000 		.word	m1motorSpeed
 581 0204 00000000 		.word	m2Count
 582 0208 00000000 		.word	m2motorSpeed
 583 020c 00005040 		.word	1078984704
 584 0210 00000000 		.word	m1Comp
 585 0214 00000000 		.word	m2Comp
 586 0218 00007F43 		.word	1132396544
 587 021c 0000F442 		.word	1123287040
 588              		.cfi_endproc
 589              	.LFE65:
 590              		.size	motorControl, .-motorControl
 591              		.section	.text.outputUartIsr,"ax",%progbits
 592              		.align	2
 593              		.global	outputUartIsr
 594              		.thumb
 595              		.thumb_func
 596              		.type	outputUartIsr, %function
 597              	outputUartIsr:
 598              	.LFB66:
 134:main.c        **** //Interupts
 135:main.c        **** CY_ISR(outputUartIsr) {
 599              		.loc 1 135 0
ARM GAS  C:\Users\sela847\AppData\Local\Temp\ccCWOKTW.s 			page 14


 600              		.cfi_startproc
 601              		@ args = 0, pretend = 0, frame = 0
 602              		@ frame_needed = 1, uses_anonymous_args = 0
 603 0000 80B5     		push	{r7, lr}
 604              		.cfi_def_cfa_offset 8
 605              		.cfi_offset 7, -8
 606              		.cfi_offset 14, -4
 607 0002 00AF     		add	r7, sp, #0
 608              		.cfi_def_cfa_register 7
 136:main.c        ****     //LED_Write(!LED_Read());
 137:main.c        ****     printSpeed = 1; // Print the speed every like 200ms
 609              		.loc 1 137 0
 610 0004 044B     		ldr	r3, .L33
 611 0006 0122     		movs	r2, #1
 612 0008 1A70     		strb	r2, [r3]
 138:main.c        ****     stop = 1;
 613              		.loc 1 138 0
 614 000a 044B     		ldr	r3, .L33+4
 615 000c 0122     		movs	r2, #1
 616 000e 1A70     		strb	r2, [r3]
 139:main.c        ****     Timer_TS_ReadStatusRegister();   
 617              		.loc 1 139 0
 618 0010 FFF7FEFF 		bl	Timer_TS_ReadStatusRegister
 140:main.c        **** }
 619              		.loc 1 140 0
 620 0014 00BF     		nop
 621 0016 80BD     		pop	{r7, pc}
 622              	.L34:
 623              		.align	2
 624              	.L33:
 625 0018 00000000 		.word	printSpeed
 626 001c 00000000 		.word	stop
 627              		.cfi_endproc
 628              	.LFE66:
 629              		.size	outputUartIsr, .-outputUartIsr
 630              		.section	.text.QuadDecoderIsr,"ax",%progbits
 631              		.align	2
 632              		.global	QuadDecoderIsr
 633              		.thumb
 634              		.thumb_func
 635              		.type	QuadDecoderIsr, %function
 636              	QuadDecoderIsr:
 637              	.LFB67:
 141:main.c        **** CY_ISR(QuadDecoderIsr){
 638              		.loc 1 141 0
 639              		.cfi_startproc
 640              		@ args = 0, pretend = 0, frame = 0
 641              		@ frame_needed = 1, uses_anonymous_args = 0
 642 0000 80B5     		push	{r7, lr}
 643              		.cfi_def_cfa_offset 8
 644              		.cfi_offset 7, -8
 645              		.cfi_offset 14, -4
 646 0002 00AF     		add	r7, sp, #0
 647              		.cfi_def_cfa_register 7
 142:main.c        ****     //usbPutString("test");
 143:main.c        ****     m2Count = QuadDec_M2_GetCounter();
 648              		.loc 1 143 0
ARM GAS  C:\Users\sela847\AppData\Local\Temp\ccCWOKTW.s 			page 15


 649 0004 FFF7FEFF 		bl	QuadDec_M2_GetCounter
 650 0008 0346     		mov	r3, r0
 651 000a 9AB2     		uxth	r2, r3
 652 000c 0A4B     		ldr	r3, .L36
 653 000e 1A80     		strh	r2, [r3]	@ movhi
 144:main.c        ****     m1Count = QuadDec_M1_GetCounter();
 654              		.loc 1 144 0
 655 0010 FFF7FEFF 		bl	QuadDec_M1_GetCounter
 656 0014 0346     		mov	r3, r0
 657 0016 9AB2     		uxth	r2, r3
 658 0018 084B     		ldr	r3, .L36+4
 659 001a 1A80     		strh	r2, [r3]	@ movhi
 145:main.c        ****     //get_speed();
 146:main.c        ****     QuadDec_M1_SetCounter(0);
 660              		.loc 1 146 0
 661 001c 0020     		movs	r0, #0
 662 001e FFF7FEFF 		bl	QuadDec_M1_SetCounter
 147:main.c        ****     QuadDec_M2_SetCounter(0);
 663              		.loc 1 147 0
 664 0022 0020     		movs	r0, #0
 665 0024 FFF7FEFF 		bl	QuadDec_M2_SetCounter
 148:main.c        ****     changeVal = 1;
 666              		.loc 1 148 0
 667 0028 054B     		ldr	r3, .L36+8
 668 002a 0122     		movs	r2, #1
 669 002c 1A70     		strb	r2, [r3]
 149:main.c        ****     Quad_TImer_ReadStatusRegister();
 670              		.loc 1 149 0
 671 002e FFF7FEFF 		bl	Quad_TImer_ReadStatusRegister
 150:main.c        **** }
 672              		.loc 1 150 0
 673 0032 00BF     		nop
 674 0034 80BD     		pop	{r7, pc}
 675              	.L37:
 676 0036 00BF     		.align	2
 677              	.L36:
 678 0038 00000000 		.word	m2Count
 679 003c 00000000 		.word	m1Count
 680 0040 00000000 		.word	changeVal
 681              		.cfi_endproc
 682              	.LFE67:
 683              		.size	QuadDecoderIsr, .-QuadDecoderIsr
 684              		.section	.text.get_pos,"ax",%progbits
 685              		.align	2
 686              		.global	get_pos
 687              		.thumb
 688              		.thumb_func
 689              		.type	get_pos, %function
 690              	get_pos:
 691              	.LFB68:
 151:main.c        **** void get_pos()
 152:main.c        **** {
 692              		.loc 1 152 0
 693              		.cfi_startproc
 694              		@ args = 0, pretend = 0, frame = 8
 695              		@ frame_needed = 1, uses_anonymous_args = 0
 696 0000 80B5     		push	{r7, lr}
ARM GAS  C:\Users\sela847\AppData\Local\Temp\ccCWOKTW.s 			page 16


 697              		.cfi_def_cfa_offset 8
 698              		.cfi_offset 7, -8
 699              		.cfi_offset 14, -4
 700 0002 82B0     		sub	sp, sp, #8
 701              		.cfi_def_cfa_offset 16
 702 0004 00AF     		add	r7, sp, #0
 703              		.cfi_def_cfa_register 7
 153:main.c        ****     int pl, pr;
 154:main.c        **** 
 155:main.c        ****     pl = QuadDec_M1_GetCounter();
 704              		.loc 1 155 0
 705 0006 FFF7FEFF 		bl	QuadDec_M1_GetCounter
 706 000a 7860     		str	r0, [r7, #4]
 156:main.c        ****     pr = QuadDec_M2_GetCounter();
 707              		.loc 1 156 0
 708 000c FFF7FEFF 		bl	QuadDec_M2_GetCounter
 709 0010 3860     		str	r0, [r7]
 157:main.c        **** 
 158:main.c        ****     posL = pl;
 710              		.loc 1 158 0
 711 0012 7B68     		ldr	r3, [r7, #4]
 712 0014 9AB2     		uxth	r2, r3
 713 0016 054B     		ldr	r3, .L39
 714 0018 1A80     		strh	r2, [r3]	@ movhi
 159:main.c        ****     posR = pr;
 715              		.loc 1 159 0
 716 001a 3B68     		ldr	r3, [r7]
 717 001c 9AB2     		uxth	r2, r3
 718 001e 044B     		ldr	r3, .L39+4
 719 0020 1A80     		strh	r2, [r3]	@ movhi
 160:main.c        **** }
 720              		.loc 1 160 0
 721 0022 00BF     		nop
 722 0024 0837     		adds	r7, r7, #8
 723              		.cfi_def_cfa_offset 8
 724 0026 BD46     		mov	sp, r7
 725              		.cfi_def_cfa_register 13
 726              		@ sp needed
 727 0028 80BD     		pop	{r7, pc}
 728              	.L40:
 729 002a 00BF     		.align	2
 730              	.L39:
 731 002c 00000000 		.word	posL
 732 0030 00000000 		.word	posR
 733              		.cfi_endproc
 734              	.LFE68:
 735              		.size	get_pos, .-get_pos
 736              		.global	__aeabi_i2d
 737              		.global	__aeabi_d2uiz
 738              		.section	.text.changeDutyCycle,"ax",%progbits
 739              		.align	2
 740              		.global	changeDutyCycle
 741              		.thumb
 742              		.thumb_func
 743              		.type	changeDutyCycle, %function
 744              	changeDutyCycle:
 745              	.LFB69:
ARM GAS  C:\Users\sela847\AppData\Local\Temp\ccCWOKTW.s 			page 17


 161:main.c        **** //------------------------------------------------------
 162:main.c        **** 
 163:main.c        **** 
 164:main.c        **** uint8_t changeDutyCycle(uint8_t dutyValue){
 746              		.loc 1 164 0
 747              		.cfi_startproc
 748              		@ args = 0, pretend = 0, frame = 16
 749              		@ frame_needed = 1, uses_anonymous_args = 0
 750 0000 B0B5     		push	{r4, r5, r7, lr}
 751              		.cfi_def_cfa_offset 16
 752              		.cfi_offset 4, -16
 753              		.cfi_offset 5, -12
 754              		.cfi_offset 7, -8
 755              		.cfi_offset 14, -4
 756 0002 84B0     		sub	sp, sp, #16
 757              		.cfi_def_cfa_offset 32
 758 0004 00AF     		add	r7, sp, #0
 759              		.cfi_def_cfa_register 7
 760 0006 0346     		mov	r3, r0
 761 0008 FB71     		strb	r3, [r7, #7]
 165:main.c        **** 
 166:main.c        ****     uint8_t val = ((float)PWM_1_ReadPeriod() * (dutyValue/100.0));
 762              		.loc 1 166 0
 763 000a FFF7FEFF 		bl	PWM_1_ReadPeriod
 764 000e 0346     		mov	r3, r0
 765 0010 1846     		mov	r0, r3
 766 0012 FFF7FEFF 		bl	__aeabi_ui2f
 767 0016 0346     		mov	r3, r0
 768 0018 1846     		mov	r0, r3
 769 001a FFF7FEFF 		bl	__aeabi_f2d
 770 001e 0446     		mov	r4, r0
 771 0020 0D46     		mov	r5, r1
 772 0022 FB79     		ldrb	r3, [r7, #7]	@ zero_extendqisi2
 773 0024 1846     		mov	r0, r3
 774 0026 FFF7FEFF 		bl	__aeabi_i2d
 775 002a 4FF00002 		mov	r2, #0
 776 002e 0F4B     		ldr	r3, .L43
 777 0030 FFF7FEFF 		bl	__aeabi_ddiv
 778 0034 0246     		mov	r2, r0
 779 0036 0B46     		mov	r3, r1
 780 0038 2046     		mov	r0, r4
 781 003a 2946     		mov	r1, r5
 782 003c FFF7FEFF 		bl	__aeabi_dmul
 783 0040 0346     		mov	r3, r0
 784 0042 0C46     		mov	r4, r1
 785 0044 1846     		mov	r0, r3
 786 0046 2146     		mov	r1, r4
 787 0048 FFF7FEFF 		bl	__aeabi_d2uiz
 788 004c 0346     		mov	r3, r0
 789 004e FB73     		strb	r3, [r7, #15]
 167:main.c        ****     PWM_1_WriteCompare(val);
 790              		.loc 1 167 0
 791 0050 FB7B     		ldrb	r3, [r7, #15]	@ zero_extendqisi2
 792 0052 1846     		mov	r0, r3
 793 0054 FFF7FEFF 		bl	PWM_1_WriteCompare
 168:main.c        ****     PWM_2_WriteCompare(val);
 794              		.loc 1 168 0
ARM GAS  C:\Users\sela847\AppData\Local\Temp\ccCWOKTW.s 			page 18


 795 0058 FB7B     		ldrb	r3, [r7, #15]	@ zero_extendqisi2
 796 005a 1846     		mov	r0, r3
 797 005c FFF7FEFF 		bl	PWM_2_WriteCompare
 169:main.c        ****     return val;
 798              		.loc 1 169 0
 799 0060 FB7B     		ldrb	r3, [r7, #15]	@ zero_extendqisi2
 170:main.c        **** }
 800              		.loc 1 170 0
 801 0062 1846     		mov	r0, r3
 802 0064 1037     		adds	r7, r7, #16
 803              		.cfi_def_cfa_offset 16
 804 0066 BD46     		mov	sp, r7
 805              		.cfi_def_cfa_register 13
 806              		@ sp needed
 807 0068 B0BD     		pop	{r4, r5, r7, pc}
 808              	.L44:
 809 006a 00BF     		.align	2
 810              	.L43:
 811 006c 00005940 		.word	1079574528
 812              		.cfi_endproc
 813              	.LFE69:
 814              		.size	changeDutyCycle, .-changeDutyCycle
 815              		.section	.text.controlWheels,"ax",%progbits
 816              		.align	2
 817              		.global	controlWheels
 818              		.thumb
 819              		.thumb_func
 820              		.type	controlWheels, %function
 821              	controlWheels:
 822              	.LFB70:
 171:main.c        **** 
 172:main.c        **** void controlWheels(uint8_t wheel1Duty, uint8_t wheel2Duty){
 823              		.loc 1 172 0
 824              		.cfi_startproc
 825              		@ args = 0, pretend = 0, frame = 16
 826              		@ frame_needed = 1, uses_anonymous_args = 0
 827 0000 B0B5     		push	{r4, r5, r7, lr}
 828              		.cfi_def_cfa_offset 16
 829              		.cfi_offset 4, -16
 830              		.cfi_offset 5, -12
 831              		.cfi_offset 7, -8
 832              		.cfi_offset 14, -4
 833 0002 84B0     		sub	sp, sp, #16
 834              		.cfi_def_cfa_offset 32
 835 0004 00AF     		add	r7, sp, #0
 836              		.cfi_def_cfa_register 7
 837 0006 0346     		mov	r3, r0
 838 0008 0A46     		mov	r2, r1
 839 000a FB71     		strb	r3, [r7, #7]
 840 000c 1346     		mov	r3, r2
 841 000e BB71     		strb	r3, [r7, #6]
 173:main.c        ****     
 174:main.c        ****     //find the compare value, i.e count number of each PWM
 175:main.c        ****     uint8_t compareValue1 = ((float)PWM_1_ReadPeriod() * (wheel1Duty/100.0));
 842              		.loc 1 175 0
 843 0010 FFF7FEFF 		bl	PWM_1_ReadPeriod
 844 0014 0346     		mov	r3, r0
ARM GAS  C:\Users\sela847\AppData\Local\Temp\ccCWOKTW.s 			page 19


 845 0016 1846     		mov	r0, r3
 846 0018 FFF7FEFF 		bl	__aeabi_ui2f
 847 001c 0346     		mov	r3, r0
 848 001e 1846     		mov	r0, r3
 849 0020 FFF7FEFF 		bl	__aeabi_f2d
 850 0024 0446     		mov	r4, r0
 851 0026 0D46     		mov	r5, r1
 852 0028 FB79     		ldrb	r3, [r7, #7]	@ zero_extendqisi2
 853 002a 1846     		mov	r0, r3
 854 002c FFF7FEFF 		bl	__aeabi_i2d
 855 0030 4FF00002 		mov	r2, #0
 856 0034 1F4B     		ldr	r3, .L46
 857 0036 FFF7FEFF 		bl	__aeabi_ddiv
 858 003a 0246     		mov	r2, r0
 859 003c 0B46     		mov	r3, r1
 860 003e 2046     		mov	r0, r4
 861 0040 2946     		mov	r1, r5
 862 0042 FFF7FEFF 		bl	__aeabi_dmul
 863 0046 0346     		mov	r3, r0
 864 0048 0C46     		mov	r4, r1
 865 004a 1846     		mov	r0, r3
 866 004c 2146     		mov	r1, r4
 867 004e FFF7FEFF 		bl	__aeabi_d2uiz
 868 0052 0346     		mov	r3, r0
 869 0054 FB73     		strb	r3, [r7, #15]
 176:main.c        ****     uint8_t compareValue2 = ((float)PWM_2_ReadPeriod() * (wheel2Duty/100.0));
 870              		.loc 1 176 0
 871 0056 FFF7FEFF 		bl	PWM_2_ReadPeriod
 872 005a 0346     		mov	r3, r0
 873 005c 1846     		mov	r0, r3
 874 005e FFF7FEFF 		bl	__aeabi_ui2f
 875 0062 0346     		mov	r3, r0
 876 0064 1846     		mov	r0, r3
 877 0066 FFF7FEFF 		bl	__aeabi_f2d
 878 006a 0446     		mov	r4, r0
 879 006c 0D46     		mov	r5, r1
 880 006e BB79     		ldrb	r3, [r7, #6]	@ zero_extendqisi2
 881 0070 1846     		mov	r0, r3
 882 0072 FFF7FEFF 		bl	__aeabi_i2d
 883 0076 4FF00002 		mov	r2, #0
 884 007a 0E4B     		ldr	r3, .L46
 885 007c FFF7FEFF 		bl	__aeabi_ddiv
 886 0080 0246     		mov	r2, r0
 887 0082 0B46     		mov	r3, r1
 888 0084 2046     		mov	r0, r4
 889 0086 2946     		mov	r1, r5
 890 0088 FFF7FEFF 		bl	__aeabi_dmul
 891 008c 0346     		mov	r3, r0
 892 008e 0C46     		mov	r4, r1
 893 0090 1846     		mov	r0, r3
 894 0092 2146     		mov	r1, r4
 895 0094 FFF7FEFF 		bl	__aeabi_d2uiz
 896 0098 0346     		mov	r3, r0
 897 009a BB73     		strb	r3, [r7, #14]
 177:main.c        ****     //set the PWM to the found value
 178:main.c        ****     PWM_1_WriteCompare(compareValue1);
 898              		.loc 1 178 0
ARM GAS  C:\Users\sela847\AppData\Local\Temp\ccCWOKTW.s 			page 20


 899 009c FB7B     		ldrb	r3, [r7, #15]	@ zero_extendqisi2
 900 009e 1846     		mov	r0, r3
 901 00a0 FFF7FEFF 		bl	PWM_1_WriteCompare
 179:main.c        ****     PWM_2_WriteCompare(compareValue2);
 902              		.loc 1 179 0
 903 00a4 BB7B     		ldrb	r3, [r7, #14]	@ zero_extendqisi2
 904 00a6 1846     		mov	r0, r3
 905 00a8 FFF7FEFF 		bl	PWM_2_WriteCompare
 180:main.c        ****  
 181:main.c        **** }
 906              		.loc 1 181 0
 907 00ac 00BF     		nop
 908 00ae 1037     		adds	r7, r7, #16
 909              		.cfi_def_cfa_offset 16
 910 00b0 BD46     		mov	sp, r7
 911              		.cfi_def_cfa_register 13
 912              		@ sp needed
 913 00b2 B0BD     		pop	{r4, r5, r7, pc}
 914              	.L47:
 915              		.align	2
 916              	.L46:
 917 00b4 00005940 		.word	1079574528
 918              		.cfi_endproc
 919              	.LFE70:
 920              		.size	controlWheels, .-controlWheels
 921              		.section	.text.setupMotor,"ax",%progbits
 922              		.align	2
 923              		.global	setupMotor
 924              		.thumb
 925              		.thumb_func
 926              		.type	setupMotor, %function
 927              	setupMotor:
 928              	.LFB71:
 182:main.c        **** void setupMotor() {
 929              		.loc 1 182 0
 930              		.cfi_startproc
 931              		@ args = 0, pretend = 0, frame = 0
 932              		@ frame_needed = 1, uses_anonymous_args = 0
 933 0000 80B5     		push	{r7, lr}
 934              		.cfi_def_cfa_offset 8
 935              		.cfi_offset 7, -8
 936              		.cfi_offset 14, -4
 937 0002 00AF     		add	r7, sp, #0
 938              		.cfi_def_cfa_register 7
 183:main.c        ****     PWM_1_WritePeriod(255);
 939              		.loc 1 183 0
 940 0004 FF20     		movs	r0, #255
 941 0006 FFF7FEFF 		bl	PWM_1_WritePeriod
 184:main.c        ****     PWM_1_Start();
 942              		.loc 1 184 0
 943 000a FFF7FEFF 		bl	PWM_1_Start
 185:main.c        ****     PWM_1_WriteCompare(170);
 944              		.loc 1 185 0
 945 000e AA20     		movs	r0, #170
 946 0010 FFF7FEFF 		bl	PWM_1_WriteCompare
 186:main.c        ****     
 187:main.c        ****     PWM_2_WritePeriod(255);
ARM GAS  C:\Users\sela847\AppData\Local\Temp\ccCWOKTW.s 			page 21


 947              		.loc 1 187 0
 948 0014 FF20     		movs	r0, #255
 949 0016 FFF7FEFF 		bl	PWM_2_WritePeriod
 188:main.c        ****     PWM_2_Start();
 950              		.loc 1 188 0
 951 001a FFF7FEFF 		bl	PWM_2_Start
 189:main.c        ****     PWM_2_WriteCompare(170);
 952              		.loc 1 189 0
 953 001e AA20     		movs	r0, #170
 954 0020 FFF7FEFF 		bl	PWM_2_WriteCompare
 190:main.c        ****     
 191:main.c        ****     QuadDec_M1_Start();
 955              		.loc 1 191 0
 956 0024 FFF7FEFF 		bl	QuadDec_M1_Start
 192:main.c        ****     QuadDec_M2_Start();
 957              		.loc 1 192 0
 958 0028 FFF7FEFF 		bl	QuadDec_M2_Start
 193:main.c        ****     Quad_TImer_Start();
 959              		.loc 1 193 0
 960 002c FFF7FEFF 		bl	Quad_TImer_Start
 194:main.c        ****     
 195:main.c        ****     isr_quad_timer_StartEx(QuadDecoderIsr);
 961              		.loc 1 195 0
 962 0030 0648     		ldr	r0, .L49
 963 0032 FFF7FEFF 		bl	isr_quad_timer_StartEx
 196:main.c        ****     Quad_TImer_WritePeriod(49); // 100ms
 964              		.loc 1 196 0
 965 0036 3120     		movs	r0, #49
 966 0038 FFF7FEFF 		bl	Quad_TImer_WritePeriod
 197:main.c        ****     QuadDec_M1_SetCounter(0);
 967              		.loc 1 197 0
 968 003c 0020     		movs	r0, #0
 969 003e FFF7FEFF 		bl	QuadDec_M1_SetCounter
 198:main.c        ****     QuadDec_M2_SetCounter(0);
 970              		.loc 1 198 0
 971 0042 0020     		movs	r0, #0
 972 0044 FFF7FEFF 		bl	QuadDec_M2_SetCounter
 199:main.c        ****     
 200:main.c        **** }
 973              		.loc 1 200 0
 974 0048 00BF     		nop
 975 004a 80BD     		pop	{r7, pc}
 976              	.L50:
 977              		.align	2
 978              	.L49:
 979 004c 00000000 		.word	QuadDecoderIsr
 980              		.cfi_endproc
 981              	.LFE71:
 982              		.size	setupMotor, .-setupMotor
 983              		.section	.rodata
 984              		.align	2
 985              	.LC0:
 986 0000 0D0A204D 		.ascii	"\015\012 M1:\000"
 986      313A00
 987              		.global	__aeabi_f2iz
 988 0007 00       		.align	2
 989              	.LC1:
ARM GAS  C:\Users\sela847\AppData\Local\Temp\ccCWOKTW.s 			page 22


 990 0008 2D00     		.ascii	"-\000"
 991 000a 0000     		.align	2
 992              	.LC2:
 993 000c 0D0A00   		.ascii	"\015\012\000"
 994 000f 00       		.align	2
 995              	.LC3:
 996 0010 0D0A204D 		.ascii	"\015\012 M2:\000"
 996      323A00
 997 0017 00       		.align	2
 998              	.LC4:
 999 0018 0D0A2065 		.ascii	"\015\012 end \015\012\000"
 999      6E64200D 
 999      0A00
 1000              		.section	.text.main,"ax",%progbits
 1001              		.align	2
 1002              		.global	main
 1003              		.thumb
 1004              		.thumb_func
 1005              		.type	main, %function
 1006              	main:
 1007              	.LFB72:
 201:main.c        **** 
 202:main.c        **** 
 203:main.c        **** int main(){
 1008              		.loc 1 203 0
 1009              		.cfi_startproc
 1010              		@ args = 0, pretend = 0, frame = 80
 1011              		@ frame_needed = 1, uses_anonymous_args = 0
 1012 0000 80B5     		push	{r7, lr}
 1013              		.cfi_def_cfa_offset 8
 1014              		.cfi_offset 7, -8
 1015              		.cfi_offset 14, -4
 1016 0002 94B0     		sub	sp, sp, #80
 1017              		.cfi_def_cfa_offset 88
 1018 0004 00AF     		add	r7, sp, #0
 1019              		.cfi_def_cfa_register 7
 204:main.c        ****     M2_INV_Write(1);
 1020              		.loc 1 204 0
 1021 0006 0120     		movs	r0, #1
 1022 0008 FFF7FEFF 		bl	M2_INV_Write
 205:main.c        ****     setupMotor();
 1023              		.loc 1 205 0
 1024 000c FFF7FEFF 		bl	setupMotor
 206:main.c        ****     float m1speed = 55.0;
 1025              		.loc 1 206 0
 1026 0010 334B     		ldr	r3, .L54
 1027 0012 FB64     		str	r3, [r7, #76]	@ float
 207:main.c        ****     float m2speed = 55.0;
 1028              		.loc 1 207 0
 1029 0014 324B     		ldr	r3, .L54
 1030 0016 BB64     		str	r3, [r7, #72]	@ float
 208:main.c        ****     // Count = 
 209:main.c        ****     //uint16_t reqCount = (float) SPEED_WANTED * (float) 0.03 * (float) 114.0 * (float) CY_M_PI * (
 210:main.c        ****     
 211:main.c        ****     uint8_t duty = 100;
 1031              		.loc 1 211 0
 1032 0018 6423     		movs	r3, #100
ARM GAS  C:\Users\sela847\AppData\Local\Temp\ccCWOKTW.s 			page 23


 1033 001a 87F84730 		strb	r3, [r7, #71]
 212:main.c        ****     //changeDutyCycle(duty);
 213:main.c        ****     #ifdef USE_USB
 214:main.c        ****         USBUART_Start(0,USBUART_5V_OPERATION);
 1034              		.loc 1 214 0
 1035 001e 0121     		movs	r1, #1
 1036 0020 0020     		movs	r0, #0
 1037 0022 FFF7FEFF 		bl	USBUART_Start
 215:main.c        ****     #endif
 216:main.c        ****     //uint16_t m1counts = 0;
 217:main.c        ****     //uint16_t m2counts = 0;
 218:main.c        ****     //float speed = 0;
 219:main.c        ****     //float distance = 0;
 220:main.c        **** 
 221:main.c        ****     isr_TS_StartEx(outputUartIsr);
 1038              		.loc 1 221 0
 1039 0026 2F48     		ldr	r0, .L54+4
 1040 0028 FFF7FEFF 		bl	isr_TS_StartEx
 222:main.c        ****     Timer_TS_Start();
 1041              		.loc 1 222 0
 1042 002c FFF7FEFF 		bl	Timer_TS_Start
 223:main.c        ****     
 224:main.c        ****     
 225:main.c        **** 
 226:main.c        **** // --------------------------------    
 227:main.c        **** // ----- INITIALIZATIONS ----------
 228:main.c        ****     CYGlobalIntEnable;    
 1043              		.loc 1 228 0
 1044              		.syntax unified
 1045              	@ 228 "main.c" 1
 1046 0030 62B6     		CPSIE   i
 1047              	@ 0 "" 2
 1048              		.thumb
 1049              		.syntax unified
 1050              	.L53:
 1051              	.LBB2:
 229:main.c        ****     for(;;)
 230:main.c        ****     {
 231:main.c        ****         
 232:main.c        ****         motorControl(25.0,25.0);
 1052              		.loc 1 232 0
 1053 0032 2D49     		ldr	r1, .L54+8
 1054 0034 2C48     		ldr	r0, .L54+8
 1055 0036 FFF7FEFF 		bl	motorControl
 233:main.c        ****         char buffer [64];
 234:main.c        ****         
 235:main.c        ****         //QuadEncoder icode
 236:main.c        ****         //if (changeVal == 1){
 237:main.c        ****             //m1counts = timeArrayM1[1] - timeArrayM1[0]; // Tells us how many counts occured in 30
 238:main.c        ****             //m2counts = timeArrayM2[1] - timeArrayM2[0];
 239:main.c        ****             // Gears are 19:1, therefore 19 * 3 counts means one full rotation, we only have speed 
 240:main.c        ****             // Therefore = counts/19 of a wheel rotation: counts/57 * 2pi * r = circumference moved
 241:main.c        ****             //distance = (float)m1counts/(float)((float)(57.0 * 2.0) *(float)((float) CY_M_PI * 3.5
 242:main.c        ****             //speed =  (float)distance / (float) 0.03;
 243:main.c        ****             //if (speed > SPEED_WANTED) { // If we are currently going faster than needed, reduce t
 244:main.c        ****                 
 245:main.c        ****                 
ARM GAS  C:\Users\sela847\AppData\Local\Temp\ccCWOKTW.s 			page 24


 246:main.c        ****                 // INSTEAD OF DOING BY DUTY CYCLE WE COULD TRY ADD THE ERROR TO THE COMPARE VALUE I
 247:main.c        ****                 //uint16_t error = speed - SPEED_WANTED; // (m/s to count = error * 0.03 * 114.0 * 
 248:main.c        ****                 //uint16_t errorCount = error * 0.03 * 114.0 * CY_M_PI * 3.5;
 249:main.c        ****                
 250:main.c        ****                 //PWM_1_WriteCompare(PWM_1_ReadCompare() -e rrorCount);
 251:main.c        ****                 //PWM_2_WriteCompare(PWM_1_ReadCompare() -errorCount);
 252:main.c        ****                 //if (error > 10) {
 253:main.c        ****                    //duty = duty - 10;
 254:main.c        ****                     
 255:main.c        ****                 //} else {
 256:main.c        ****                    //duty = duty - 5;   
 257:main.c        ****                 //}
 258:main.c        ****                 //if (duty <= 50) {
 259:main.c        ****                     //duty = 55;
 260:main.c        ****                 //}
 261:main.c        ****                 //changeDutyCycle(duty);
 262:main.c        **** 
 263:main.c        ****                 
 264:main.c        ****             //} else if (speed < SPEED_WANTED) {
 265:main.c        ****                 //uint16_t error = SPEED_WANTED - speed;
 266:main.c        ****                 //uint16_t errorCount = error * 0.03 * 114.0 * CY_M_PI * 3.5;
 267:main.c        ****                 //PWM_1_WriteCompare(PWM_1_ReadCompare() +errorCount);
 268:main.c        ****                 //PWM_2_WriteCompare(PWM_1_ReadCompare() +errorCount);
 269:main.c        ****                 //if (error > 10) {
 270:main.c        ****                     //duty = duty + 10;
 271:main.c        ****                     
 272:main.c        ****                 //} else {
 273:main.c        ****                    //duty = duty + 5;   
 274:main.c        ****                 //}
 275:main.c        ****                 //if (duty >= 100) {
 276:main.c        ****                         //duty = 95;
 277:main.c        ****                 //}
 278:main.c        ****                 //changeDutyCycle(duty);
 279:main.c        ****             //}
 280:main.c        ****             
 281:main.c        ****             
 282:main.c        ****             
 283:main.c        ****             //changeVal = 0; 
 284:main.c        ****             
 285:main.c        ****         //}
 286:main.c        ****         
 287:main.c        ****         if (printSpeed == 1) {
 1056              		.loc 1 287 0
 1057 003a 2C4B     		ldr	r3, .L54+12
 1058 003c 1B78     		ldrb	r3, [r3]	@ zero_extendqisi2
 1059 003e 012B     		cmp	r3, #1
 1060 0040 F7D1     		bne	.L53
 288:main.c        ****             usbPutString("\r\n M1:");
 1061              		.loc 1 288 0
 1062 0042 2B48     		ldr	r0, .L54+16
 1063 0044 FFF7FEFF 		bl	usbPutString
 289:main.c        ****             //itoa((float) m1motorSpeed, buffer, 10);
 290:main.c        ****             itoa((float) m1Comp, buffer, 10);
 1064              		.loc 1 290 0
 1065 0048 2A4B     		ldr	r3, .L54+20
 1066 004a 1B68     		ldr	r3, [r3]	@ float
 1067 004c 1846     		mov	r0, r3
ARM GAS  C:\Users\sela847\AppData\Local\Temp\ccCWOKTW.s 			page 25


 1068 004e FFF7FEFF 		bl	__aeabi_f2iz
 1069 0052 3B1D     		adds	r3, r7, #4
 1070 0054 0A22     		movs	r2, #10
 1071 0056 1946     		mov	r1, r3
 1072 0058 FFF7FEFF 		bl	itoa
 291:main.c        ****             usbPutString(buffer);
 1073              		.loc 1 291 0
 1074 005c 3B1D     		adds	r3, r7, #4
 1075 005e 1846     		mov	r0, r3
 1076 0060 FFF7FEFF 		bl	usbPutString
 292:main.c        ****             usbPutString("-");
 1077              		.loc 1 292 0
 1078 0064 2448     		ldr	r0, .L54+24
 1079 0066 FFF7FEFF 		bl	usbPutString
 293:main.c        ****             itoa((float) m1motorSpeed, buffer, 10);
 1080              		.loc 1 293 0
 1081 006a 244B     		ldr	r3, .L54+28
 1082 006c 1B68     		ldr	r3, [r3]	@ float
 1083 006e 1846     		mov	r0, r3
 1084 0070 FFF7FEFF 		bl	__aeabi_f2iz
 1085 0074 3B1D     		adds	r3, r7, #4
 1086 0076 0A22     		movs	r2, #10
 1087 0078 1946     		mov	r1, r3
 1088 007a FFF7FEFF 		bl	itoa
 294:main.c        ****             //itoa((float) speedL, buffer, 10);
 295:main.c        ****             usbPutString(buffer);
 1089              		.loc 1 295 0
 1090 007e 3B1D     		adds	r3, r7, #4
 1091 0080 1846     		mov	r0, r3
 1092 0082 FFF7FEFF 		bl	usbPutString
 296:main.c        ****             usbPutString("\r\n");
 1093              		.loc 1 296 0
 1094 0086 1E48     		ldr	r0, .L54+32
 1095 0088 FFF7FEFF 		bl	usbPutString
 297:main.c        ****             usbPutString("\r\n M2:");
 1096              		.loc 1 297 0
 1097 008c 1D48     		ldr	r0, .L54+36
 1098 008e FFF7FEFF 		bl	usbPutString
 298:main.c        ****             //itoa((float) m2motorSpeed, buffer, 10);
 299:main.c        ****             itoa((float) m2Comp, buffer, 10);
 1099              		.loc 1 299 0
 1100 0092 1D4B     		ldr	r3, .L54+40
 1101 0094 1B68     		ldr	r3, [r3]	@ float
 1102 0096 1846     		mov	r0, r3
 1103 0098 FFF7FEFF 		bl	__aeabi_f2iz
 1104 009c 3B1D     		adds	r3, r7, #4
 1105 009e 0A22     		movs	r2, #10
 1106 00a0 1946     		mov	r1, r3
 1107 00a2 FFF7FEFF 		bl	itoa
 300:main.c        ****             //itoa((float) speedR, buffer, 10);
 301:main.c        ****             usbPutString(buffer);
 1108              		.loc 1 301 0
 1109 00a6 3B1D     		adds	r3, r7, #4
 1110 00a8 1846     		mov	r0, r3
 1111 00aa FFF7FEFF 		bl	usbPutString
 302:main.c        ****             usbPutString("-");
 1112              		.loc 1 302 0
ARM GAS  C:\Users\sela847\AppData\Local\Temp\ccCWOKTW.s 			page 26


 1113 00ae 1248     		ldr	r0, .L54+24
 1114 00b0 FFF7FEFF 		bl	usbPutString
 303:main.c        ****             itoa((float) m2motorSpeed, buffer, 10);
 1115              		.loc 1 303 0
 1116 00b4 154B     		ldr	r3, .L54+44
 1117 00b6 1B68     		ldr	r3, [r3]	@ float
 1118 00b8 1846     		mov	r0, r3
 1119 00ba FFF7FEFF 		bl	__aeabi_f2iz
 1120 00be 3B1D     		adds	r3, r7, #4
 1121 00c0 0A22     		movs	r2, #10
 1122 00c2 1946     		mov	r1, r3
 1123 00c4 FFF7FEFF 		bl	itoa
 304:main.c        ****             usbPutString(buffer);
 1124              		.loc 1 304 0
 1125 00c8 3B1D     		adds	r3, r7, #4
 1126 00ca 1846     		mov	r0, r3
 1127 00cc FFF7FEFF 		bl	usbPutString
 305:main.c        ****             usbPutString("\r\n end \r\n");
 1128              		.loc 1 305 0
 1129 00d0 0F48     		ldr	r0, .L54+48
 1130 00d2 FFF7FEFF 		bl	usbPutString
 306:main.c        ****             printSpeed = 0;
 1131              		.loc 1 306 0
 1132 00d6 054B     		ldr	r3, .L54+12
 1133 00d8 0022     		movs	r2, #0
 1134 00da 1A70     		strb	r2, [r3]
 1135              	.LBE2:
 307:main.c        ****         } 
 308:main.c        **** 
 309:main.c        ****     }
 1136              		.loc 1 309 0
 1137 00dc A9E7     		b	.L53
 1138              	.L55:
 1139 00de 00BF     		.align	2
 1140              	.L54:
 1141 00e0 00005C42 		.word	1113325568
 1142 00e4 00000000 		.word	outputUartIsr
 1143 00e8 0000C841 		.word	1103626240
 1144 00ec 00000000 		.word	printSpeed
 1145 00f0 00000000 		.word	.LC0
 1146 00f4 00000000 		.word	m1Comp
 1147 00f8 08000000 		.word	.LC1
 1148 00fc 00000000 		.word	m1motorSpeed
 1149 0100 0C000000 		.word	.LC2
 1150 0104 10000000 		.word	.LC3
 1151 0108 00000000 		.word	m2Comp
 1152 010c 00000000 		.word	m2motorSpeed
 1153 0110 18000000 		.word	.LC4
 1154              		.cfi_endproc
 1155              	.LFE72:
 1156              		.size	main, .-main
 1157              		.section	.text.usbPutString,"ax",%progbits
 1158              		.align	2
 1159              		.global	usbPutString
 1160              		.thumb
 1161              		.thumb_func
 1162              		.type	usbPutString, %function
ARM GAS  C:\Users\sela847\AppData\Local\Temp\ccCWOKTW.s 			page 27


 1163              	usbPutString:
 1164              	.LFB73:
 310:main.c        ****     
 311:main.c        **** }//End main
 312:main.c        **** 
 313:main.c        **** 
 314:main.c        **** 
 315:main.c        **** //* ========================================
 316:main.c        **** void usbPutString(char *s)
 317:main.c        **** {
 1165              		.loc 1 317 0
 1166              		.cfi_startproc
 1167              		@ args = 0, pretend = 0, frame = 8
 1168              		@ frame_needed = 1, uses_anonymous_args = 0
 1169 0000 80B5     		push	{r7, lr}
 1170              		.cfi_def_cfa_offset 8
 1171              		.cfi_offset 7, -8
 1172              		.cfi_offset 14, -4
 1173 0002 82B0     		sub	sp, sp, #8
 1174              		.cfi_def_cfa_offset 16
 1175 0004 00AF     		add	r7, sp, #0
 1176              		.cfi_def_cfa_register 7
 1177 0006 7860     		str	r0, [r7, #4]
 318:main.c        **** // !! Assumes that *s is a string with allocated space >=64 chars     
 319:main.c        **** //  Since USB implementation retricts data packets to 64 chars, this function truncates the
 320:main.c        **** //  length to 62 char (63rd char is a '!')
 321:main.c        **** 
 322:main.c        **** #ifdef USE_USB     
 323:main.c        ****     while (USBUART_CDCIsReady() == 0);
 1178              		.loc 1 323 0
 1179 0008 00BF     		nop
 1180              	.L57:
 1181              		.loc 1 323 0 is_stmt 0 discriminator 1
 1182 000a FFF7FEFF 		bl	USBUART_CDCIsReady
 1183 000e 0346     		mov	r3, r0
 1184 0010 002B     		cmp	r3, #0
 1185 0012 FAD0     		beq	.L57
 324:main.c        ****     s[63]='\0';
 1186              		.loc 1 324 0 is_stmt 1
 1187 0014 7B68     		ldr	r3, [r7, #4]
 1188 0016 3F33     		adds	r3, r3, #63
 1189 0018 0022     		movs	r2, #0
 1190 001a 1A70     		strb	r2, [r3]
 325:main.c        ****     s[62]='!';
 1191              		.loc 1 325 0
 1192 001c 7B68     		ldr	r3, [r7, #4]
 1193 001e 3E33     		adds	r3, r3, #62
 1194 0020 2122     		movs	r2, #33
 1195 0022 1A70     		strb	r2, [r3]
 326:main.c        ****     USBUART_PutData((uint8*)s,strlen(s));
 1196              		.loc 1 326 0
 1197 0024 7868     		ldr	r0, [r7, #4]
 1198 0026 FFF7FEFF 		bl	strlen
 1199 002a 0346     		mov	r3, r0
 1200 002c 9BB2     		uxth	r3, r3
 1201 002e 1946     		mov	r1, r3
 1202 0030 7868     		ldr	r0, [r7, #4]
ARM GAS  C:\Users\sela847\AppData\Local\Temp\ccCWOKTW.s 			page 28


 1203 0032 FFF7FEFF 		bl	USBUART_PutData
 327:main.c        **** #endif
 328:main.c        **** }
 1204              		.loc 1 328 0
 1205 0036 00BF     		nop
 1206 0038 0837     		adds	r7, r7, #8
 1207              		.cfi_def_cfa_offset 8
 1208 003a BD46     		mov	sp, r7
 1209              		.cfi_def_cfa_register 13
 1210              		@ sp needed
 1211 003c 80BD     		pop	{r7, pc}
 1212              		.cfi_endproc
 1213              	.LFE73:
 1214              		.size	usbPutString, .-usbPutString
 1215 003e 00BF     		.section	.text.usbPutChar,"ax",%progbits
 1216              		.align	2
 1217              		.global	usbPutChar
 1218              		.thumb
 1219              		.thumb_func
 1220              		.type	usbPutChar, %function
 1221              	usbPutChar:
 1222              	.LFB74:
 329:main.c        **** //* ========================================
 330:main.c        **** void usbPutChar(char c)
 331:main.c        **** {
 1223              		.loc 1 331 0
 1224              		.cfi_startproc
 1225              		@ args = 0, pretend = 0, frame = 8
 1226              		@ frame_needed = 1, uses_anonymous_args = 0
 1227 0000 80B5     		push	{r7, lr}
 1228              		.cfi_def_cfa_offset 8
 1229              		.cfi_offset 7, -8
 1230              		.cfi_offset 14, -4
 1231 0002 82B0     		sub	sp, sp, #8
 1232              		.cfi_def_cfa_offset 16
 1233 0004 00AF     		add	r7, sp, #0
 1234              		.cfi_def_cfa_register 7
 1235 0006 0346     		mov	r3, r0
 1236 0008 FB71     		strb	r3, [r7, #7]
 332:main.c        **** #ifdef USE_USB     
 333:main.c        ****     while (USBUART_CDCIsReady() == 0);
 1237              		.loc 1 333 0
 1238 000a 00BF     		nop
 1239              	.L59:
 1240              		.loc 1 333 0 is_stmt 0 discriminator 1
 1241 000c FFF7FEFF 		bl	USBUART_CDCIsReady
 1242 0010 0346     		mov	r3, r0
 1243 0012 002B     		cmp	r3, #0
 1244 0014 FAD0     		beq	.L59
 334:main.c        ****     USBUART_PutChar(c);
 1245              		.loc 1 334 0 is_stmt 1
 1246 0016 FB79     		ldrb	r3, [r7, #7]	@ zero_extendqisi2
 1247 0018 1846     		mov	r0, r3
 1248 001a FFF7FEFF 		bl	USBUART_PutChar
 335:main.c        **** #endif    
 336:main.c        **** }
 1249              		.loc 1 336 0
ARM GAS  C:\Users\sela847\AppData\Local\Temp\ccCWOKTW.s 			page 29


 1250 001e 00BF     		nop
 1251 0020 0837     		adds	r7, r7, #8
 1252              		.cfi_def_cfa_offset 8
 1253 0022 BD46     		mov	sp, r7
 1254              		.cfi_def_cfa_register 13
 1255              		@ sp needed
 1256 0024 80BD     		pop	{r7, pc}
 1257              		.cfi_endproc
 1258              	.LFE74:
 1259              		.size	usbPutChar, .-usbPutChar
 1260 0026 00BF     		.text
 1261              	.Letext0:
 1262              		.file 2 "c:\\program files (x86)\\cypress\\psoc creator\\4.2\\psoc creator\\import\\gnu\\arm\\5.4.
 1263              		.file 3 "c:\\program files (x86)\\cypress\\psoc creator\\4.2\\psoc creator\\import\\gnu\\arm\\5.4.
 1264              		.file 4 "Generated_Source\\PSoC5/cytypes.h"
 1265              		.file 5 "vars.h"
 1266              		.file 6 "Generated_Source\\PSoC5/core_cm3.h"
 1267              		.section	.debug_info,"",%progbits
 1268              	.Ldebug_info0:
 1269 0000 B6060000 		.4byte	0x6b6
 1270 0004 0400     		.2byte	0x4
 1271 0006 00000000 		.4byte	.Ldebug_abbrev0
 1272 000a 04       		.byte	0x4
 1273 000b 01       		.uleb128 0x1
 1274 000c 88000000 		.4byte	.LASF100
 1275 0010 0C       		.byte	0xc
 1276 0011 8B030000 		.4byte	.LASF101
 1277 0015 BC040000 		.4byte	.LASF102
 1278 0019 00000000 		.4byte	.Ldebug_ranges0+0
 1279 001d 00000000 		.4byte	0
 1280 0021 00000000 		.4byte	.Ldebug_line0
 1281 0025 02       		.uleb128 0x2
 1282 0026 01       		.byte	0x1
 1283 0027 06       		.byte	0x6
 1284 0028 82010000 		.4byte	.LASF0
 1285 002c 03       		.uleb128 0x3
 1286 002d F9010000 		.4byte	.LASF3
 1287 0031 02       		.byte	0x2
 1288 0032 1D       		.byte	0x1d
 1289 0033 37000000 		.4byte	0x37
 1290 0037 02       		.uleb128 0x2
 1291 0038 01       		.byte	0x1
 1292 0039 08       		.byte	0x8
 1293 003a 3F020000 		.4byte	.LASF1
 1294 003e 02       		.uleb128 0x2
 1295 003f 02       		.byte	0x2
 1296 0040 05       		.byte	0x5
 1297 0041 51000000 		.4byte	.LASF2
 1298 0045 03       		.uleb128 0x3
 1299 0046 16010000 		.4byte	.LASF4
 1300 004a 02       		.byte	0x2
 1301 004b 2B       		.byte	0x2b
 1302 004c 50000000 		.4byte	0x50
 1303 0050 02       		.uleb128 0x2
 1304 0051 02       		.byte	0x2
 1305 0052 07       		.byte	0x7
 1306 0053 03030000 		.4byte	.LASF5
ARM GAS  C:\Users\sela847\AppData\Local\Temp\ccCWOKTW.s 			page 30


 1307 0057 03       		.uleb128 0x3
 1308 0058 0D040000 		.4byte	.LASF6
 1309 005c 02       		.byte	0x2
 1310 005d 3F       		.byte	0x3f
 1311 005e 62000000 		.4byte	0x62
 1312 0062 02       		.uleb128 0x2
 1313 0063 04       		.byte	0x4
 1314 0064 05       		.byte	0x5
 1315 0065 85040000 		.4byte	.LASF7
 1316 0069 02       		.uleb128 0x2
 1317 006a 04       		.byte	0x4
 1318 006b 07       		.byte	0x7
 1319 006c 92030000 		.4byte	.LASF8
 1320 0070 02       		.uleb128 0x2
 1321 0071 08       		.byte	0x8
 1322 0072 05       		.byte	0x5
 1323 0073 9B010000 		.4byte	.LASF9
 1324 0077 02       		.uleb128 0x2
 1325 0078 08       		.byte	0x8
 1326 0079 07       		.byte	0x7
 1327 007a 8A020000 		.4byte	.LASF10
 1328 007e 04       		.uleb128 0x4
 1329 007f 04       		.byte	0x4
 1330 0080 05       		.byte	0x5
 1331 0081 696E7400 		.ascii	"int\000"
 1332 0085 02       		.uleb128 0x2
 1333 0086 04       		.byte	0x4
 1334 0087 07       		.byte	0x7
 1335 0088 A1020000 		.4byte	.LASF11
 1336 008c 02       		.uleb128 0x2
 1337 008d 08       		.byte	0x8
 1338 008e 04       		.byte	0x4
 1339 008f 2B020000 		.4byte	.LASF12
 1340 0093 02       		.uleb128 0x2
 1341 0094 04       		.byte	0x4
 1342 0095 07       		.byte	0x7
 1343 0096 68000000 		.4byte	.LASF13
 1344 009a 05       		.uleb128 0x5
 1345 009b 04       		.byte	0x4
 1346 009c A0000000 		.4byte	0xa0
 1347 00a0 02       		.uleb128 0x2
 1348 00a1 01       		.byte	0x1
 1349 00a2 08       		.byte	0x8
 1350 00a3 26030000 		.4byte	.LASF14
 1351 00a7 03       		.uleb128 0x3
 1352 00a8 1E040000 		.4byte	.LASF15
 1353 00ac 03       		.byte	0x3
 1354 00ad 18       		.byte	0x18
 1355 00ae 2C000000 		.4byte	0x2c
 1356 00b2 03       		.uleb128 0x3
 1357 00b3 B9020000 		.4byte	.LASF16
 1358 00b7 03       		.byte	0x3
 1359 00b8 24       		.byte	0x24
 1360 00b9 45000000 		.4byte	0x45
 1361 00bd 03       		.uleb128 0x3
 1362 00be 82020000 		.4byte	.LASF17
 1363 00c2 03       		.byte	0x3
ARM GAS  C:\Users\sela847\AppData\Local\Temp\ccCWOKTW.s 			page 31


 1364 00c3 2C       		.byte	0x2c
 1365 00c4 57000000 		.4byte	0x57
 1366 00c8 06       		.uleb128 0x6
 1367 00c9 63010000 		.4byte	.LASF18
 1368 00cd 04       		.byte	0x4
 1369 00ce E701     		.2byte	0x1e7
 1370 00d0 37000000 		.4byte	0x37
 1371 00d4 06       		.uleb128 0x6
 1372 00d5 46010000 		.4byte	.LASF19
 1373 00d9 04       		.byte	0x4
 1374 00da E801     		.2byte	0x1e8
 1375 00dc 50000000 		.4byte	0x50
 1376 00e0 06       		.uleb128 0x6
 1377 00e1 B8010000 		.4byte	.LASF20
 1378 00e5 04       		.byte	0x4
 1379 00e6 EA01     		.2byte	0x1ea
 1380 00e8 25000000 		.4byte	0x25
 1381 00ec 06       		.uleb128 0x6
 1382 00ed 5D010000 		.4byte	.LASF21
 1383 00f1 04       		.byte	0x4
 1384 00f2 EB01     		.2byte	0x1eb
 1385 00f4 3E000000 		.4byte	0x3e
 1386 00f8 02       		.uleb128 0x2
 1387 00f9 04       		.byte	0x4
 1388 00fa 04       		.byte	0x4
 1389 00fb 8E010000 		.4byte	.LASF22
 1390 00ff 02       		.uleb128 0x2
 1391 0100 08       		.byte	0x8
 1392 0101 04       		.byte	0x4
 1393 0102 AD030000 		.4byte	.LASF23
 1394 0106 07       		.uleb128 0x7
 1395 0107 A7000000 		.4byte	0xa7
 1396 010b 08       		.uleb128 0x8
 1397 010c 53010000 		.4byte	.LASF103
 1398 0110 20       		.byte	0x20
 1399 0111 05       		.byte	0x5
 1400 0112 29       		.byte	0x29
 1401 0113 E4010000 		.4byte	0x1e4
 1402 0117 09       		.uleb128 0x9
 1403 0118 A5040000 		.4byte	.LASF24
 1404 011c 05       		.byte	0x5
 1405 011d 2A       		.byte	0x2a
 1406 011e E0000000 		.4byte	0xe0
 1407 0122 00       		.byte	0
 1408 0123 09       		.uleb128 0x9
 1409 0124 4D010000 		.4byte	.LASF25
 1410 0128 05       		.byte	0x5
 1411 0129 2B       		.byte	0x2b
 1412 012a C8000000 		.4byte	0xc8
 1413 012e 01       		.byte	0x1
 1414 012f 09       		.uleb128 0x9
 1415 0130 79030000 		.4byte	.LASF26
 1416 0134 05       		.byte	0x5
 1417 0135 2C       		.byte	0x2c
 1418 0136 EC000000 		.4byte	0xec
 1419 013a 02       		.byte	0x2
 1420 013b 09       		.uleb128 0x9
ARM GAS  C:\Users\sela847\AppData\Local\Temp\ccCWOKTW.s 			page 32


 1421 013c 7A040000 		.4byte	.LASF27
 1422 0140 05       		.byte	0x5
 1423 0141 2D       		.byte	0x2d
 1424 0142 EC000000 		.4byte	0xec
 1425 0146 04       		.byte	0x4
 1426 0147 09       		.uleb128 0x9
 1427 0148 AA040000 		.4byte	.LASF28
 1428 014c 05       		.byte	0x5
 1429 014d 2E       		.byte	0x2e
 1430 014e EC000000 		.4byte	0xec
 1431 0152 06       		.byte	0x6
 1432 0153 09       		.uleb128 0x9
 1433 0154 DC010000 		.4byte	.LASF29
 1434 0158 05       		.byte	0x5
 1435 0159 2F       		.byte	0x2f
 1436 015a EC000000 		.4byte	0xec
 1437 015e 08       		.byte	0x8
 1438 015f 09       		.uleb128 0x9
 1439 0160 2B040000 		.4byte	.LASF30
 1440 0164 05       		.byte	0x5
 1441 0165 30       		.byte	0x30
 1442 0166 EC000000 		.4byte	0xec
 1443 016a 0A       		.byte	0xa
 1444 016b 09       		.uleb128 0x9
 1445 016c 52020000 		.4byte	.LASF31
 1446 0170 05       		.byte	0x5
 1447 0171 31       		.byte	0x31
 1448 0172 EC000000 		.4byte	0xec
 1449 0176 0C       		.byte	0xc
 1450 0177 09       		.uleb128 0x9
 1451 0178 E4010000 		.4byte	.LASF32
 1452 017c 05       		.byte	0x5
 1453 017d 32       		.byte	0x32
 1454 017e EC000000 		.4byte	0xec
 1455 0182 0E       		.byte	0xe
 1456 0183 09       		.uleb128 0x9
 1457 0184 6A020000 		.4byte	.LASF33
 1458 0188 05       		.byte	0x5
 1459 0189 33       		.byte	0x33
 1460 018a EC000000 		.4byte	0xec
 1461 018e 10       		.byte	0x10
 1462 018f 09       		.uleb128 0x9
 1463 0190 4D030000 		.4byte	.LASF34
 1464 0194 05       		.byte	0x5
 1465 0195 34       		.byte	0x34
 1466 0196 EC000000 		.4byte	0xec
 1467 019a 12       		.byte	0x12
 1468 019b 09       		.uleb128 0x9
 1469 019c 62030000 		.4byte	.LASF35
 1470 01a0 05       		.byte	0x5
 1471 01a1 35       		.byte	0x35
 1472 01a2 EC000000 		.4byte	0xec
 1473 01a6 14       		.byte	0x14
 1474 01a7 09       		.uleb128 0x9
 1475 01a8 69010000 		.4byte	.LASF36
 1476 01ac 05       		.byte	0x5
 1477 01ad 36       		.byte	0x36
ARM GAS  C:\Users\sela847\AppData\Local\Temp\ccCWOKTW.s 			page 33


 1478 01ae EC000000 		.4byte	0xec
 1479 01b2 16       		.byte	0x16
 1480 01b3 09       		.uleb128 0x9
 1481 01b4 49000000 		.4byte	.LASF37
 1482 01b8 05       		.byte	0x5
 1483 01b9 37       		.byte	0x37
 1484 01ba EC000000 		.4byte	0xec
 1485 01be 18       		.byte	0x18
 1486 01bf 09       		.uleb128 0x9
 1487 01c0 CC010000 		.4byte	.LASF38
 1488 01c4 05       		.byte	0x5
 1489 01c5 38       		.byte	0x38
 1490 01c6 EC000000 		.4byte	0xec
 1491 01ca 1A       		.byte	0x1a
 1492 01cb 09       		.uleb128 0x9
 1493 01cc D3020000 		.4byte	.LASF39
 1494 01d0 05       		.byte	0x5
 1495 01d1 39       		.byte	0x39
 1496 01d2 EC000000 		.4byte	0xec
 1497 01d6 1C       		.byte	0x1c
 1498 01d7 09       		.uleb128 0x9
 1499 01d8 55030000 		.4byte	.LASF40
 1500 01dc 05       		.byte	0x5
 1501 01dd 3A       		.byte	0x3a
 1502 01de EC000000 		.4byte	0xec
 1503 01e2 1E       		.byte	0x1e
 1504 01e3 00       		.byte	0
 1505 01e4 0A       		.uleb128 0xa
 1506 01e5 0B000000 		.4byte	.LASF51
 1507 01e9 01       		.byte	0x1
 1508 01ea 31       		.byte	0x31
 1509 01eb 00000000 		.4byte	.LFB64
 1510 01ef D0000000 		.4byte	.LFE64-.LFB64
 1511 01f3 01       		.uleb128 0x1
 1512 01f4 9C       		.byte	0x9c
 1513 01f5 30020000 		.4byte	0x230
 1514 01f9 0B       		.uleb128 0xb
 1515 01fa 706C00   		.ascii	"pl\000"
 1516 01fd 01       		.byte	0x1
 1517 01fe 33       		.byte	0x33
 1518 01ff EC000000 		.4byte	0xec
 1519 0203 02       		.uleb128 0x2
 1520 0204 91       		.byte	0x91
 1521 0205 74       		.sleb128 -12
 1522 0206 0B       		.uleb128 0xb
 1523 0207 707200   		.ascii	"pr\000"
 1524 020a 01       		.byte	0x1
 1525 020b 33       		.byte	0x33
 1526 020c EC000000 		.4byte	0xec
 1527 0210 02       		.uleb128 0x2
 1528 0211 91       		.byte	0x91
 1529 0212 72       		.sleb128 -14
 1530 0213 0C       		.uleb128 0xc
 1531 0214 35000000 		.4byte	.LASF41
 1532 0218 01       		.byte	0x1
 1533 0219 40       		.byte	0x40
 1534 021a A7000000 		.4byte	0xa7
ARM GAS  C:\Users\sela847\AppData\Local\Temp\ccCWOKTW.s 			page 34


 1535 021e 02       		.uleb128 0x2
 1536 021f 91       		.byte	0x91
 1537 0220 71       		.sleb128 -15
 1538 0221 0C       		.uleb128 0xc
 1539 0222 CD020000 		.4byte	.LASF42
 1540 0226 01       		.byte	0x1
 1541 0227 41       		.byte	0x41
 1542 0228 A7000000 		.4byte	0xa7
 1543 022c 02       		.uleb128 0x2
 1544 022d 91       		.byte	0x91
 1545 022e 77       		.sleb128 -9
 1546 022f 00       		.byte	0
 1547 0230 0D       		.uleb128 0xd
 1548 0231 2B030000 		.4byte	.LASF54
 1549 0235 01       		.byte	0x1
 1550 0236 55       		.byte	0x55
 1551 0237 00000000 		.4byte	.LFB65
 1552 023b 20020000 		.4byte	.LFE65-.LFB65
 1553 023f 01       		.uleb128 0x1
 1554 0240 9C       		.byte	0x9c
 1555 0241 9A020000 		.4byte	0x29a
 1556 0245 0E       		.uleb128 0xe
 1557 0246 F1010000 		.4byte	.LASF43
 1558 024a 01       		.byte	0x1
 1559 024b 55       		.byte	0x55
 1560 024c F8000000 		.4byte	0xf8
 1561 0250 02       		.uleb128 0x2
 1562 0251 91       		.byte	0x91
 1563 0252 5C       		.sleb128 -36
 1564 0253 0E       		.uleb128 0xe
 1565 0254 37020000 		.4byte	.LASF44
 1566 0258 01       		.byte	0x1
 1567 0259 55       		.byte	0x55
 1568 025a F8000000 		.4byte	0xf8
 1569 025e 02       		.uleb128 0x2
 1570 025f 91       		.byte	0x91
 1571 0260 58       		.sleb128 -40
 1572 0261 0C       		.uleb128 0xc
 1573 0262 21010000 		.4byte	.LASF45
 1574 0266 01       		.byte	0x1
 1575 0267 65       		.byte	0x65
 1576 0268 F8000000 		.4byte	0xf8
 1577 026c 02       		.uleb128 0x2
 1578 026d 91       		.byte	0x91
 1579 026e 6C       		.sleb128 -20
 1580 026f 0C       		.uleb128 0xc
 1581 0270 45030000 		.4byte	.LASF46
 1582 0274 01       		.byte	0x1
 1583 0275 66       		.byte	0x66
 1584 0276 F8000000 		.4byte	0xf8
 1585 027a 02       		.uleb128 0x2
 1586 027b 91       		.byte	0x91
 1587 027c 68       		.sleb128 -24
 1588 027d 0C       		.uleb128 0xc
 1589 027e 3D010000 		.4byte	.LASF47
 1590 0282 01       		.byte	0x1
 1591 0283 6C       		.byte	0x6c
ARM GAS  C:\Users\sela847\AppData\Local\Temp\ccCWOKTW.s 			page 35


 1592 0284 F8000000 		.4byte	0xf8
 1593 0288 02       		.uleb128 0x2
 1594 0289 91       		.byte	0x91
 1595 028a 64       		.sleb128 -28
 1596 028b 0C       		.uleb128 0xc
 1597 028c A4030000 		.4byte	.LASF48
 1598 0290 01       		.byte	0x1
 1599 0291 6D       		.byte	0x6d
 1600 0292 F8000000 		.4byte	0xf8
 1601 0296 02       		.uleb128 0x2
 1602 0297 91       		.byte	0x91
 1603 0298 60       		.sleb128 -32
 1604 0299 00       		.byte	0
 1605 029a 0F       		.uleb128 0xf
 1606 029b BE030000 		.4byte	.LASF49
 1607 029f 01       		.byte	0x1
 1608 02a0 87       		.byte	0x87
 1609 02a1 00000000 		.4byte	.LFB66
 1610 02a5 20000000 		.4byte	.LFE66-.LFB66
 1611 02a9 01       		.uleb128 0x1
 1612 02aa 9C       		.byte	0x9c
 1613 02ab 0F       		.uleb128 0xf
 1614 02ac A9010000 		.4byte	.LASF50
 1615 02b0 01       		.byte	0x1
 1616 02b1 8D       		.byte	0x8d
 1617 02b2 00000000 		.4byte	.LFB67
 1618 02b6 44000000 		.4byte	.LFE67-.LFB67
 1619 02ba 01       		.uleb128 0x1
 1620 02bb 9C       		.byte	0x9c
 1621 02bc 0A       		.uleb128 0xa
 1622 02bd 76000000 		.4byte	.LASF52
 1623 02c1 01       		.byte	0x1
 1624 02c2 97       		.byte	0x97
 1625 02c3 00000000 		.4byte	.LFB68
 1626 02c7 34000000 		.4byte	.LFE68-.LFB68
 1627 02cb 01       		.uleb128 0x1
 1628 02cc 9C       		.byte	0x9c
 1629 02cd EC020000 		.4byte	0x2ec
 1630 02d1 0B       		.uleb128 0xb
 1631 02d2 706C00   		.ascii	"pl\000"
 1632 02d5 01       		.byte	0x1
 1633 02d6 99       		.byte	0x99
 1634 02d7 7E000000 		.4byte	0x7e
 1635 02db 02       		.uleb128 0x2
 1636 02dc 91       		.byte	0x91
 1637 02dd 74       		.sleb128 -12
 1638 02de 0B       		.uleb128 0xb
 1639 02df 707200   		.ascii	"pr\000"
 1640 02e2 01       		.byte	0x1
 1641 02e3 99       		.byte	0x99
 1642 02e4 7E000000 		.4byte	0x7e
 1643 02e8 02       		.uleb128 0x2
 1644 02e9 91       		.byte	0x91
 1645 02ea 70       		.sleb128 -16
 1646 02eb 00       		.byte	0
 1647 02ec 10       		.uleb128 0x10
 1648 02ed 72020000 		.4byte	.LASF104
ARM GAS  C:\Users\sela847\AppData\Local\Temp\ccCWOKTW.s 			page 36


 1649 02f1 01       		.byte	0x1
 1650 02f2 A4       		.byte	0xa4
 1651 02f3 A7000000 		.4byte	0xa7
 1652 02f7 00000000 		.4byte	.LFB69
 1653 02fb 70000000 		.4byte	.LFE69-.LFB69
 1654 02ff 01       		.uleb128 0x1
 1655 0300 9C       		.byte	0x9c
 1656 0301 22030000 		.4byte	0x322
 1657 0305 0E       		.uleb128 0xe
 1658 0306 9B040000 		.4byte	.LASF53
 1659 030a 01       		.byte	0x1
 1660 030b A4       		.byte	0xa4
 1661 030c A7000000 		.4byte	0xa7
 1662 0310 02       		.uleb128 0x2
 1663 0311 91       		.byte	0x91
 1664 0312 67       		.sleb128 -25
 1665 0313 0B       		.uleb128 0xb
 1666 0314 76616C00 		.ascii	"val\000"
 1667 0318 01       		.byte	0x1
 1668 0319 A6       		.byte	0xa6
 1669 031a A7000000 		.4byte	0xa7
 1670 031e 02       		.uleb128 0x2
 1671 031f 91       		.byte	0x91
 1672 0320 6F       		.sleb128 -17
 1673 0321 00       		.byte	0
 1674 0322 0D       		.uleb128 0xd
 1675 0323 CC030000 		.4byte	.LASF55
 1676 0327 01       		.byte	0x1
 1677 0328 AC       		.byte	0xac
 1678 0329 00000000 		.4byte	.LFB70
 1679 032d B8000000 		.4byte	.LFE70-.LFB70
 1680 0331 01       		.uleb128 0x1
 1681 0332 9C       		.byte	0x9c
 1682 0333 70030000 		.4byte	0x370
 1683 0337 0E       		.uleb128 0xe
 1684 0338 F6030000 		.4byte	.LASF56
 1685 033c 01       		.byte	0x1
 1686 033d AC       		.byte	0xac
 1687 033e A7000000 		.4byte	0xa7
 1688 0342 02       		.uleb128 0x2
 1689 0343 91       		.byte	0x91
 1690 0344 67       		.sleb128 -25
 1691 0345 0E       		.uleb128 0xe
 1692 0346 16030000 		.4byte	.LASF57
 1693 034a 01       		.byte	0x1
 1694 034b AC       		.byte	0xac
 1695 034c A7000000 		.4byte	0xa7
 1696 0350 02       		.uleb128 0x2
 1697 0351 91       		.byte	0x91
 1698 0352 66       		.sleb128 -26
 1699 0353 0C       		.uleb128 0xc
 1700 0354 DA030000 		.4byte	.LASF58
 1701 0358 01       		.byte	0x1
 1702 0359 AF       		.byte	0xaf
 1703 035a A7000000 		.4byte	0xa7
 1704 035e 02       		.uleb128 0x2
 1705 035f 91       		.byte	0x91
ARM GAS  C:\Users\sela847\AppData\Local\Temp\ccCWOKTW.s 			page 37


 1706 0360 6F       		.sleb128 -17
 1707 0361 0C       		.uleb128 0xc
 1708 0362 E8030000 		.4byte	.LASF59
 1709 0366 01       		.byte	0x1
 1710 0367 B0       		.byte	0xb0
 1711 0368 A7000000 		.4byte	0xa7
 1712 036c 02       		.uleb128 0x2
 1713 036d 91       		.byte	0x91
 1714 036e 6E       		.sleb128 -18
 1715 036f 00       		.byte	0
 1716 0370 11       		.uleb128 0x11
 1717 0371 AE020000 		.4byte	.LASF105
 1718 0375 01       		.byte	0x1
 1719 0376 B6       		.byte	0xb6
 1720 0377 00000000 		.4byte	.LFB71
 1721 037b 50000000 		.4byte	.LFE71-.LFB71
 1722 037f 01       		.uleb128 0x1
 1723 0380 9C       		.byte	0x9c
 1724 0381 12       		.uleb128 0x12
 1725 0382 71000000 		.4byte	.LASF60
 1726 0386 01       		.byte	0x1
 1727 0387 CB       		.byte	0xcb
 1728 0388 7E000000 		.4byte	0x7e
 1729 038c 00000000 		.4byte	.LFB72
 1730 0390 14010000 		.4byte	.LFE72-.LFB72
 1731 0394 01       		.uleb128 0x1
 1732 0395 9C       		.byte	0x9c
 1733 0396 DE030000 		.4byte	0x3de
 1734 039a 0C       		.uleb128 0xc
 1735 039b F1010000 		.4byte	.LASF43
 1736 039f 01       		.byte	0x1
 1737 03a0 CE       		.byte	0xce
 1738 03a1 F8000000 		.4byte	0xf8
 1739 03a5 02       		.uleb128 0x2
 1740 03a6 91       		.byte	0x91
 1741 03a7 74       		.sleb128 -12
 1742 03a8 0C       		.uleb128 0xc
 1743 03a9 37020000 		.4byte	.LASF44
 1744 03ad 01       		.byte	0x1
 1745 03ae CF       		.byte	0xcf
 1746 03af F8000000 		.4byte	0xf8
 1747 03b3 02       		.uleb128 0x2
 1748 03b4 91       		.byte	0x91
 1749 03b5 70       		.sleb128 -16
 1750 03b6 0C       		.uleb128 0xc
 1751 03b7 4D020000 		.4byte	.LASF61
 1752 03bb 01       		.byte	0x1
 1753 03bc D3       		.byte	0xd3
 1754 03bd A7000000 		.4byte	0xa7
 1755 03c1 02       		.uleb128 0x2
 1756 03c2 91       		.byte	0x91
 1757 03c3 6F       		.sleb128 -17
 1758 03c4 13       		.uleb128 0x13
 1759 03c5 32000000 		.4byte	.LBB2
 1760 03c9 AA000000 		.4byte	.LBE2-.LBB2
 1761 03cd 0C       		.uleb128 0xc
 1762 03ce 84030000 		.4byte	.LASF62
ARM GAS  C:\Users\sela847\AppData\Local\Temp\ccCWOKTW.s 			page 38


 1763 03d2 01       		.byte	0x1
 1764 03d3 E9       		.byte	0xe9
 1765 03d4 DE030000 		.4byte	0x3de
 1766 03d8 03       		.uleb128 0x3
 1767 03d9 91       		.byte	0x91
 1768 03da AC7F     		.sleb128 -84
 1769 03dc 00       		.byte	0
 1770 03dd 00       		.byte	0
 1771 03de 14       		.uleb128 0x14
 1772 03df A0000000 		.4byte	0xa0
 1773 03e3 EE030000 		.4byte	0x3ee
 1774 03e7 15       		.uleb128 0x15
 1775 03e8 93000000 		.4byte	0x93
 1776 03ec 3F       		.byte	0x3f
 1777 03ed 00       		.byte	0
 1778 03ee 16       		.uleb128 0x16
 1779 03ef 30010000 		.4byte	.LASF63
 1780 03f3 01       		.byte	0x1
 1781 03f4 3C01     		.2byte	0x13c
 1782 03f6 00000000 		.4byte	.LFB73
 1783 03fa 3E000000 		.4byte	.LFE73-.LFB73
 1784 03fe 01       		.uleb128 0x1
 1785 03ff 9C       		.byte	0x9c
 1786 0400 12040000 		.4byte	0x412
 1787 0404 17       		.uleb128 0x17
 1788 0405 7300     		.ascii	"s\000"
 1789 0407 01       		.byte	0x1
 1790 0408 3C01     		.2byte	0x13c
 1791 040a 9A000000 		.4byte	0x9a
 1792 040e 02       		.uleb128 0x2
 1793 040f 91       		.byte	0x91
 1794 0410 74       		.sleb128 -12
 1795 0411 00       		.byte	0
 1796 0412 16       		.uleb128 0x16
 1797 0413 00000000 		.4byte	.LASF64
 1798 0417 01       		.byte	0x1
 1799 0418 4A01     		.2byte	0x14a
 1800 041a 00000000 		.4byte	.LFB74
 1801 041e 26000000 		.4byte	.LFE74-.LFB74
 1802 0422 01       		.uleb128 0x1
 1803 0423 9C       		.byte	0x9c
 1804 0424 36040000 		.4byte	0x436
 1805 0428 17       		.uleb128 0x17
 1806 0429 6300     		.ascii	"c\000"
 1807 042b 01       		.byte	0x1
 1808 042c 4A01     		.2byte	0x14a
 1809 042e A0000000 		.4byte	0xa0
 1810 0432 02       		.uleb128 0x2
 1811 0433 91       		.byte	0x91
 1812 0434 77       		.sleb128 -9
 1813 0435 00       		.byte	0
 1814 0436 18       		.uleb128 0x18
 1815 0437 8E040000 		.4byte	.LASF65
 1816 043b 06       		.byte	0x6
 1817 043c 1207     		.2byte	0x712
 1818 043e 42040000 		.4byte	0x442
 1819 0442 07       		.uleb128 0x7
ARM GAS  C:\Users\sela847\AppData\Local\Temp\ccCWOKTW.s 			page 39


 1820 0443 BD000000 		.4byte	0xbd
 1821 0447 19       		.uleb128 0x19
 1822 0448 747300   		.ascii	"ts\000"
 1823 044b 05       		.byte	0x5
 1824 044c 10       		.byte	0x10
 1825 044d C8000000 		.4byte	0xc8
 1826 0451 05       		.uleb128 0x5
 1827 0452 03       		.byte	0x3
 1828 0453 00000000 		.4byte	ts
 1829 0457 1A       		.uleb128 0x1a
 1830 0458 15000000 		.4byte	.LASF66
 1831 045c 05       		.byte	0x5
 1832 045d 11       		.byte	0x11
 1833 045e D4000000 		.4byte	0xd4
 1834 0462 05       		.uleb128 0x5
 1835 0463 03       		.byte	0x3
 1836 0464 00000000 		.4byte	ts_enc
 1837 0468 1A       		.uleb128 0x1a
 1838 0469 54040000 		.4byte	.LASF67
 1839 046d 05       		.byte	0x5
 1840 046e 12       		.byte	0x12
 1841 046f D4000000 		.4byte	0xd4
 1842 0473 05       		.uleb128 0x5
 1843 0474 03       		.byte	0x3
 1844 0475 00000000 		.4byte	ts_update
 1845 0479 1A       		.uleb128 0x1a
 1846 047a 4B040000 		.4byte	.LASF68
 1847 047e 05       		.byte	0x5
 1848 047f 13       		.byte	0x13
 1849 0480 D4000000 		.4byte	0xd4
 1850 0484 05       		.uleb128 0x5
 1851 0485 03       		.byte	0x3
 1852 0486 00000000 		.4byte	ts_speed
 1853 048a 1A       		.uleb128 0x1a
 1854 048b 3B040000 		.4byte	.LASF69
 1855 048f 05       		.byte	0x5
 1856 0490 14       		.byte	0x14
 1857 0491 D4000000 		.4byte	0xd4
 1858 0495 05       		.uleb128 0x5
 1859 0496 03       		.byte	0x3
 1860 0497 00000000 		.4byte	ts_display
 1861 049b 1A       		.uleb128 0x1a
 1862 049c 01040000 		.4byte	.LASF70
 1863 04a0 05       		.byte	0x5
 1864 04a1 16       		.byte	0x16
 1865 04a2 C8000000 		.4byte	0xc8
 1866 04a6 05       		.uleb128 0x5
 1867 04a7 03       		.byte	0x3
 1868 04a8 00000000 		.4byte	flag_ts_enc
 1869 04ac 1A       		.uleb128 0x1a
 1870 04ad BD010000 		.4byte	.LASF71
 1871 04b1 05       		.byte	0x5
 1872 04b2 17       		.byte	0x17
 1873 04b3 C8000000 		.4byte	0xc8
 1874 04b7 05       		.uleb128 0x5
 1875 04b8 03       		.byte	0x3
 1876 04b9 00000000 		.4byte	flag_ts_update
ARM GAS  C:\Users\sela847\AppData\Local\Temp\ccCWOKTW.s 			page 40


 1877 04bd 1A       		.uleb128 0x1a
 1878 04be 3B000000 		.4byte	.LASF72
 1879 04c2 05       		.byte	0x5
 1880 04c3 18       		.byte	0x18
 1881 04c4 C8000000 		.4byte	0xc8
 1882 04c8 05       		.uleb128 0x5
 1883 04c9 03       		.byte	0x3
 1884 04ca 00000000 		.4byte	flag_ts_speed
 1885 04ce 1A       		.uleb128 0x1a
 1886 04cf 03020000 		.4byte	.LASF73
 1887 04d3 05       		.byte	0x5
 1888 04d4 19       		.byte	0x19
 1889 04d5 C8000000 		.4byte	0xc8
 1890 04d9 05       		.uleb128 0x5
 1891 04da 03       		.byte	0x3
 1892 04db 00000000 		.4byte	flag_ts_display
 1893 04df 1A       		.uleb128 0x1a
 1894 04e0 13020000 		.4byte	.LASF74
 1895 04e4 05       		.byte	0x5
 1896 04e5 1C       		.byte	0x1c
 1897 04e6 C8000000 		.4byte	0xc8
 1898 04ea 05       		.uleb128 0x5
 1899 04eb 03       		.byte	0x3
 1900 04ec 00000000 		.4byte	flag_rx
 1901 04f0 1A       		.uleb128 0x1a
 1902 04f1 1C000000 		.4byte	.LASF75
 1903 04f5 05       		.byte	0x5
 1904 04f6 1D       		.byte	0x1d
 1905 04f7 C8000000 		.4byte	0xc8
 1906 04fb 05       		.uleb128 0x5
 1907 04fc 03       		.byte	0x3
 1908 04fd 00000000 		.4byte	flag_packet
 1909 0501 1A       		.uleb128 0x1a
 1910 0502 DC020000 		.4byte	.LASF76
 1911 0506 05       		.byte	0x5
 1912 0507 1E       		.byte	0x1e
 1913 0508 C8000000 		.4byte	0xc8
 1914 050c 05       		.uleb128 0x5
 1915 050d 03       		.byte	0x3
 1916 050e 00000000 		.4byte	flag_KB_string
 1917 0512 1A       		.uleb128 0x1a
 1918 0513 5B020000 		.4byte	.LASF77
 1919 0517 05       		.byte	0x5
 1920 0518 20       		.byte	0x20
 1921 0519 C8000000 		.4byte	0xc8
 1922 051d 05       		.uleb128 0x5
 1923 051e 03       		.byte	0x3
 1924 051f 00000000 		.4byte	dataready_flag
 1925 0523 1A       		.uleb128 0x1a
 1926 0524 5E040000 		.4byte	.LASF78
 1927 0528 05       		.byte	0x5
 1928 0529 22       		.byte	0x22
 1929 052a C8000000 		.4byte	0xc8
 1930 052e 05       		.uleb128 0x5
 1931 052f 03       		.byte	0x3
 1932 0530 00000000 		.4byte	flag_rf_transmission_active
 1933 0534 1A       		.uleb128 0x1a
ARM GAS  C:\Users\sela847\AppData\Local\Temp\ccCWOKTW.s 			page 41


 1934 0535 6B030000 		.4byte	.LASF79
 1935 0539 05       		.byte	0x5
 1936 053a 25       		.byte	0x25
 1937 053b DE030000 		.4byte	0x3de
 1938 053f 05       		.uleb128 0x5
 1939 0540 03       		.byte	0x3
 1940 0541 00000000 		.4byte	displaystring
 1941 0545 1A       		.uleb128 0x1a
 1942 0546 76010000 		.4byte	.LASF80
 1943 054a 05       		.byte	0x5
 1944 054b 26       		.byte	0x26
 1945 054c DE030000 		.4byte	0x3de
 1946 0550 05       		.uleb128 0x5
 1947 0551 03       		.byte	0x3
 1948 0552 00000000 		.4byte	line
 1949 0556 1A       		.uleb128 0x1a
 1950 0557 25020000 		.4byte	.LASF81
 1951 055b 05       		.byte	0x5
 1952 055c 26       		.byte	0x26
 1953 055d DE030000 		.4byte	0x3de
 1954 0561 05       		.uleb128 0x5
 1955 0562 03       		.byte	0x3
 1956 0563 00000000 		.4byte	entry
 1957 0567 14       		.uleb128 0x14
 1958 0568 C8000000 		.4byte	0xc8
 1959 056c 77050000 		.4byte	0x577
 1960 0570 15       		.uleb128 0x15
 1961 0571 93000000 		.4byte	0x93
 1962 0575 3F       		.byte	0x3f
 1963 0576 00       		.byte	0
 1964 0577 1A       		.uleb128 0x1a
 1965 0578 7E000000 		.4byte	.LASF82
 1966 057c 05       		.byte	0x5
 1967 057d 27       		.byte	0x27
 1968 057e 67050000 		.4byte	0x567
 1969 0582 05       		.uleb128 0x5
 1970 0583 03       		.byte	0x3
 1971 0584 00000000 		.4byte	usbBuffer
 1972 0588 1A       		.uleb128 0x1a
 1973 0589 5B000000 		.4byte	.LASF83
 1974 058d 05       		.byte	0x5
 1975 058e 3C       		.byte	0x3c
 1976 058f 0B010000 		.4byte	0x10b
 1977 0593 05       		.uleb128 0x5
 1978 0594 03       		.byte	0x3
 1979 0595 00000000 		.4byte	system_state
 1980 0599 1A       		.uleb128 0x1a
 1981 059a B4030000 		.4byte	.LASF84
 1982 059e 01       		.byte	0x1
 1983 059f 24       		.byte	0x24
 1984 05a0 A7000000 		.4byte	0xa7
 1985 05a4 05       		.uleb128 0x5
 1986 05a5 03       		.byte	0x3
 1987 05a6 00000000 		.4byte	timeIndex
 1988 05aa 1A       		.uleb128 0x1a
 1989 05ab 38030000 		.4byte	.LASF85
 1990 05af 01       		.byte	0x1
ARM GAS  C:\Users\sela847\AppData\Local\Temp\ccCWOKTW.s 			page 42


 1991 05b0 25       		.byte	0x25
 1992 05b1 F8000000 		.4byte	0xf8
 1993 05b5 05       		.uleb128 0x5
 1994 05b6 03       		.byte	0x3
 1995 05b7 00000000 		.4byte	m1motorSpeed
 1996 05bb 1A       		.uleb128 0x1a
 1997 05bc 28000000 		.4byte	.LASF86
 1998 05c0 01       		.byte	0x1
 1999 05c1 26       		.byte	0x26
 2000 05c2 F8000000 		.4byte	0xf8
 2001 05c6 05       		.uleb128 0x5
 2002 05c7 03       		.byte	0x3
 2003 05c8 00000000 		.4byte	m2motorSpeed
 2004 05cc 14       		.uleb128 0x14
 2005 05cd B2000000 		.4byte	0xb2
 2006 05d1 DC050000 		.4byte	0x5dc
 2007 05d5 15       		.uleb128 0x15
 2008 05d6 93000000 		.4byte	0x93
 2009 05da 01       		.byte	0x1
 2010 05db 00       		.byte	0
 2011 05dc 1A       		.uleb128 0x1a
 2012 05dd EB020000 		.4byte	.LASF87
 2013 05e1 01       		.byte	0x1
 2014 05e2 27       		.byte	0x27
 2015 05e3 CC050000 		.4byte	0x5cc
 2016 05e7 05       		.uleb128 0x5
 2017 05e8 03       		.byte	0x3
 2018 05e9 00000000 		.4byte	timeArrayM1
 2019 05ed 1A       		.uleb128 0x1a
 2020 05ee F7020000 		.4byte	.LASF88
 2021 05f2 01       		.byte	0x1
 2022 05f3 28       		.byte	0x28
 2023 05f4 CC050000 		.4byte	0x5cc
 2024 05f8 05       		.uleb128 0x5
 2025 05f9 03       		.byte	0x3
 2026 05fa 00000000 		.4byte	timeArrayM2
 2027 05fe 1A       		.uleb128 0x1a
 2028 05ff C2020000 		.4byte	.LASF89
 2029 0603 01       		.byte	0x1
 2030 0604 29       		.byte	0x29
 2031 0605 A7000000 		.4byte	0xa7
 2032 0609 05       		.uleb128 0x5
 2033 060a 03       		.byte	0x3
 2034 060b 00000000 		.4byte	printSpeed
 2035 060f 1A       		.uleb128 0x1a
 2036 0610 1B020000 		.4byte	.LASF90
 2037 0614 01       		.byte	0x1
 2038 0615 2A       		.byte	0x2a
 2039 0616 06010000 		.4byte	0x106
 2040 061a 05       		.uleb128 0x5
 2041 061b 03       		.byte	0x3
 2042 061c 00000000 		.4byte	changeVal
 2043 0620 1A       		.uleb128 0x1a
 2044 0621 33040000 		.4byte	.LASF91
 2045 0625 01       		.byte	0x1
 2046 0626 2B       		.byte	0x2b
 2047 0627 B2000000 		.4byte	0xb2
ARM GAS  C:\Users\sela847\AppData\Local\Temp\ccCWOKTW.s 			page 43


 2048 062b 05       		.uleb128 0x5
 2049 062c 03       		.byte	0x3
 2050 062d 00000000 		.4byte	m1Count
 2051 0631 1A       		.uleb128 0x1a
 2052 0632 D4010000 		.4byte	.LASF92
 2053 0636 01       		.byte	0x1
 2054 0637 2C       		.byte	0x2c
 2055 0638 B2000000 		.4byte	0xb2
 2056 063c 05       		.uleb128 0x5
 2057 063d 03       		.byte	0x3
 2058 063e 00000000 		.4byte	m2Count
 2059 0642 1A       		.uleb128 0x1a
 2060 0643 21030000 		.4byte	.LASF93
 2061 0647 01       		.byte	0x1
 2062 0648 2D       		.byte	0x2d
 2063 0649 A7000000 		.4byte	0xa7
 2064 064d 05       		.uleb128 0x5
 2065 064e 03       		.byte	0x3
 2066 064f 00000000 		.4byte	stop
 2067 0653 1A       		.uleb128 0x1a
 2068 0654 7B010000 		.4byte	.LASF94
 2069 0658 01       		.byte	0x1
 2070 0659 2E       		.byte	0x2e
 2071 065a B2000000 		.4byte	0xb2
 2072 065e 05       		.uleb128 0x5
 2073 065f 03       		.byte	0x3
 2074 0660 00000000 		.4byte	speedL
 2075 0664 1A       		.uleb128 0x1a
 2076 0665 94010000 		.4byte	.LASF95
 2077 0669 01       		.byte	0x1
 2078 066a 2E       		.byte	0x2e
 2079 066b B2000000 		.4byte	0xb2
 2080 066f 05       		.uleb128 0x5
 2081 0670 03       		.byte	0x3
 2082 0671 00000000 		.4byte	speedR
 2083 0675 1A       		.uleb128 0x1a
 2084 0676 26040000 		.4byte	.LASF96
 2085 067a 01       		.byte	0x1
 2086 067b 2F       		.byte	0x2f
 2087 067c B2000000 		.4byte	0xb2
 2088 0680 05       		.uleb128 0x5
 2089 0681 03       		.byte	0x3
 2090 0682 00000000 		.4byte	posL
 2091 0686 1A       		.uleb128 0x1a
 2092 0687 46040000 		.4byte	.LASF97
 2093 068b 01       		.byte	0x1
 2094 068c 2F       		.byte	0x2f
 2095 068d B2000000 		.4byte	0xb2
 2096 0691 05       		.uleb128 0x5
 2097 0692 03       		.byte	0x3
 2098 0693 00000000 		.4byte	posR
 2099 0697 1A       		.uleb128 0x1a
 2100 0698 17040000 		.4byte	.LASF98
 2101 069c 01       		.byte	0x1
 2102 069d 30       		.byte	0x30
 2103 069e F8000000 		.4byte	0xf8
 2104 06a2 05       		.uleb128 0x5
ARM GAS  C:\Users\sela847\AppData\Local\Temp\ccCWOKTW.s 			page 44


 2105 06a3 03       		.byte	0x3
 2106 06a4 00000000 		.4byte	m1Comp
 2107 06a8 1A       		.uleb128 0x1a
 2108 06a9 29010000 		.4byte	.LASF99
 2109 06ad 01       		.byte	0x1
 2110 06ae 30       		.byte	0x30
 2111 06af F8000000 		.4byte	0xf8
 2112 06b3 05       		.uleb128 0x5
 2113 06b4 03       		.byte	0x3
 2114 06b5 00000000 		.4byte	m2Comp
 2115 06b9 00       		.byte	0
 2116              		.section	.debug_abbrev,"",%progbits
 2117              	.Ldebug_abbrev0:
 2118 0000 01       		.uleb128 0x1
 2119 0001 11       		.uleb128 0x11
 2120 0002 01       		.byte	0x1
 2121 0003 25       		.uleb128 0x25
 2122 0004 0E       		.uleb128 0xe
 2123 0005 13       		.uleb128 0x13
 2124 0006 0B       		.uleb128 0xb
 2125 0007 03       		.uleb128 0x3
 2126 0008 0E       		.uleb128 0xe
 2127 0009 1B       		.uleb128 0x1b
 2128 000a 0E       		.uleb128 0xe
 2129 000b 55       		.uleb128 0x55
 2130 000c 17       		.uleb128 0x17
 2131 000d 11       		.uleb128 0x11
 2132 000e 01       		.uleb128 0x1
 2133 000f 10       		.uleb128 0x10
 2134 0010 17       		.uleb128 0x17
 2135 0011 00       		.byte	0
 2136 0012 00       		.byte	0
 2137 0013 02       		.uleb128 0x2
 2138 0014 24       		.uleb128 0x24
 2139 0015 00       		.byte	0
 2140 0016 0B       		.uleb128 0xb
 2141 0017 0B       		.uleb128 0xb
 2142 0018 3E       		.uleb128 0x3e
 2143 0019 0B       		.uleb128 0xb
 2144 001a 03       		.uleb128 0x3
 2145 001b 0E       		.uleb128 0xe
 2146 001c 00       		.byte	0
 2147 001d 00       		.byte	0
 2148 001e 03       		.uleb128 0x3
 2149 001f 16       		.uleb128 0x16
 2150 0020 00       		.byte	0
 2151 0021 03       		.uleb128 0x3
 2152 0022 0E       		.uleb128 0xe
 2153 0023 3A       		.uleb128 0x3a
 2154 0024 0B       		.uleb128 0xb
 2155 0025 3B       		.uleb128 0x3b
 2156 0026 0B       		.uleb128 0xb
 2157 0027 49       		.uleb128 0x49
 2158 0028 13       		.uleb128 0x13
 2159 0029 00       		.byte	0
 2160 002a 00       		.byte	0
 2161 002b 04       		.uleb128 0x4
ARM GAS  C:\Users\sela847\AppData\Local\Temp\ccCWOKTW.s 			page 45


 2162 002c 24       		.uleb128 0x24
 2163 002d 00       		.byte	0
 2164 002e 0B       		.uleb128 0xb
 2165 002f 0B       		.uleb128 0xb
 2166 0030 3E       		.uleb128 0x3e
 2167 0031 0B       		.uleb128 0xb
 2168 0032 03       		.uleb128 0x3
 2169 0033 08       		.uleb128 0x8
 2170 0034 00       		.byte	0
 2171 0035 00       		.byte	0
 2172 0036 05       		.uleb128 0x5
 2173 0037 0F       		.uleb128 0xf
 2174 0038 00       		.byte	0
 2175 0039 0B       		.uleb128 0xb
 2176 003a 0B       		.uleb128 0xb
 2177 003b 49       		.uleb128 0x49
 2178 003c 13       		.uleb128 0x13
 2179 003d 00       		.byte	0
 2180 003e 00       		.byte	0
 2181 003f 06       		.uleb128 0x6
 2182 0040 16       		.uleb128 0x16
 2183 0041 00       		.byte	0
 2184 0042 03       		.uleb128 0x3
 2185 0043 0E       		.uleb128 0xe
 2186 0044 3A       		.uleb128 0x3a
 2187 0045 0B       		.uleb128 0xb
 2188 0046 3B       		.uleb128 0x3b
 2189 0047 05       		.uleb128 0x5
 2190 0048 49       		.uleb128 0x49
 2191 0049 13       		.uleb128 0x13
 2192 004a 00       		.byte	0
 2193 004b 00       		.byte	0
 2194 004c 07       		.uleb128 0x7
 2195 004d 35       		.uleb128 0x35
 2196 004e 00       		.byte	0
 2197 004f 49       		.uleb128 0x49
 2198 0050 13       		.uleb128 0x13
 2199 0051 00       		.byte	0
 2200 0052 00       		.byte	0
 2201 0053 08       		.uleb128 0x8
 2202 0054 13       		.uleb128 0x13
 2203 0055 01       		.byte	0x1
 2204 0056 03       		.uleb128 0x3
 2205 0057 0E       		.uleb128 0xe
 2206 0058 0B       		.uleb128 0xb
 2207 0059 0B       		.uleb128 0xb
 2208 005a 3A       		.uleb128 0x3a
 2209 005b 0B       		.uleb128 0xb
 2210 005c 3B       		.uleb128 0x3b
 2211 005d 0B       		.uleb128 0xb
 2212 005e 01       		.uleb128 0x1
 2213 005f 13       		.uleb128 0x13
 2214 0060 00       		.byte	0
 2215 0061 00       		.byte	0
 2216 0062 09       		.uleb128 0x9
 2217 0063 0D       		.uleb128 0xd
 2218 0064 00       		.byte	0
ARM GAS  C:\Users\sela847\AppData\Local\Temp\ccCWOKTW.s 			page 46


 2219 0065 03       		.uleb128 0x3
 2220 0066 0E       		.uleb128 0xe
 2221 0067 3A       		.uleb128 0x3a
 2222 0068 0B       		.uleb128 0xb
 2223 0069 3B       		.uleb128 0x3b
 2224 006a 0B       		.uleb128 0xb
 2225 006b 49       		.uleb128 0x49
 2226 006c 13       		.uleb128 0x13
 2227 006d 38       		.uleb128 0x38
 2228 006e 0B       		.uleb128 0xb
 2229 006f 00       		.byte	0
 2230 0070 00       		.byte	0
 2231 0071 0A       		.uleb128 0xa
 2232 0072 2E       		.uleb128 0x2e
 2233 0073 01       		.byte	0x1
 2234 0074 3F       		.uleb128 0x3f
 2235 0075 19       		.uleb128 0x19
 2236 0076 03       		.uleb128 0x3
 2237 0077 0E       		.uleb128 0xe
 2238 0078 3A       		.uleb128 0x3a
 2239 0079 0B       		.uleb128 0xb
 2240 007a 3B       		.uleb128 0x3b
 2241 007b 0B       		.uleb128 0xb
 2242 007c 11       		.uleb128 0x11
 2243 007d 01       		.uleb128 0x1
 2244 007e 12       		.uleb128 0x12
 2245 007f 06       		.uleb128 0x6
 2246 0080 40       		.uleb128 0x40
 2247 0081 18       		.uleb128 0x18
 2248 0082 9642     		.uleb128 0x2116
 2249 0084 19       		.uleb128 0x19
 2250 0085 01       		.uleb128 0x1
 2251 0086 13       		.uleb128 0x13
 2252 0087 00       		.byte	0
 2253 0088 00       		.byte	0
 2254 0089 0B       		.uleb128 0xb
 2255 008a 34       		.uleb128 0x34
 2256 008b 00       		.byte	0
 2257 008c 03       		.uleb128 0x3
 2258 008d 08       		.uleb128 0x8
 2259 008e 3A       		.uleb128 0x3a
 2260 008f 0B       		.uleb128 0xb
 2261 0090 3B       		.uleb128 0x3b
 2262 0091 0B       		.uleb128 0xb
 2263 0092 49       		.uleb128 0x49
 2264 0093 13       		.uleb128 0x13
 2265 0094 02       		.uleb128 0x2
 2266 0095 18       		.uleb128 0x18
 2267 0096 00       		.byte	0
 2268 0097 00       		.byte	0
 2269 0098 0C       		.uleb128 0xc
 2270 0099 34       		.uleb128 0x34
 2271 009a 00       		.byte	0
 2272 009b 03       		.uleb128 0x3
 2273 009c 0E       		.uleb128 0xe
 2274 009d 3A       		.uleb128 0x3a
 2275 009e 0B       		.uleb128 0xb
ARM GAS  C:\Users\sela847\AppData\Local\Temp\ccCWOKTW.s 			page 47


 2276 009f 3B       		.uleb128 0x3b
 2277 00a0 0B       		.uleb128 0xb
 2278 00a1 49       		.uleb128 0x49
 2279 00a2 13       		.uleb128 0x13
 2280 00a3 02       		.uleb128 0x2
 2281 00a4 18       		.uleb128 0x18
 2282 00a5 00       		.byte	0
 2283 00a6 00       		.byte	0
 2284 00a7 0D       		.uleb128 0xd
 2285 00a8 2E       		.uleb128 0x2e
 2286 00a9 01       		.byte	0x1
 2287 00aa 3F       		.uleb128 0x3f
 2288 00ab 19       		.uleb128 0x19
 2289 00ac 03       		.uleb128 0x3
 2290 00ad 0E       		.uleb128 0xe
 2291 00ae 3A       		.uleb128 0x3a
 2292 00af 0B       		.uleb128 0xb
 2293 00b0 3B       		.uleb128 0x3b
 2294 00b1 0B       		.uleb128 0xb
 2295 00b2 27       		.uleb128 0x27
 2296 00b3 19       		.uleb128 0x19
 2297 00b4 11       		.uleb128 0x11
 2298 00b5 01       		.uleb128 0x1
 2299 00b6 12       		.uleb128 0x12
 2300 00b7 06       		.uleb128 0x6
 2301 00b8 40       		.uleb128 0x40
 2302 00b9 18       		.uleb128 0x18
 2303 00ba 9642     		.uleb128 0x2116
 2304 00bc 19       		.uleb128 0x19
 2305 00bd 01       		.uleb128 0x1
 2306 00be 13       		.uleb128 0x13
 2307 00bf 00       		.byte	0
 2308 00c0 00       		.byte	0
 2309 00c1 0E       		.uleb128 0xe
 2310 00c2 05       		.uleb128 0x5
 2311 00c3 00       		.byte	0
 2312 00c4 03       		.uleb128 0x3
 2313 00c5 0E       		.uleb128 0xe
 2314 00c6 3A       		.uleb128 0x3a
 2315 00c7 0B       		.uleb128 0xb
 2316 00c8 3B       		.uleb128 0x3b
 2317 00c9 0B       		.uleb128 0xb
 2318 00ca 49       		.uleb128 0x49
 2319 00cb 13       		.uleb128 0x13
 2320 00cc 02       		.uleb128 0x2
 2321 00cd 18       		.uleb128 0x18
 2322 00ce 00       		.byte	0
 2323 00cf 00       		.byte	0
 2324 00d0 0F       		.uleb128 0xf
 2325 00d1 2E       		.uleb128 0x2e
 2326 00d2 00       		.byte	0
 2327 00d3 3F       		.uleb128 0x3f
 2328 00d4 19       		.uleb128 0x19
 2329 00d5 03       		.uleb128 0x3
 2330 00d6 0E       		.uleb128 0xe
 2331 00d7 3A       		.uleb128 0x3a
 2332 00d8 0B       		.uleb128 0xb
ARM GAS  C:\Users\sela847\AppData\Local\Temp\ccCWOKTW.s 			page 48


 2333 00d9 3B       		.uleb128 0x3b
 2334 00da 0B       		.uleb128 0xb
 2335 00db 27       		.uleb128 0x27
 2336 00dc 19       		.uleb128 0x19
 2337 00dd 11       		.uleb128 0x11
 2338 00de 01       		.uleb128 0x1
 2339 00df 12       		.uleb128 0x12
 2340 00e0 06       		.uleb128 0x6
 2341 00e1 40       		.uleb128 0x40
 2342 00e2 18       		.uleb128 0x18
 2343 00e3 9642     		.uleb128 0x2116
 2344 00e5 19       		.uleb128 0x19
 2345 00e6 00       		.byte	0
 2346 00e7 00       		.byte	0
 2347 00e8 10       		.uleb128 0x10
 2348 00e9 2E       		.uleb128 0x2e
 2349 00ea 01       		.byte	0x1
 2350 00eb 3F       		.uleb128 0x3f
 2351 00ec 19       		.uleb128 0x19
 2352 00ed 03       		.uleb128 0x3
 2353 00ee 0E       		.uleb128 0xe
 2354 00ef 3A       		.uleb128 0x3a
 2355 00f0 0B       		.uleb128 0xb
 2356 00f1 3B       		.uleb128 0x3b
 2357 00f2 0B       		.uleb128 0xb
 2358 00f3 27       		.uleb128 0x27
 2359 00f4 19       		.uleb128 0x19
 2360 00f5 49       		.uleb128 0x49
 2361 00f6 13       		.uleb128 0x13
 2362 00f7 11       		.uleb128 0x11
 2363 00f8 01       		.uleb128 0x1
 2364 00f9 12       		.uleb128 0x12
 2365 00fa 06       		.uleb128 0x6
 2366 00fb 40       		.uleb128 0x40
 2367 00fc 18       		.uleb128 0x18
 2368 00fd 9642     		.uleb128 0x2116
 2369 00ff 19       		.uleb128 0x19
 2370 0100 01       		.uleb128 0x1
 2371 0101 13       		.uleb128 0x13
 2372 0102 00       		.byte	0
 2373 0103 00       		.byte	0
 2374 0104 11       		.uleb128 0x11
 2375 0105 2E       		.uleb128 0x2e
 2376 0106 00       		.byte	0
 2377 0107 3F       		.uleb128 0x3f
 2378 0108 19       		.uleb128 0x19
 2379 0109 03       		.uleb128 0x3
 2380 010a 0E       		.uleb128 0xe
 2381 010b 3A       		.uleb128 0x3a
 2382 010c 0B       		.uleb128 0xb
 2383 010d 3B       		.uleb128 0x3b
 2384 010e 0B       		.uleb128 0xb
 2385 010f 11       		.uleb128 0x11
 2386 0110 01       		.uleb128 0x1
 2387 0111 12       		.uleb128 0x12
 2388 0112 06       		.uleb128 0x6
 2389 0113 40       		.uleb128 0x40
ARM GAS  C:\Users\sela847\AppData\Local\Temp\ccCWOKTW.s 			page 49


 2390 0114 18       		.uleb128 0x18
 2391 0115 9642     		.uleb128 0x2116
 2392 0117 19       		.uleb128 0x19
 2393 0118 00       		.byte	0
 2394 0119 00       		.byte	0
 2395 011a 12       		.uleb128 0x12
 2396 011b 2E       		.uleb128 0x2e
 2397 011c 01       		.byte	0x1
 2398 011d 3F       		.uleb128 0x3f
 2399 011e 19       		.uleb128 0x19
 2400 011f 03       		.uleb128 0x3
 2401 0120 0E       		.uleb128 0xe
 2402 0121 3A       		.uleb128 0x3a
 2403 0122 0B       		.uleb128 0xb
 2404 0123 3B       		.uleb128 0x3b
 2405 0124 0B       		.uleb128 0xb
 2406 0125 49       		.uleb128 0x49
 2407 0126 13       		.uleb128 0x13
 2408 0127 11       		.uleb128 0x11
 2409 0128 01       		.uleb128 0x1
 2410 0129 12       		.uleb128 0x12
 2411 012a 06       		.uleb128 0x6
 2412 012b 40       		.uleb128 0x40
 2413 012c 18       		.uleb128 0x18
 2414 012d 9642     		.uleb128 0x2116
 2415 012f 19       		.uleb128 0x19
 2416 0130 01       		.uleb128 0x1
 2417 0131 13       		.uleb128 0x13
 2418 0132 00       		.byte	0
 2419 0133 00       		.byte	0
 2420 0134 13       		.uleb128 0x13
 2421 0135 0B       		.uleb128 0xb
 2422 0136 01       		.byte	0x1
 2423 0137 11       		.uleb128 0x11
 2424 0138 01       		.uleb128 0x1
 2425 0139 12       		.uleb128 0x12
 2426 013a 06       		.uleb128 0x6
 2427 013b 00       		.byte	0
 2428 013c 00       		.byte	0
 2429 013d 14       		.uleb128 0x14
 2430 013e 01       		.uleb128 0x1
 2431 013f 01       		.byte	0x1
 2432 0140 49       		.uleb128 0x49
 2433 0141 13       		.uleb128 0x13
 2434 0142 01       		.uleb128 0x1
 2435 0143 13       		.uleb128 0x13
 2436 0144 00       		.byte	0
 2437 0145 00       		.byte	0
 2438 0146 15       		.uleb128 0x15
 2439 0147 21       		.uleb128 0x21
 2440 0148 00       		.byte	0
 2441 0149 49       		.uleb128 0x49
 2442 014a 13       		.uleb128 0x13
 2443 014b 2F       		.uleb128 0x2f
 2444 014c 0B       		.uleb128 0xb
 2445 014d 00       		.byte	0
 2446 014e 00       		.byte	0
ARM GAS  C:\Users\sela847\AppData\Local\Temp\ccCWOKTW.s 			page 50


 2447 014f 16       		.uleb128 0x16
 2448 0150 2E       		.uleb128 0x2e
 2449 0151 01       		.byte	0x1
 2450 0152 3F       		.uleb128 0x3f
 2451 0153 19       		.uleb128 0x19
 2452 0154 03       		.uleb128 0x3
 2453 0155 0E       		.uleb128 0xe
 2454 0156 3A       		.uleb128 0x3a
 2455 0157 0B       		.uleb128 0xb
 2456 0158 3B       		.uleb128 0x3b
 2457 0159 05       		.uleb128 0x5
 2458 015a 27       		.uleb128 0x27
 2459 015b 19       		.uleb128 0x19
 2460 015c 11       		.uleb128 0x11
 2461 015d 01       		.uleb128 0x1
 2462 015e 12       		.uleb128 0x12
 2463 015f 06       		.uleb128 0x6
 2464 0160 40       		.uleb128 0x40
 2465 0161 18       		.uleb128 0x18
 2466 0162 9642     		.uleb128 0x2116
 2467 0164 19       		.uleb128 0x19
 2468 0165 01       		.uleb128 0x1
 2469 0166 13       		.uleb128 0x13
 2470 0167 00       		.byte	0
 2471 0168 00       		.byte	0
 2472 0169 17       		.uleb128 0x17
 2473 016a 05       		.uleb128 0x5
 2474 016b 00       		.byte	0
 2475 016c 03       		.uleb128 0x3
 2476 016d 08       		.uleb128 0x8
 2477 016e 3A       		.uleb128 0x3a
 2478 016f 0B       		.uleb128 0xb
 2479 0170 3B       		.uleb128 0x3b
 2480 0171 05       		.uleb128 0x5
 2481 0172 49       		.uleb128 0x49
 2482 0173 13       		.uleb128 0x13
 2483 0174 02       		.uleb128 0x2
 2484 0175 18       		.uleb128 0x18
 2485 0176 00       		.byte	0
 2486 0177 00       		.byte	0
 2487 0178 18       		.uleb128 0x18
 2488 0179 34       		.uleb128 0x34
 2489 017a 00       		.byte	0
 2490 017b 03       		.uleb128 0x3
 2491 017c 0E       		.uleb128 0xe
 2492 017d 3A       		.uleb128 0x3a
 2493 017e 0B       		.uleb128 0xb
 2494 017f 3B       		.uleb128 0x3b
 2495 0180 05       		.uleb128 0x5
 2496 0181 49       		.uleb128 0x49
 2497 0182 13       		.uleb128 0x13
 2498 0183 3F       		.uleb128 0x3f
 2499 0184 19       		.uleb128 0x19
 2500 0185 3C       		.uleb128 0x3c
 2501 0186 19       		.uleb128 0x19
 2502 0187 00       		.byte	0
 2503 0188 00       		.byte	0
ARM GAS  C:\Users\sela847\AppData\Local\Temp\ccCWOKTW.s 			page 51


 2504 0189 19       		.uleb128 0x19
 2505 018a 34       		.uleb128 0x34
 2506 018b 00       		.byte	0
 2507 018c 03       		.uleb128 0x3
 2508 018d 08       		.uleb128 0x8
 2509 018e 3A       		.uleb128 0x3a
 2510 018f 0B       		.uleb128 0xb
 2511 0190 3B       		.uleb128 0x3b
 2512 0191 0B       		.uleb128 0xb
 2513 0192 49       		.uleb128 0x49
 2514 0193 13       		.uleb128 0x13
 2515 0194 3F       		.uleb128 0x3f
 2516 0195 19       		.uleb128 0x19
 2517 0196 02       		.uleb128 0x2
 2518 0197 18       		.uleb128 0x18
 2519 0198 00       		.byte	0
 2520 0199 00       		.byte	0
 2521 019a 1A       		.uleb128 0x1a
 2522 019b 34       		.uleb128 0x34
 2523 019c 00       		.byte	0
 2524 019d 03       		.uleb128 0x3
 2525 019e 0E       		.uleb128 0xe
 2526 019f 3A       		.uleb128 0x3a
 2527 01a0 0B       		.uleb128 0xb
 2528 01a1 3B       		.uleb128 0x3b
 2529 01a2 0B       		.uleb128 0xb
 2530 01a3 49       		.uleb128 0x49
 2531 01a4 13       		.uleb128 0x13
 2532 01a5 3F       		.uleb128 0x3f
 2533 01a6 19       		.uleb128 0x19
 2534 01a7 02       		.uleb128 0x2
 2535 01a8 18       		.uleb128 0x18
 2536 01a9 00       		.byte	0
 2537 01aa 00       		.byte	0
 2538 01ab 00       		.byte	0
 2539              		.section	.debug_aranges,"",%progbits
 2540 0000 6C000000 		.4byte	0x6c
 2541 0004 0200     		.2byte	0x2
 2542 0006 00000000 		.4byte	.Ldebug_info0
 2543 000a 04       		.byte	0x4
 2544 000b 00       		.byte	0
 2545 000c 0000     		.2byte	0
 2546 000e 0000     		.2byte	0
 2547 0010 00000000 		.4byte	.LFB64
 2548 0014 D0000000 		.4byte	.LFE64-.LFB64
 2549 0018 00000000 		.4byte	.LFB65
 2550 001c 20020000 		.4byte	.LFE65-.LFB65
 2551 0020 00000000 		.4byte	.LFB66
 2552 0024 20000000 		.4byte	.LFE66-.LFB66
 2553 0028 00000000 		.4byte	.LFB67
 2554 002c 44000000 		.4byte	.LFE67-.LFB67
 2555 0030 00000000 		.4byte	.LFB68
 2556 0034 34000000 		.4byte	.LFE68-.LFB68
 2557 0038 00000000 		.4byte	.LFB69
 2558 003c 70000000 		.4byte	.LFE69-.LFB69
 2559 0040 00000000 		.4byte	.LFB70
 2560 0044 B8000000 		.4byte	.LFE70-.LFB70
ARM GAS  C:\Users\sela847\AppData\Local\Temp\ccCWOKTW.s 			page 52


 2561 0048 00000000 		.4byte	.LFB71
 2562 004c 50000000 		.4byte	.LFE71-.LFB71
 2563 0050 00000000 		.4byte	.LFB72
 2564 0054 14010000 		.4byte	.LFE72-.LFB72
 2565 0058 00000000 		.4byte	.LFB73
 2566 005c 3E000000 		.4byte	.LFE73-.LFB73
 2567 0060 00000000 		.4byte	.LFB74
 2568 0064 26000000 		.4byte	.LFE74-.LFB74
 2569 0068 00000000 		.4byte	0
 2570 006c 00000000 		.4byte	0
 2571              		.section	.debug_ranges,"",%progbits
 2572              	.Ldebug_ranges0:
 2573 0000 00000000 		.4byte	.LFB64
 2574 0004 D0000000 		.4byte	.LFE64
 2575 0008 00000000 		.4byte	.LFB65
 2576 000c 20020000 		.4byte	.LFE65
 2577 0010 00000000 		.4byte	.LFB66
 2578 0014 20000000 		.4byte	.LFE66
 2579 0018 00000000 		.4byte	.LFB67
 2580 001c 44000000 		.4byte	.LFE67
 2581 0020 00000000 		.4byte	.LFB68
 2582 0024 34000000 		.4byte	.LFE68
 2583 0028 00000000 		.4byte	.LFB69
 2584 002c 70000000 		.4byte	.LFE69
 2585 0030 00000000 		.4byte	.LFB70
 2586 0034 B8000000 		.4byte	.LFE70
 2587 0038 00000000 		.4byte	.LFB71
 2588 003c 50000000 		.4byte	.LFE71
 2589 0040 00000000 		.4byte	.LFB72
 2590 0044 14010000 		.4byte	.LFE72
 2591 0048 00000000 		.4byte	.LFB73
 2592 004c 3E000000 		.4byte	.LFE73
 2593 0050 00000000 		.4byte	.LFB74
 2594 0054 26000000 		.4byte	.LFE74
 2595 0058 00000000 		.4byte	0
 2596 005c 00000000 		.4byte	0
 2597              		.section	.debug_line,"",%progbits
 2598              	.Ldebug_line0:
 2599 0000 A3020000 		.section	.debug_str,"MS",%progbits,1
 2599      02005601 
 2599      00000201 
 2599      FB0E0D00 
 2599      01010101 
 2600              	.LASF64:
 2601 0000 75736250 		.ascii	"usbPutChar\000"
 2601      75744368 
 2601      617200
 2602              	.LASF51:
 2603 000b 6765745F 		.ascii	"get_speed\000"
 2603      73706565 
 2603      6400
 2604              	.LASF66:
 2605 0015 74735F65 		.ascii	"ts_enc\000"
 2605      6E6300
 2606              	.LASF75:
 2607 001c 666C6167 		.ascii	"flag_packet\000"
 2607      5F706163 
ARM GAS  C:\Users\sela847\AppData\Local\Temp\ccCWOKTW.s 			page 53


 2607      6B657400 
 2608              	.LASF86:
 2609 0028 6D326D6F 		.ascii	"m2motorSpeed\000"
 2609      746F7253 
 2609      70656564 
 2609      00
 2610              	.LASF41:
 2611 0035 73746174 		.ascii	"state\000"
 2611      6500
 2612              	.LASF72:
 2613 003b 666C6167 		.ascii	"flag_ts_speed\000"
 2613      5F74735F 
 2613      73706565 
 2613      6400
 2614              	.LASF37:
 2615 0049 67325F78 		.ascii	"g2_xpos\000"
 2615      706F7300 
 2616              	.LASF2:
 2617 0051 73686F72 		.ascii	"short int\000"
 2617      7420696E 
 2617      7400
 2618              	.LASF83:
 2619 005b 73797374 		.ascii	"system_state\000"
 2619      656D5F73 
 2619      74617465 
 2619      00
 2620              	.LASF13:
 2621 0068 73697A65 		.ascii	"sizetype\000"
 2621      74797065 
 2621      00
 2622              	.LASF60:
 2623 0071 6D61696E 		.ascii	"main\000"
 2623      00
 2624              	.LASF52:
 2625 0076 6765745F 		.ascii	"get_pos\000"
 2625      706F7300 
 2626              	.LASF82:
 2627 007e 75736242 		.ascii	"usbBuffer\000"
 2627      75666665 
 2627      7200
 2628              	.LASF100:
 2629 0088 474E5520 		.ascii	"GNU C11 5.4.1 20160609 (release) [ARM/embedded-5-br"
 2629      43313120 
 2629      352E342E 
 2629      31203230 
 2629      31363036 
 2630 00bb 616E6368 		.ascii	"anch revision 237715] -mcpu=cortex-m3 -mthumb -g -O"
 2630      20726576 
 2630      6973696F 
 2630      6E203233 
 2630      37373135 
 2631 00ee 30202D66 		.ascii	"0 -ffunction-sections -ffat-lto-objects\000"
 2631      66756E63 
 2631      74696F6E 
 2631      2D736563 
 2631      74696F6E 
 2632              	.LASF4:
ARM GAS  C:\Users\sela847\AppData\Local\Temp\ccCWOKTW.s 			page 54


 2633 0116 5F5F7569 		.ascii	"__uint16_t\000"
 2633      6E743136 
 2633      5F7400
 2634              	.LASF45:
 2635 0121 6D316572 		.ascii	"m1error\000"
 2635      726F7200 
 2636              	.LASF99:
 2637 0129 6D32436F 		.ascii	"m2Comp\000"
 2637      6D7000
 2638              	.LASF63:
 2639 0130 75736250 		.ascii	"usbPutString\000"
 2639      75745374 
 2639      72696E67 
 2639      00
 2640              	.LASF47:
 2641 013d 6D315461 		.ascii	"m1Target\000"
 2641      72676574 
 2641      00
 2642              	.LASF19:
 2643 0146 75696E74 		.ascii	"uint16\000"
 2643      313600
 2644              	.LASF25:
 2645 014d 696E6465 		.ascii	"index\000"
 2645      7800
 2646              	.LASF103:
 2647 0153 64617461 		.ascii	"data_main\000"
 2647      5F6D6169 
 2647      6E00
 2648              	.LASF21:
 2649 015d 696E7431 		.ascii	"int16\000"
 2649      3600
 2650              	.LASF18:
 2651 0163 75696E74 		.ascii	"uint8\000"
 2651      3800
 2652              	.LASF36:
 2653 0169 67315F64 		.ascii	"g1_direction\000"
 2653      69726563 
 2653      74696F6E 
 2653      00
 2654              	.LASF80:
 2655 0176 6C696E65 		.ascii	"line\000"
 2655      00
 2656              	.LASF94:
 2657 017b 73706565 		.ascii	"speedL\000"
 2657      644C00
 2658              	.LASF0:
 2659 0182 7369676E 		.ascii	"signed char\000"
 2659      65642063 
 2659      68617200 
 2660              	.LASF22:
 2661 018e 666C6F61 		.ascii	"float\000"
 2661      7400
 2662              	.LASF95:
 2663 0194 73706565 		.ascii	"speedR\000"
 2663      645200
 2664              	.LASF9:
 2665 019b 6C6F6E67 		.ascii	"long long int\000"
ARM GAS  C:\Users\sela847\AppData\Local\Temp\ccCWOKTW.s 			page 55


 2665      206C6F6E 
 2665      6720696E 
 2665      7400
 2666              	.LASF50:
 2667 01a9 51756164 		.ascii	"QuadDecoderIsr\000"
 2667      4465636F 
 2667      64657249 
 2667      737200
 2668              	.LASF20:
 2669 01b8 696E7438 		.ascii	"int8\000"
 2669      00
 2670              	.LASF71:
 2671 01bd 666C6167 		.ascii	"flag_ts_update\000"
 2671      5F74735F 
 2671      75706461 
 2671      746500
 2672              	.LASF38:
 2673 01cc 67325F79 		.ascii	"g2_ypos\000"
 2673      706F7300 
 2674              	.LASF92:
 2675 01d4 6D32436F 		.ascii	"m2Count\000"
 2675      756E7400 
 2676              	.LASF29:
 2677 01dc 67305F78 		.ascii	"g0_xpos\000"
 2677      706F7300 
 2678              	.LASF32:
 2679 01e4 67305F64 		.ascii	"g0_direction\000"
 2679      69726563 
 2679      74696F6E 
 2679      00
 2680              	.LASF43:
 2681 01f1 6D317370 		.ascii	"m1speed\000"
 2681      65656400 
 2682              	.LASF3:
 2683 01f9 5F5F7569 		.ascii	"__uint8_t\000"
 2683      6E74385F 
 2683      7400
 2684              	.LASF73:
 2685 0203 666C6167 		.ascii	"flag_ts_display\000"
 2685      5F74735F 
 2685      64697370 
 2685      6C617900 
 2686              	.LASF74:
 2687 0213 666C6167 		.ascii	"flag_rx\000"
 2687      5F727800 
 2688              	.LASF90:
 2689 021b 6368616E 		.ascii	"changeVal\000"
 2689      67655661 
 2689      6C00
 2690              	.LASF81:
 2691 0225 656E7472 		.ascii	"entry\000"
 2691      7900
 2692              	.LASF12:
 2693 022b 6C6F6E67 		.ascii	"long double\000"
 2693      20646F75 
 2693      626C6500 
 2694              	.LASF44:
ARM GAS  C:\Users\sela847\AppData\Local\Temp\ccCWOKTW.s 			page 56


 2695 0237 6D327370 		.ascii	"m2speed\000"
 2695      65656400 
 2696              	.LASF1:
 2697 023f 756E7369 		.ascii	"unsigned char\000"
 2697      676E6564 
 2697      20636861 
 2697      7200
 2698              	.LASF61:
 2699 024d 64757479 		.ascii	"duty\000"
 2699      00
 2700              	.LASF31:
 2701 0252 67305F73 		.ascii	"g0_speed\000"
 2701      70656564 
 2701      00
 2702              	.LASF77:
 2703 025b 64617461 		.ascii	"dataready_flag\000"
 2703      72656164 
 2703      795F666C 
 2703      616700
 2704              	.LASF33:
 2705 026a 67315F78 		.ascii	"g1_xpos\000"
 2705      706F7300 
 2706              	.LASF104:
 2707 0272 6368616E 		.ascii	"changeDutyCycle\000"
 2707      67654475 
 2707      74794379 
 2707      636C6500 
 2708              	.LASF17:
 2709 0282 696E7433 		.ascii	"int32_t\000"
 2709      325F7400 
 2710              	.LASF10:
 2711 028a 6C6F6E67 		.ascii	"long long unsigned int\000"
 2711      206C6F6E 
 2711      6720756E 
 2711      7369676E 
 2711      65642069 
 2712              	.LASF11:
 2713 02a1 756E7369 		.ascii	"unsigned int\000"
 2713      676E6564 
 2713      20696E74 
 2713      00
 2714              	.LASF105:
 2715 02ae 73657475 		.ascii	"setupMotor\000"
 2715      704D6F74 
 2715      6F7200
 2716              	.LASF16:
 2717 02b9 75696E74 		.ascii	"uint16_t\000"
 2717      31365F74 
 2717      00
 2718              	.LASF89:
 2719 02c2 7072696E 		.ascii	"printSpeed\000"
 2719      74537065 
 2719      656400
 2720              	.LASF42:
 2721 02cd 73706565 		.ascii	"speed\000"
 2721      6400
 2722              	.LASF39:
ARM GAS  C:\Users\sela847\AppData\Local\Temp\ccCWOKTW.s 			page 57


 2723 02d3 67325F73 		.ascii	"g2_speed\000"
 2723      70656564 
 2723      00
 2724              	.LASF76:
 2725 02dc 666C6167 		.ascii	"flag_KB_string\000"
 2725      5F4B425F 
 2725      73747269 
 2725      6E6700
 2726              	.LASF87:
 2727 02eb 74696D65 		.ascii	"timeArrayM1\000"
 2727      41727261 
 2727      794D3100 
 2728              	.LASF88:
 2729 02f7 74696D65 		.ascii	"timeArrayM2\000"
 2729      41727261 
 2729      794D3200 
 2730              	.LASF5:
 2731 0303 73686F72 		.ascii	"short unsigned int\000"
 2731      7420756E 
 2731      7369676E 
 2731      65642069 
 2731      6E7400
 2732              	.LASF57:
 2733 0316 77686565 		.ascii	"wheel2Duty\000"
 2733      6C324475 
 2733      747900
 2734              	.LASF93:
 2735 0321 73746F70 		.ascii	"stop\000"
 2735      00
 2736              	.LASF14:
 2737 0326 63686172 		.ascii	"char\000"
 2737      00
 2738              	.LASF54:
 2739 032b 6D6F746F 		.ascii	"motorControl\000"
 2739      72436F6E 
 2739      74726F6C 
 2739      00
 2740              	.LASF85:
 2741 0338 6D316D6F 		.ascii	"m1motorSpeed\000"
 2741      746F7253 
 2741      70656564 
 2741      00
 2742              	.LASF46:
 2743 0345 6D326572 		.ascii	"m2error\000"
 2743      726F7200 
 2744              	.LASF34:
 2745 034d 67315F79 		.ascii	"g1_ypos\000"
 2745      706F7300 
 2746              	.LASF40:
 2747 0355 67325F64 		.ascii	"g2_direction\000"
 2747      69726563 
 2747      74696F6E 
 2747      00
 2748              	.LASF35:
 2749 0362 67315F73 		.ascii	"g1_speed\000"
 2749      70656564 
 2749      00
ARM GAS  C:\Users\sela847\AppData\Local\Temp\ccCWOKTW.s 			page 58


 2750              	.LASF79:
 2751 036b 64697370 		.ascii	"displaystring\000"
 2751      6C617973 
 2751      7472696E 
 2751      6700
 2752              	.LASF26:
 2753 0379 726F626F 		.ascii	"robot_xpos\000"
 2753      745F7870 
 2753      6F7300
 2754              	.LASF62:
 2755 0384 62756666 		.ascii	"buffer\000"
 2755      657200
 2756              	.LASF101:
 2757 038b 6D61696E 		.ascii	"main.c\000"
 2757      2E6300
 2758              	.LASF8:
 2759 0392 6C6F6E67 		.ascii	"long unsigned int\000"
 2759      20756E73 
 2759      69676E65 
 2759      6420696E 
 2759      7400
 2760              	.LASF48:
 2761 03a4 6D325461 		.ascii	"m2Target\000"
 2761      72676574 
 2761      00
 2762              	.LASF23:
 2763 03ad 646F7562 		.ascii	"double\000"
 2763      6C6500
 2764              	.LASF84:
 2765 03b4 74696D65 		.ascii	"timeIndex\000"
 2765      496E6465 
 2765      7800
 2766              	.LASF49:
 2767 03be 6F757470 		.ascii	"outputUartIsr\000"
 2767      75745561 
 2767      72744973 
 2767      7200
 2768              	.LASF55:
 2769 03cc 636F6E74 		.ascii	"controlWheels\000"
 2769      726F6C57 
 2769      6865656C 
 2769      7300
 2770              	.LASF58:
 2771 03da 636F6D70 		.ascii	"compareValue1\000"
 2771      61726556 
 2771      616C7565 
 2771      3100
 2772              	.LASF59:
 2773 03e8 636F6D70 		.ascii	"compareValue2\000"
 2773      61726556 
 2773      616C7565 
 2773      3200
 2774              	.LASF56:
 2775 03f6 77686565 		.ascii	"wheel1Duty\000"
 2775      6C314475 
 2775      747900
 2776              	.LASF70:
ARM GAS  C:\Users\sela847\AppData\Local\Temp\ccCWOKTW.s 			page 59


 2777 0401 666C6167 		.ascii	"flag_ts_enc\000"
 2777      5F74735F 
 2777      656E6300 
 2778              	.LASF6:
 2779 040d 5F5F696E 		.ascii	"__int32_t\000"
 2779      7433325F 
 2779      7400
 2780              	.LASF98:
 2781 0417 6D31436F 		.ascii	"m1Comp\000"
 2781      6D7000
 2782              	.LASF15:
 2783 041e 75696E74 		.ascii	"uint8_t\000"
 2783      385F7400 
 2784              	.LASF96:
 2785 0426 706F734C 		.ascii	"posL\000"
 2785      00
 2786              	.LASF30:
 2787 042b 67305F79 		.ascii	"g0_ypos\000"
 2787      706F7300 
 2788              	.LASF91:
 2789 0433 6D31436F 		.ascii	"m1Count\000"
 2789      756E7400 
 2790              	.LASF69:
 2791 043b 74735F64 		.ascii	"ts_display\000"
 2791      6973706C 
 2791      617900
 2792              	.LASF97:
 2793 0446 706F7352 		.ascii	"posR\000"
 2793      00
 2794              	.LASF68:
 2795 044b 74735F73 		.ascii	"ts_speed\000"
 2795      70656564 
 2795      00
 2796              	.LASF67:
 2797 0454 74735F75 		.ascii	"ts_update\000"
 2797      70646174 
 2797      6500
 2798              	.LASF78:
 2799 045e 666C6167 		.ascii	"flag_rf_transmission_active\000"
 2799      5F72665F 
 2799      7472616E 
 2799      736D6973 
 2799      73696F6E 
 2800              	.LASF27:
 2801 047a 726F626F 		.ascii	"robot_ypos\000"
 2801      745F7970 
 2801      6F7300
 2802              	.LASF7:
 2803 0485 6C6F6E67 		.ascii	"long int\000"
 2803      20696E74 
 2803      00
 2804              	.LASF65:
 2805 048e 49544D5F 		.ascii	"ITM_RxBuffer\000"
 2805      52784275 
 2805      66666572 
 2805      00
 2806              	.LASF53:
ARM GAS  C:\Users\sela847\AppData\Local\Temp\ccCWOKTW.s 			page 60


 2807 049b 64757479 		.ascii	"dutyValue\000"
 2807      56616C75 
 2807      6500
 2808              	.LASF24:
 2809 04a5 72737369 		.ascii	"rssi\000"
 2809      00
 2810              	.LASF28:
 2811 04aa 726F626F 		.ascii	"robot_orientation\000"
 2811      745F6F72 
 2811      69656E74 
 2811      6174696F 
 2811      6E00
 2812              	.LASF102:
 2813 04bc 483A5C44 		.ascii	"H:\\Documents\\12_Cypress_LineFollowingRobot\\Rober"
 2813      6F63756D 
 2813      656E7473 
 2813      5C31325F 
 2813      43797072 
 2814 04ec 745C4841 		.ascii	"t\\HArdware_Task2\\Hardware_Task2.cydsn\000"
 2814      72647761 
 2814      72655F54 
 2814      61736B32 
 2814      5C486172 
 2815              		.ident	"GCC: (GNU Tools for ARM Embedded Processors) 5.4.1 20160609 (release) [ARM/embedded-5-bran
