ARM GAS  C:\Users\sela847\AppData\Local\Temp\cccHm1T9.s 			page 1


   1              		.syntax unified
   2              		.cpu cortex-m3
   3              		.fpu softvfp
   4              		.eabi_attribute 20, 1
   5              		.eabi_attribute 21, 1
   6              		.eabi_attribute 23, 3
   7              		.eabi_attribute 24, 1
   8              		.eabi_attribute 25, 1
   9              		.eabi_attribute 26, 1
  10              		.eabi_attribute 30, 6
  11              		.eabi_attribute 34, 1
  12              		.eabi_attribute 18, 4
  13              		.thumb
  14              		.syntax unified
  15              		.file	"main.c"
  16              		.text
  17              	.Ltext0:
  18              		.cfi_sections	.debug_frame
  19              		.global	ts
  20              		.bss
  21              		.type	ts, %object
  22              		.size	ts, 1
  23              	ts:
  24 0000 00       		.space	1
  25              		.global	ts_enc
  26 0001 00       		.align	1
  27              		.type	ts_enc, %object
  28              		.size	ts_enc, 2
  29              	ts_enc:
  30 0002 0000     		.space	2
  31              		.global	ts_update
  32              		.align	1
  33              		.type	ts_update, %object
  34              		.size	ts_update, 2
  35              	ts_update:
  36 0004 0000     		.space	2
  37              		.global	ts_speed
  38              		.align	1
  39              		.type	ts_speed, %object
  40              		.size	ts_speed, 2
  41              	ts_speed:
  42 0006 0000     		.space	2
  43              		.global	ts_display
  44              		.align	1
  45              		.type	ts_display, %object
  46              		.size	ts_display, 2
  47              	ts_display:
  48 0008 0000     		.space	2
  49              		.global	flag_ts_enc
  50              		.type	flag_ts_enc, %object
  51              		.size	flag_ts_enc, 1
  52              	flag_ts_enc:
  53 000a 00       		.space	1
  54              		.global	flag_ts_update
  55              		.type	flag_ts_update, %object
  56              		.size	flag_ts_update, 1
  57              	flag_ts_update:
ARM GAS  C:\Users\sela847\AppData\Local\Temp\cccHm1T9.s 			page 2


  58 000b 00       		.space	1
  59              		.global	flag_ts_speed
  60              		.type	flag_ts_speed, %object
  61              		.size	flag_ts_speed, 1
  62              	flag_ts_speed:
  63 000c 00       		.space	1
  64              		.global	flag_ts_display
  65              		.type	flag_ts_display, %object
  66              		.size	flag_ts_display, 1
  67              	flag_ts_display:
  68 000d 00       		.space	1
  69              		.global	flag_rx
  70              		.type	flag_rx, %object
  71              		.size	flag_rx, 1
  72              	flag_rx:
  73 000e 00       		.space	1
  74              		.global	flag_packet
  75              		.type	flag_packet, %object
  76              		.size	flag_packet, 1
  77              	flag_packet:
  78 000f 00       		.space	1
  79              		.global	flag_KB_string
  80              		.type	flag_KB_string, %object
  81              		.size	flag_KB_string, 1
  82              	flag_KB_string:
  83 0010 00       		.space	1
  84              		.global	dataready_flag
  85              		.type	dataready_flag, %object
  86              		.size	dataready_flag, 1
  87              	dataready_flag:
  88 0011 00       		.space	1
  89              		.global	flag_rf_transmission_active
  90              		.data
  91              		.type	flag_rf_transmission_active, %object
  92              		.size	flag_rf_transmission_active, 1
  93              	flag_rf_transmission_active:
  94 0000 0A       		.byte	10
  95              		.global	displaystring
  96 0001 000000   		.align	2
  97              		.type	displaystring, %object
  98              		.size	displaystring, 64
  99              	displaystring:
 100 0004 43533330 		.ascii	"CS301 2016\012\000"
 100      31203230 
 100      31360A00 
 101 0010 00000000 		.space	52
 101      00000000 
 101      00000000 
 101      00000000 
 101      00000000 
 102              		.comm	line,64,4
 103              		.comm	entry,64,4
 104              		.comm	usbBuffer,64,4
 105              		.comm	system_state,32,4
 106              		.global	timeIndex
 107              		.bss
 108              		.type	timeIndex, %object
ARM GAS  C:\Users\sela847\AppData\Local\Temp\cccHm1T9.s 			page 3


 109              		.size	timeIndex, 1
 110              	timeIndex:
 111 0012 00       		.space	1
 112              		.comm	timeArrayM1,4,4
 113              		.comm	timeArrayM2,4,4
 114              		.global	printSpeed
 115              		.type	printSpeed, %object
 116              		.size	printSpeed, 1
 117              	printSpeed:
 118 0013 00       		.space	1
 119              		.global	changeVal
 120              		.type	changeVal, %object
 121              		.size	changeVal, 1
 122              	changeVal:
 123 0014 00       		.space	1
 124              		.section	.text.outputUartIsr,"ax",%progbits
 125              		.align	2
 126              		.global	outputUartIsr
 127              		.thumb
 128              		.thumb_func
 129              		.type	outputUartIsr, %function
 130              	outputUartIsr:
 131              	.LFB64:
 132              		.file 1 "main.c"
   1:main.c        **** /* ========================================
   2:main.c        ****  * Fully working code: 
   3:main.c        ****  * PWM      : 
   4:main.c        ****  * Encoder  : 
   5:main.c        ****  * ADC      :
   6:main.c        ****  * USB      : port displays speed and position.
   7:main.c        ****  * CMD: "PW xx"
   8:main.c        ****  * Copyright Univ of Auckland, 2016
   9:main.c        ****  * All Rights Reserved
  10:main.c        ****  * UNPUBLISHED, LICENSED SOFTWARE.
  11:main.c        ****  *
  12:main.c        ****  * CONFIDENTIAL AND PROPRIETARY INFORMATION
  13:main.c        ****  * WHICH IS THE PROPERTY OF Univ of Auckland.
  14:main.c        ****  *
  15:main.c        ****  * ========================================
  16:main.c        **** */
  17:main.c        **** #include <stdio.h>
  18:main.c        **** #include <string.h>
  19:main.c        **** #include <stdlib.h>
  20:main.c        **** #include <project.h>
  21:main.c        **** #include <math.h>
  22:main.c        **** //* ========================================
  23:main.c        **** #include "defines.h"
  24:main.c        **** #include "vars.h"
  25:main.c        **** //* ========================================
  26:main.c        **** void usbPutString(char *s);
  27:main.c        **** void usbPutChar(char c);
  28:main.c        **** void handle_usb();
  29:main.c        **** //* ========================================
  30:main.c        **** uint8_t timeIndex = 0;
  31:main.c        **** uint16_t timeArrayM1[2];
  32:main.c        **** uint16_t timeArrayM2[2];
  33:main.c        **** uint8_t printSpeed = 0;
ARM GAS  C:\Users\sela847\AppData\Local\Temp\cccHm1T9.s 			page 4


  34:main.c        **** uint8_t changeVal = 0;
  35:main.c        **** 
  36:main.c        **** 
  37:main.c        **** //Interupts
  38:main.c        **** CY_ISR(outputUartIsr) {
 133              		.loc 1 38 0
 134              		.cfi_startproc
 135              		@ args = 0, pretend = 0, frame = 0
 136              		@ frame_needed = 1, uses_anonymous_args = 0
 137 0000 80B5     		push	{r7, lr}
 138              		.cfi_def_cfa_offset 8
 139              		.cfi_offset 7, -8
 140              		.cfi_offset 14, -4
 141 0002 00AF     		add	r7, sp, #0
 142              		.cfi_def_cfa_register 7
  39:main.c        ****     printSpeed = 1; // Print the speed every like 200ms
 143              		.loc 1 39 0
 144 0004 034B     		ldr	r3, .L2
 145 0006 0122     		movs	r2, #1
 146 0008 1A70     		strb	r2, [r3]
  40:main.c        ****     
  41:main.c        ****     Timer_TS_ReadStatusRegister();   
 147              		.loc 1 41 0
 148 000a FFF7FEFF 		bl	Timer_TS_ReadStatusRegister
  42:main.c        **** }
 149              		.loc 1 42 0
 150 000e 00BF     		nop
 151 0010 80BD     		pop	{r7, pc}
 152              	.L3:
 153 0012 00BF     		.align	2
 154              	.L2:
 155 0014 00000000 		.word	printSpeed
 156              		.cfi_endproc
 157              	.LFE64:
 158              		.size	outputUartIsr, .-outputUartIsr
 159              		.section	.text.QuadDecoderIsr,"ax",%progbits
 160              		.align	2
 161              		.global	QuadDecoderIsr
 162              		.thumb
 163              		.thumb_func
 164              		.type	QuadDecoderIsr, %function
 165              	QuadDecoderIsr:
 166              	.LFB65:
  43:main.c        **** CY_ISR(QuadDecoderIsr){
 167              		.loc 1 43 0
 168              		.cfi_startproc
 169              		@ args = 0, pretend = 0, frame = 0
 170              		@ frame_needed = 1, uses_anonymous_args = 0
 171 0000 80B5     		push	{r7, lr}
 172              		.cfi_def_cfa_offset 8
 173              		.cfi_offset 7, -8
 174              		.cfi_offset 14, -4
 175 0002 00AF     		add	r7, sp, #0
 176              		.cfi_def_cfa_register 7
  44:main.c        ****     if (timeIndex == 0){
 177              		.loc 1 44 0
 178 0004 154B     		ldr	r3, .L7
ARM GAS  C:\Users\sela847\AppData\Local\Temp\cccHm1T9.s 			page 5


 179 0006 1B78     		ldrb	r3, [r3]	@ zero_extendqisi2
 180 0008 002B     		cmp	r3, #0
 181 000a 0FD1     		bne	.L5
  45:main.c        ****         timeArrayM1[0] = QuadDec_M1_GetCounter();
 182              		.loc 1 45 0
 183 000c FFF7FEFF 		bl	QuadDec_M1_GetCounter
 184 0010 0346     		mov	r3, r0
 185 0012 9AB2     		uxth	r2, r3
 186 0014 124B     		ldr	r3, .L7+4
 187 0016 1A80     		strh	r2, [r3]	@ movhi
  46:main.c        ****         timeArrayM2[0] = QuadDec_M2_GetCounter();
 188              		.loc 1 46 0
 189 0018 FFF7FEFF 		bl	QuadDec_M2_GetCounter
 190 001c 0346     		mov	r3, r0
 191 001e 9AB2     		uxth	r2, r3
 192 0020 104B     		ldr	r3, .L7+8
 193 0022 1A80     		strh	r2, [r3]	@ movhi
  47:main.c        ****         timeIndex = 1;
 194              		.loc 1 47 0
 195 0024 0D4B     		ldr	r3, .L7
 196 0026 0122     		movs	r2, #1
 197 0028 1A70     		strb	r2, [r3]
 198 002a 13E0     		b	.L6
 199              	.L5:
  48:main.c        ****     } else {
  49:main.c        ****         timeArrayM1[1] = QuadDec_M1_GetCounter();
 200              		.loc 1 49 0
 201 002c FFF7FEFF 		bl	QuadDec_M1_GetCounter
 202 0030 0346     		mov	r3, r0
 203 0032 9AB2     		uxth	r2, r3
 204 0034 0A4B     		ldr	r3, .L7+4
 205 0036 5A80     		strh	r2, [r3, #2]	@ movhi
  50:main.c        ****         timeArrayM2[1] = QuadDec_M2_GetCounter();
 206              		.loc 1 50 0
 207 0038 FFF7FEFF 		bl	QuadDec_M2_GetCounter
 208 003c 0346     		mov	r3, r0
 209 003e 9AB2     		uxth	r2, r3
 210 0040 084B     		ldr	r3, .L7+8
 211 0042 5A80     		strh	r2, [r3, #2]	@ movhi
  51:main.c        ****         timeIndex = 0;
 212              		.loc 1 51 0
 213 0044 054B     		ldr	r3, .L7
 214 0046 0022     		movs	r2, #0
 215 0048 1A70     		strb	r2, [r3]
  52:main.c        ****         changeVal = 1;   
 216              		.loc 1 52 0
 217 004a 074B     		ldr	r3, .L7+12
 218 004c 0122     		movs	r2, #1
 219 004e 1A70     		strb	r2, [r3]
  53:main.c        ****         Quad_TImer_Start();
 220              		.loc 1 53 0
 221 0050 FFF7FEFF 		bl	Quad_TImer_Start
 222              	.L6:
  54:main.c        ****        
  55:main.c        ****     }
  56:main.c        ****     Quad_TImer_ReadStatusRegister();
 223              		.loc 1 56 0
ARM GAS  C:\Users\sela847\AppData\Local\Temp\cccHm1T9.s 			page 6


 224 0054 FFF7FEFF 		bl	Quad_TImer_ReadStatusRegister
  57:main.c        **** }
 225              		.loc 1 57 0
 226 0058 00BF     		nop
 227 005a 80BD     		pop	{r7, pc}
 228              	.L8:
 229              		.align	2
 230              	.L7:
 231 005c 00000000 		.word	timeIndex
 232 0060 00000000 		.word	timeArrayM1
 233 0064 00000000 		.word	timeArrayM2
 234 0068 00000000 		.word	changeVal
 235              		.cfi_endproc
 236              	.LFE65:
 237              		.size	QuadDecoderIsr, .-QuadDecoderIsr
 238              		.global	__aeabi_ui2f
 239              		.global	__aeabi_f2d
 240              		.global	__aeabi_i2d
 241              		.global	__aeabi_ddiv
 242              		.global	__aeabi_dmul
 243              		.global	__aeabi_d2uiz
 244              		.section	.text.changeDutyCycle,"ax",%progbits
 245              		.align	2
 246              		.global	changeDutyCycle
 247              		.thumb
 248              		.thumb_func
 249              		.type	changeDutyCycle, %function
 250              	changeDutyCycle:
 251              	.LFB66:
  58:main.c        **** 
  59:main.c        **** 
  60:main.c        **** uint8_t changeDutyCycle(uint8_t dutyValue){
 252              		.loc 1 60 0
 253              		.cfi_startproc
 254              		@ args = 0, pretend = 0, frame = 16
 255              		@ frame_needed = 1, uses_anonymous_args = 0
 256 0000 B0B5     		push	{r4, r5, r7, lr}
 257              		.cfi_def_cfa_offset 16
 258              		.cfi_offset 4, -16
 259              		.cfi_offset 5, -12
 260              		.cfi_offset 7, -8
 261              		.cfi_offset 14, -4
 262 0002 84B0     		sub	sp, sp, #16
 263              		.cfi_def_cfa_offset 32
 264 0004 00AF     		add	r7, sp, #0
 265              		.cfi_def_cfa_register 7
 266 0006 0346     		mov	r3, r0
 267 0008 FB71     		strb	r3, [r7, #7]
  61:main.c        **** 
  62:main.c        ****     uint8_t val = ((float)PWM_1_ReadPeriod() * (dutyValue/100.0));
 268              		.loc 1 62 0
 269 000a FFF7FEFF 		bl	PWM_1_ReadPeriod
 270 000e 0346     		mov	r3, r0
 271 0010 1846     		mov	r0, r3
 272 0012 FFF7FEFF 		bl	__aeabi_ui2f
 273 0016 0346     		mov	r3, r0
 274 0018 1846     		mov	r0, r3
ARM GAS  C:\Users\sela847\AppData\Local\Temp\cccHm1T9.s 			page 7


 275 001a FFF7FEFF 		bl	__aeabi_f2d
 276 001e 0446     		mov	r4, r0
 277 0020 0D46     		mov	r5, r1
 278 0022 FB79     		ldrb	r3, [r7, #7]	@ zero_extendqisi2
 279 0024 1846     		mov	r0, r3
 280 0026 FFF7FEFF 		bl	__aeabi_i2d
 281 002a 4FF00002 		mov	r2, #0
 282 002e 0F4B     		ldr	r3, .L11
 283 0030 FFF7FEFF 		bl	__aeabi_ddiv
 284 0034 0246     		mov	r2, r0
 285 0036 0B46     		mov	r3, r1
 286 0038 2046     		mov	r0, r4
 287 003a 2946     		mov	r1, r5
 288 003c FFF7FEFF 		bl	__aeabi_dmul
 289 0040 0346     		mov	r3, r0
 290 0042 0C46     		mov	r4, r1
 291 0044 1846     		mov	r0, r3
 292 0046 2146     		mov	r1, r4
 293 0048 FFF7FEFF 		bl	__aeabi_d2uiz
 294 004c 0346     		mov	r3, r0
 295 004e FB73     		strb	r3, [r7, #15]
  63:main.c        ****     PWM_1_WriteCompare(val);
 296              		.loc 1 63 0
 297 0050 FB7B     		ldrb	r3, [r7, #15]	@ zero_extendqisi2
 298 0052 1846     		mov	r0, r3
 299 0054 FFF7FEFF 		bl	PWM_1_WriteCompare
  64:main.c        ****     PWM_2_WriteCompare(val);
 300              		.loc 1 64 0
 301 0058 FB7B     		ldrb	r3, [r7, #15]	@ zero_extendqisi2
 302 005a 1846     		mov	r0, r3
 303 005c FFF7FEFF 		bl	PWM_2_WriteCompare
  65:main.c        ****     return val;
 304              		.loc 1 65 0
 305 0060 FB7B     		ldrb	r3, [r7, #15]	@ zero_extendqisi2
  66:main.c        **** }
 306              		.loc 1 66 0
 307 0062 1846     		mov	r0, r3
 308 0064 1037     		adds	r7, r7, #16
 309              		.cfi_def_cfa_offset 16
 310 0066 BD46     		mov	sp, r7
 311              		.cfi_def_cfa_register 13
 312              		@ sp needed
 313 0068 B0BD     		pop	{r4, r5, r7, pc}
 314              	.L12:
 315 006a 00BF     		.align	2
 316              	.L11:
 317 006c 00005940 		.word	1079574528
 318              		.cfi_endproc
 319              	.LFE66:
 320              		.size	changeDutyCycle, .-changeDutyCycle
 321              		.section	.text.controlWheels,"ax",%progbits
 322              		.align	2
 323              		.global	controlWheels
 324              		.thumb
 325              		.thumb_func
 326              		.type	controlWheels, %function
 327              	controlWheels:
ARM GAS  C:\Users\sela847\AppData\Local\Temp\cccHm1T9.s 			page 8


 328              	.LFB67:
  67:main.c        **** 
  68:main.c        **** void controlWheels(uint8_t wheel1Duty, uint8_t wheel2Duty){
 329              		.loc 1 68 0
 330              		.cfi_startproc
 331              		@ args = 0, pretend = 0, frame = 16
 332              		@ frame_needed = 1, uses_anonymous_args = 0
 333 0000 B0B5     		push	{r4, r5, r7, lr}
 334              		.cfi_def_cfa_offset 16
 335              		.cfi_offset 4, -16
 336              		.cfi_offset 5, -12
 337              		.cfi_offset 7, -8
 338              		.cfi_offset 14, -4
 339 0002 84B0     		sub	sp, sp, #16
 340              		.cfi_def_cfa_offset 32
 341 0004 00AF     		add	r7, sp, #0
 342              		.cfi_def_cfa_register 7
 343 0006 0346     		mov	r3, r0
 344 0008 0A46     		mov	r2, r1
 345 000a FB71     		strb	r3, [r7, #7]
 346 000c 1346     		mov	r3, r2
 347 000e BB71     		strb	r3, [r7, #6]
  69:main.c        ****     
  70:main.c        ****     //find the compare value, i.e count number of each PWM
  71:main.c        ****     uint8_t compareValue1 = ((float)PWM_1_ReadPeriod() * (wheel1Duty/100.0));
 348              		.loc 1 71 0
 349 0010 FFF7FEFF 		bl	PWM_1_ReadPeriod
 350 0014 0346     		mov	r3, r0
 351 0016 1846     		mov	r0, r3
 352 0018 FFF7FEFF 		bl	__aeabi_ui2f
 353 001c 0346     		mov	r3, r0
 354 001e 1846     		mov	r0, r3
 355 0020 FFF7FEFF 		bl	__aeabi_f2d
 356 0024 0446     		mov	r4, r0
 357 0026 0D46     		mov	r5, r1
 358 0028 FB79     		ldrb	r3, [r7, #7]	@ zero_extendqisi2
 359 002a 1846     		mov	r0, r3
 360 002c FFF7FEFF 		bl	__aeabi_i2d
 361 0030 4FF00002 		mov	r2, #0
 362 0034 1F4B     		ldr	r3, .L14
 363 0036 FFF7FEFF 		bl	__aeabi_ddiv
 364 003a 0246     		mov	r2, r0
 365 003c 0B46     		mov	r3, r1
 366 003e 2046     		mov	r0, r4
 367 0040 2946     		mov	r1, r5
 368 0042 FFF7FEFF 		bl	__aeabi_dmul
 369 0046 0346     		mov	r3, r0
 370 0048 0C46     		mov	r4, r1
 371 004a 1846     		mov	r0, r3
 372 004c 2146     		mov	r1, r4
 373 004e FFF7FEFF 		bl	__aeabi_d2uiz
 374 0052 0346     		mov	r3, r0
 375 0054 FB73     		strb	r3, [r7, #15]
  72:main.c        ****     uint8_t compareValue2 = ((float)PWM_2_ReadPeriod() * (wheel2Duty/100.0));
 376              		.loc 1 72 0
 377 0056 FFF7FEFF 		bl	PWM_2_ReadPeriod
 378 005a 0346     		mov	r3, r0
ARM GAS  C:\Users\sela847\AppData\Local\Temp\cccHm1T9.s 			page 9


 379 005c 1846     		mov	r0, r3
 380 005e FFF7FEFF 		bl	__aeabi_ui2f
 381 0062 0346     		mov	r3, r0
 382 0064 1846     		mov	r0, r3
 383 0066 FFF7FEFF 		bl	__aeabi_f2d
 384 006a 0446     		mov	r4, r0
 385 006c 0D46     		mov	r5, r1
 386 006e BB79     		ldrb	r3, [r7, #6]	@ zero_extendqisi2
 387 0070 1846     		mov	r0, r3
 388 0072 FFF7FEFF 		bl	__aeabi_i2d
 389 0076 4FF00002 		mov	r2, #0
 390 007a 0E4B     		ldr	r3, .L14
 391 007c FFF7FEFF 		bl	__aeabi_ddiv
 392 0080 0246     		mov	r2, r0
 393 0082 0B46     		mov	r3, r1
 394 0084 2046     		mov	r0, r4
 395 0086 2946     		mov	r1, r5
 396 0088 FFF7FEFF 		bl	__aeabi_dmul
 397 008c 0346     		mov	r3, r0
 398 008e 0C46     		mov	r4, r1
 399 0090 1846     		mov	r0, r3
 400 0092 2146     		mov	r1, r4
 401 0094 FFF7FEFF 		bl	__aeabi_d2uiz
 402 0098 0346     		mov	r3, r0
 403 009a BB73     		strb	r3, [r7, #14]
  73:main.c        ****     //set the PWM to the found value
  74:main.c        ****     PWM_1_WriteCompare(compareValue1);
 404              		.loc 1 74 0
 405 009c FB7B     		ldrb	r3, [r7, #15]	@ zero_extendqisi2
 406 009e 1846     		mov	r0, r3
 407 00a0 FFF7FEFF 		bl	PWM_1_WriteCompare
  75:main.c        ****     PWM_2_WriteCompare(compareValue2);
 408              		.loc 1 75 0
 409 00a4 BB7B     		ldrb	r3, [r7, #14]	@ zero_extendqisi2
 410 00a6 1846     		mov	r0, r3
 411 00a8 FFF7FEFF 		bl	PWM_2_WriteCompare
  76:main.c        ****  
  77:main.c        **** }
 412              		.loc 1 77 0
 413 00ac 00BF     		nop
 414 00ae 1037     		adds	r7, r7, #16
 415              		.cfi_def_cfa_offset 16
 416 00b0 BD46     		mov	sp, r7
 417              		.cfi_def_cfa_register 13
 418              		@ sp needed
 419 00b2 B0BD     		pop	{r4, r5, r7, pc}
 420              	.L15:
 421              		.align	2
 422              	.L14:
 423 00b4 00005940 		.word	1079574528
 424              		.cfi_endproc
 425              	.LFE67:
 426              		.size	controlWheels, .-controlWheels
 427              		.global	__aeabi_fdiv
 428              		.global	__aeabi_fcmpgt
 429              		.global	__aeabi_fsub
 430              		.global	__aeabi_f2uiz
ARM GAS  C:\Users\sela847\AppData\Local\Temp\cccHm1T9.s 			page 10


 431              		.global	__aeabi_fcmplt
 432              		.global	__aeabi_f2iz
 433              		.section	.rodata
 434              		.align	2
 435              	.LC0:
 436 0000 0D0A2065 		.ascii	"\015\012 end \015\012\000"
 436      6E64200D 
 436      0A00
 437              		.section	.text.main,"ax",%progbits
 438              		.align	2
 439              		.global	main
 440              		.thumb
 441              		.thumb_func
 442              		.type	main, %function
 443              	main:
 444              	.LFB68:
  78:main.c        **** 
  79:main.c        **** 
  80:main.c        **** int main(){
 445              		.loc 1 80 0
 446              		.cfi_startproc
 447              		@ args = 0, pretend = 0, frame = 88
 448              		@ frame_needed = 1, uses_anonymous_args = 0
 449 0000 80B5     		push	{r7, lr}
 450              		.cfi_def_cfa_offset 8
 451              		.cfi_offset 7, -8
 452              		.cfi_offset 14, -4
 453 0002 96B0     		sub	sp, sp, #88
 454              		.cfi_def_cfa_offset 96
 455 0004 00AF     		add	r7, sp, #0
 456              		.cfi_def_cfa_register 7
  81:main.c        ****     M2_INV_Write(1);
 457              		.loc 1 81 0
 458 0006 0120     		movs	r0, #1
 459 0008 FFF7FEFF 		bl	M2_INV_Write
  82:main.c        ****     // Count = 
  83:main.c        ****     uint16_t reqCount = (float) SPEED_WANTED * (float) 0.03 * (float) 114.0 * (float) CY_M_PI * (fl
 460              		.loc 1 83 0
 461 000c 4FF46B73 		mov	r3, #940
 462 0010 A7F84E30 		strh	r3, [r7, #78]	@ movhi
  84:main.c        ****     //PWM1
  85:main.c        ****     PWM_1_Start();
 463              		.loc 1 85 0
 464 0014 FFF7FEFF 		bl	PWM_1_Start
  86:main.c        ****     //PWM2
  87:main.c        ****     PWM_2_Start();   
 465              		.loc 1 87 0
 466 0018 FFF7FEFF 		bl	PWM_2_Start
  88:main.c        ****     uint8_t duty = 100;
 467              		.loc 1 88 0
 468 001c 6423     		movs	r3, #100
 469 001e 87F85730 		strb	r3, [r7, #87]
  89:main.c        ****     changeDutyCycle(duty);
 470              		.loc 1 89 0
 471 0022 97F85730 		ldrb	r3, [r7, #87]	@ zero_extendqisi2
 472 0026 1846     		mov	r0, r3
 473 0028 FFF7FEFF 		bl	changeDutyCycle
ARM GAS  C:\Users\sela847\AppData\Local\Temp\cccHm1T9.s 			page 11


  90:main.c        ****     #ifdef USE_USB
  91:main.c        ****         USBUART_Start(0,USBUART_5V_OPERATION);
 474              		.loc 1 91 0
 475 002c 0121     		movs	r1, #1
 476 002e 0020     		movs	r0, #0
 477 0030 FFF7FEFF 		bl	USBUART_Start
  92:main.c        ****     #endif
  93:main.c        ****     uint16_t m1counts = 0;
 478              		.loc 1 93 0
 479 0034 0023     		movs	r3, #0
 480 0036 A7F84C30 		strh	r3, [r7, #76]	@ movhi
  94:main.c        ****     uint16_t m2counts = 0;
 481              		.loc 1 94 0
 482 003a 0023     		movs	r3, #0
 483 003c A7F84A30 		strh	r3, [r7, #74]	@ movhi
  95:main.c        ****     float speed = 0;
 484              		.loc 1 95 0
 485 0040 4FF00003 		mov	r3, #0
 486 0044 3B65     		str	r3, [r7, #80]	@ float
  96:main.c        ****     float distance = 0;
 487              		.loc 1 96 0
 488 0046 4FF00003 		mov	r3, #0
 489 004a 7B64     		str	r3, [r7, #68]	@ float
  97:main.c        ****     QuadDec_M1_Start();
 490              		.loc 1 97 0
 491 004c FFF7FEFF 		bl	QuadDec_M1_Start
  98:main.c        ****     QuadDec_M2_Start();
 492              		.loc 1 98 0
 493 0050 FFF7FEFF 		bl	QuadDec_M2_Start
  99:main.c        ****     
 100:main.c        ****     //QuadEncoder initialisation
 101:main.c        ****     isr_quad_timer_StartEx(QuadDecoderIsr);
 494              		.loc 1 101 0
 495 0054 5248     		ldr	r0, .L33
 496 0056 FFF7FEFF 		bl	isr_quad_timer_StartEx
 102:main.c        ****     isr_TS_StartEx(outputUartIsr);
 497              		.loc 1 102 0
 498 005a 5248     		ldr	r0, .L33+4
 499 005c FFF7FEFF 		bl	isr_TS_StartEx
 103:main.c        ****     Timer_TS_Start();
 500              		.loc 1 103 0
 501 0060 FFF7FEFF 		bl	Timer_TS_Start
 104:main.c        ****     Quad_TImer_Start();
 502              		.loc 1 104 0
 503 0064 FFF7FEFF 		bl	Quad_TImer_Start
 105:main.c        ****     
 106:main.c        **** 
 107:main.c        **** // --------------------------------    
 108:main.c        **** // ----- INITIALIZATIONS ----------
 109:main.c        ****     CYGlobalIntEnable;    
 504              		.loc 1 109 0
 505              		.syntax unified
 506              	@ 109 "main.c" 1
 507 0068 62B6     		CPSIE   i
 508              	@ 0 "" 2
 509              		.thumb
 510              		.syntax unified
ARM GAS  C:\Users\sela847\AppData\Local\Temp\cccHm1T9.s 			page 12


 511              	.L29:
 512              	.LBB2:
 110:main.c        ****     for(;;)
 111:main.c        ****     {
 112:main.c        ****         
 113:main.c        ****         char buffer [64];
 114:main.c        ****         //QuadEncoder icode
 115:main.c        ****         if (changeVal == 1){
 513              		.loc 1 115 0
 514 006a 4F4B     		ldr	r3, .L33+8
 515 006c 1B78     		ldrb	r3, [r3]	@ zero_extendqisi2
 516 006e 012B     		cmp	r3, #1
 517 0070 7DD1     		bne	.L17
 116:main.c        ****             m1counts = timeArrayM1[1] - timeArrayM1[0]; // Tells us how many counts occured in 30ms
 518              		.loc 1 116 0
 519 0072 4E4B     		ldr	r3, .L33+12
 520 0074 5A88     		ldrh	r2, [r3, #2]
 521 0076 4D4B     		ldr	r3, .L33+12
 522 0078 1B88     		ldrh	r3, [r3]
 523 007a D31A     		subs	r3, r2, r3
 524 007c A7F84C30 		strh	r3, [r7, #76]	@ movhi
 117:main.c        ****             m2counts = timeArrayM2[1] - timeArrayM2[0];
 525              		.loc 1 117 0
 526 0080 4B4B     		ldr	r3, .L33+16
 527 0082 5A88     		ldrh	r2, [r3, #2]
 528 0084 4A4B     		ldr	r3, .L33+16
 529 0086 1B88     		ldrh	r3, [r3]
 530 0088 D31A     		subs	r3, r2, r3
 531 008a A7F84A30 		strh	r3, [r7, #74]	@ movhi
 118:main.c        ****             // Gears are 19:1, therefore 19 * 3 counts means one full rotation, we only have speed 
 119:main.c        ****             // Therefore = counts/19 of a wheel rotation: counts/57 * 2pi * r = circumference moved
 120:main.c        ****             distance = (float)m1counts/(float)((float)(57.0 * 2.0) *(float)((float) CY_M_PI * 3.5))
 532              		.loc 1 120 0
 533 008e B7F84C30 		ldrh	r3, [r7, #76]
 534 0092 1846     		mov	r0, r3
 535 0094 FFF7FEFF 		bl	__aeabi_ui2f
 536 0098 0346     		mov	r3, r0
 537 009a 4649     		ldr	r1, .L33+20
 538 009c 1846     		mov	r0, r3
 539 009e FFF7FEFF 		bl	__aeabi_fdiv
 540 00a2 0346     		mov	r3, r0
 541 00a4 7B64     		str	r3, [r7, #68]	@ float
 121:main.c        ****             speed =  (float)distance / (float) 0.03;
 542              		.loc 1 121 0
 543 00a6 4449     		ldr	r1, .L33+24
 544 00a8 786C     		ldr	r0, [r7, #68]	@ float
 545 00aa FFF7FEFF 		bl	__aeabi_fdiv
 546 00ae 0346     		mov	r3, r0
 547 00b0 3B65     		str	r3, [r7, #80]	@ float
 122:main.c        ****             if (speed > SPEED_WANTED) { // If we are currently going faster than needed, reduce the
 548              		.loc 1 122 0
 549 00b2 4249     		ldr	r1, .L33+28
 550 00b4 386D     		ldr	r0, [r7, #80]	@ float
 551 00b6 FFF7FEFF 		bl	__aeabi_fcmpgt
 552 00ba 0346     		mov	r3, r0
 553 00bc 002B     		cmp	r3, #0
 554 00be 26D0     		beq	.L32
ARM GAS  C:\Users\sela847\AppData\Local\Temp\cccHm1T9.s 			page 13


 555              	.LBB3:
 123:main.c        ****                 
 124:main.c        ****                 
 125:main.c        ****                 // INSTEAD OF DOING BY DUTY CYCLE WE COULD TRY ADD THE ERROR TO THE COMPARE VALUE I
 126:main.c        ****                 uint16_t error = speed - SPEED_WANTED; // (m/s to count = error * 0.03 * 114.0 * pi
 556              		.loc 1 126 0
 557 00c0 3E49     		ldr	r1, .L33+28
 558 00c2 386D     		ldr	r0, [r7, #80]	@ float
 559 00c4 FFF7FEFF 		bl	__aeabi_fsub
 560 00c8 0346     		mov	r3, r0
 561 00ca 1846     		mov	r0, r3
 562 00cc FFF7FEFF 		bl	__aeabi_f2uiz
 563 00d0 0346     		mov	r3, r0
 564 00d2 A7F84230 		strh	r3, [r7, #66]	@ movhi
 127:main.c        ****                 //uint16_t errorCount = error * 0.03 * 114.0 * CY_M_PI * 3.5;
 128:main.c        ****                
 129:main.c        ****                 //PWM_1_WriteCompare(PWM_1_ReadCompare() -errorCount);
 130:main.c        ****                 //PWM_2_WriteCompare(PWM_1_ReadCompare() -errorCount);
 131:main.c        ****                 if (error > 10) {
 565              		.loc 1 131 0
 566 00d6 B7F84230 		ldrh	r3, [r7, #66]
 567 00da 0A2B     		cmp	r3, #10
 568 00dc 05D9     		bls	.L20
 132:main.c        ****                    duty = duty - 10;
 569              		.loc 1 132 0
 570 00de 97F85730 		ldrb	r3, [r7, #87]
 571 00e2 0A3B     		subs	r3, r3, #10
 572 00e4 87F85730 		strb	r3, [r7, #87]
 573 00e8 04E0     		b	.L21
 574              	.L20:
 133:main.c        ****                     
 134:main.c        ****                 } else {
 135:main.c        ****                    duty = duty - 5;   
 575              		.loc 1 135 0
 576 00ea 97F85730 		ldrb	r3, [r7, #87]
 577 00ee 053B     		subs	r3, r3, #5
 578 00f0 87F85730 		strb	r3, [r7, #87]
 579              	.L21:
 136:main.c        ****                 }
 137:main.c        ****                 if (duty <= 50) {
 580              		.loc 1 137 0
 581 00f4 97F85730 		ldrb	r3, [r7, #87]	@ zero_extendqisi2
 582 00f8 322B     		cmp	r3, #50
 583 00fa 02D8     		bhi	.L22
 138:main.c        ****                     duty = 55;
 584              		.loc 1 138 0
 585 00fc 3723     		movs	r3, #55
 586 00fe 87F85730 		strb	r3, [r7, #87]
 587              	.L22:
 139:main.c        ****                 }
 140:main.c        ****                 changeDutyCycle(duty);
 588              		.loc 1 140 0
 589 0102 97F85730 		ldrb	r3, [r7, #87]	@ zero_extendqisi2
 590 0106 1846     		mov	r0, r3
 591 0108 FFF7FEFF 		bl	changeDutyCycle
 592              	.LBE3:
 593 010c 2CE0     		b	.L23
ARM GAS  C:\Users\sela847\AppData\Local\Temp\cccHm1T9.s 			page 14


 594              	.L32:
 141:main.c        **** 
 142:main.c        ****                 
 143:main.c        ****             } else if (speed < SPEED_WANTED) {
 595              		.loc 1 143 0
 596 010e 2B49     		ldr	r1, .L33+28
 597 0110 386D     		ldr	r0, [r7, #80]	@ float
 598 0112 FFF7FEFF 		bl	__aeabi_fcmplt
 599 0116 0346     		mov	r3, r0
 600 0118 002B     		cmp	r3, #0
 601 011a 25D0     		beq	.L23
 602              	.LBB4:
 144:main.c        ****                 uint16_t error = SPEED_WANTED - speed;
 603              		.loc 1 144 0
 604 011c 396D     		ldr	r1, [r7, #80]	@ float
 605 011e 2748     		ldr	r0, .L33+28
 606 0120 FFF7FEFF 		bl	__aeabi_fsub
 607 0124 0346     		mov	r3, r0
 608 0126 1846     		mov	r0, r3
 609 0128 FFF7FEFF 		bl	__aeabi_f2uiz
 610 012c 0346     		mov	r3, r0
 611 012e A7F84030 		strh	r3, [r7, #64]	@ movhi
 145:main.c        ****                 //uint16_t errorCount = error * 0.03 * 114.0 * CY_M_PI * 3.5;
 146:main.c        ****                 //PWM_1_WriteCompare(PWM_1_ReadCompare() +errorCount);
 147:main.c        ****                 //PWM_2_WriteCompare(PWM_1_ReadCompare() +errorCount);
 148:main.c        ****                 if (error > 10) {
 612              		.loc 1 148 0
 613 0132 B7F84030 		ldrh	r3, [r7, #64]
 614 0136 0A2B     		cmp	r3, #10
 615 0138 05D9     		bls	.L25
 149:main.c        ****                     duty = duty + 10;
 616              		.loc 1 149 0
 617 013a 97F85730 		ldrb	r3, [r7, #87]
 618 013e 0A33     		adds	r3, r3, #10
 619 0140 87F85730 		strb	r3, [r7, #87]
 620 0144 04E0     		b	.L26
 621              	.L25:
 150:main.c        ****                     
 151:main.c        ****                 } else {
 152:main.c        ****                    duty = duty + 5;   
 622              		.loc 1 152 0
 623 0146 97F85730 		ldrb	r3, [r7, #87]
 624 014a 0533     		adds	r3, r3, #5
 625 014c 87F85730 		strb	r3, [r7, #87]
 626              	.L26:
 153:main.c        ****                 }
 154:main.c        ****                 if (duty >= 100) {
 627              		.loc 1 154 0
 628 0150 97F85730 		ldrb	r3, [r7, #87]	@ zero_extendqisi2
 629 0154 632B     		cmp	r3, #99
 630 0156 02D9     		bls	.L27
 155:main.c        ****                         duty = 95;
 631              		.loc 1 155 0
 632 0158 5F23     		movs	r3, #95
 633 015a 87F85730 		strb	r3, [r7, #87]
 634              	.L27:
 156:main.c        ****                 }
ARM GAS  C:\Users\sela847\AppData\Local\Temp\cccHm1T9.s 			page 15


 157:main.c        ****                 changeDutyCycle(duty);
 635              		.loc 1 157 0
 636 015e 97F85730 		ldrb	r3, [r7, #87]	@ zero_extendqisi2
 637 0162 1846     		mov	r0, r3
 638 0164 FFF7FEFF 		bl	changeDutyCycle
 639              	.L23:
 640              	.LBE4:
 158:main.c        ****             }
 159:main.c        ****             
 160:main.c        ****             
 161:main.c        ****             
 162:main.c        ****             changeVal = 0; 
 641              		.loc 1 162 0
 642 0168 0F4B     		ldr	r3, .L33+8
 643 016a 0022     		movs	r2, #0
 644 016c 1A70     		strb	r2, [r3]
 645              	.L17:
 163:main.c        ****             
 164:main.c        ****         }
 165:main.c        ****         if (printSpeed == 1) {
 646              		.loc 1 165 0
 647 016e 144B     		ldr	r3, .L33+32
 648 0170 1B78     		ldrb	r3, [r3]	@ zero_extendqisi2
 649 0172 012B     		cmp	r3, #1
 650 0174 7FF479AF 		bne	.L29
 166:main.c        ****             itoa(speed, buffer, 10);
 651              		.loc 1 166 0
 652 0178 386D     		ldr	r0, [r7, #80]	@ float
 653 017a FFF7FEFF 		bl	__aeabi_f2iz
 654 017e 3B46     		mov	r3, r7
 655 0180 0A22     		movs	r2, #10
 656 0182 1946     		mov	r1, r3
 657 0184 FFF7FEFF 		bl	itoa
 167:main.c        ****             usbPutString(buffer);
 658              		.loc 1 167 0
 659 0188 3B46     		mov	r3, r7
 660 018a 1846     		mov	r0, r3
 661 018c FFF7FEFF 		bl	usbPutString
 168:main.c        ****             //usbPutString("\r\n");
 169:main.c        ****             //itoa(m2counts, buffer, 10);
 170:main.c        ****             //usbPutString(buffer);
 171:main.c        ****             usbPutString("\r\n end \r\n");
 662              		.loc 1 171 0
 663 0190 0C48     		ldr	r0, .L33+36
 664 0192 FFF7FEFF 		bl	usbPutString
 172:main.c        ****             printSpeed = 0;
 665              		.loc 1 172 0
 666 0196 0A4B     		ldr	r3, .L33+32
 667 0198 0022     		movs	r2, #0
 668 019a 1A70     		strb	r2, [r3]
 669              	.LBE2:
 173:main.c        ****         }
 174:main.c        ****     }  
 670              		.loc 1 174 0
 671 019c 65E7     		b	.L29
 672              	.L34:
 673 019e 00BF     		.align	2
ARM GAS  C:\Users\sela847\AppData\Local\Temp\cccHm1T9.s 			page 16


 674              	.L33:
 675 01a0 00000000 		.word	QuadDecoderIsr
 676 01a4 00000000 		.word	outputUartIsr
 677 01a8 00000000 		.word	changeVal
 678 01ac 00000000 		.word	timeArrayM1
 679 01b0 00000000 		.word	timeArrayM2
 680 01b4 DCAF9C44 		.word	1151119324
 681 01b8 8FC2F53C 		.word	1022739087
 682 01bc 0000C841 		.word	1103626240
 683 01c0 00000000 		.word	printSpeed
 684 01c4 00000000 		.word	.LC0
 685              		.cfi_endproc
 686              	.LFE68:
 687              		.size	main, .-main
 688              		.section	.text.usbPutString,"ax",%progbits
 689              		.align	2
 690              		.global	usbPutString
 691              		.thumb
 692              		.thumb_func
 693              		.type	usbPutString, %function
 694              	usbPutString:
 695              	.LFB69:
 175:main.c        **** }//End main
 176:main.c        **** 
 177:main.c        **** 
 178:main.c        **** 
 179:main.c        **** //* ========================================
 180:main.c        **** void usbPutString(char *s)
 181:main.c        **** {
 696              		.loc 1 181 0
 697              		.cfi_startproc
 698              		@ args = 0, pretend = 0, frame = 8
 699              		@ frame_needed = 1, uses_anonymous_args = 0
 700 0000 80B5     		push	{r7, lr}
 701              		.cfi_def_cfa_offset 8
 702              		.cfi_offset 7, -8
 703              		.cfi_offset 14, -4
 704 0002 82B0     		sub	sp, sp, #8
 705              		.cfi_def_cfa_offset 16
 706 0004 00AF     		add	r7, sp, #0
 707              		.cfi_def_cfa_register 7
 708 0006 7860     		str	r0, [r7, #4]
 182:main.c        **** // !! Assumes that *s is a string with allocated space >=64 chars     
 183:main.c        **** //  Since USB implementation retricts data packets to 64 chars, this function truncates the
 184:main.c        **** //  length to 62 char (63rd char is a '!')
 185:main.c        **** 
 186:main.c        **** #ifdef USE_USB     
 187:main.c        ****     while (USBUART_CDCIsReady() == 0);
 709              		.loc 1 187 0
 710 0008 00BF     		nop
 711              	.L36:
 712              		.loc 1 187 0 is_stmt 0 discriminator 1
 713 000a FFF7FEFF 		bl	USBUART_CDCIsReady
 714 000e 0346     		mov	r3, r0
 715 0010 002B     		cmp	r3, #0
 716 0012 FAD0     		beq	.L36
 188:main.c        ****     s[63]='\0';
ARM GAS  C:\Users\sela847\AppData\Local\Temp\cccHm1T9.s 			page 17


 717              		.loc 1 188 0 is_stmt 1
 718 0014 7B68     		ldr	r3, [r7, #4]
 719 0016 3F33     		adds	r3, r3, #63
 720 0018 0022     		movs	r2, #0
 721 001a 1A70     		strb	r2, [r3]
 189:main.c        ****     s[62]='!';
 722              		.loc 1 189 0
 723 001c 7B68     		ldr	r3, [r7, #4]
 724 001e 3E33     		adds	r3, r3, #62
 725 0020 2122     		movs	r2, #33
 726 0022 1A70     		strb	r2, [r3]
 190:main.c        ****     USBUART_PutData((uint8*)s,strlen(s));
 727              		.loc 1 190 0
 728 0024 7868     		ldr	r0, [r7, #4]
 729 0026 FFF7FEFF 		bl	strlen
 730 002a 0346     		mov	r3, r0
 731 002c 9BB2     		uxth	r3, r3
 732 002e 1946     		mov	r1, r3
 733 0030 7868     		ldr	r0, [r7, #4]
 734 0032 FFF7FEFF 		bl	USBUART_PutData
 191:main.c        **** #endif
 192:main.c        **** }
 735              		.loc 1 192 0
 736 0036 00BF     		nop
 737 0038 0837     		adds	r7, r7, #8
 738              		.cfi_def_cfa_offset 8
 739 003a BD46     		mov	sp, r7
 740              		.cfi_def_cfa_register 13
 741              		@ sp needed
 742 003c 80BD     		pop	{r7, pc}
 743              		.cfi_endproc
 744              	.LFE69:
 745              		.size	usbPutString, .-usbPutString
 746 003e 00BF     		.section	.text.usbPutChar,"ax",%progbits
 747              		.align	2
 748              		.global	usbPutChar
 749              		.thumb
 750              		.thumb_func
 751              		.type	usbPutChar, %function
 752              	usbPutChar:
 753              	.LFB70:
 193:main.c        **** //* ========================================
 194:main.c        **** void usbPutChar(char c)
 195:main.c        **** {
 754              		.loc 1 195 0
 755              		.cfi_startproc
 756              		@ args = 0, pretend = 0, frame = 8
 757              		@ frame_needed = 1, uses_anonymous_args = 0
 758 0000 80B5     		push	{r7, lr}
 759              		.cfi_def_cfa_offset 8
 760              		.cfi_offset 7, -8
 761              		.cfi_offset 14, -4
 762 0002 82B0     		sub	sp, sp, #8
 763              		.cfi_def_cfa_offset 16
 764 0004 00AF     		add	r7, sp, #0
 765              		.cfi_def_cfa_register 7
 766 0006 0346     		mov	r3, r0
ARM GAS  C:\Users\sela847\AppData\Local\Temp\cccHm1T9.s 			page 18


 767 0008 FB71     		strb	r3, [r7, #7]
 196:main.c        **** #ifdef USE_USB     
 197:main.c        ****     while (USBUART_CDCIsReady() == 0);
 768              		.loc 1 197 0
 769 000a 00BF     		nop
 770              	.L38:
 771              		.loc 1 197 0 is_stmt 0 discriminator 1
 772 000c FFF7FEFF 		bl	USBUART_CDCIsReady
 773 0010 0346     		mov	r3, r0
 774 0012 002B     		cmp	r3, #0
 775 0014 FAD0     		beq	.L38
 198:main.c        ****     USBUART_PutChar(c);
 776              		.loc 1 198 0 is_stmt 1
 777 0016 FB79     		ldrb	r3, [r7, #7]	@ zero_extendqisi2
 778 0018 1846     		mov	r0, r3
 779 001a FFF7FEFF 		bl	USBUART_PutChar
 199:main.c        **** #endif    
 200:main.c        **** }
 780              		.loc 1 200 0
 781 001e 00BF     		nop
 782 0020 0837     		adds	r7, r7, #8
 783              		.cfi_def_cfa_offset 8
 784 0022 BD46     		mov	sp, r7
 785              		.cfi_def_cfa_register 13
 786              		@ sp needed
 787 0024 80BD     		pop	{r7, pc}
 788              		.cfi_endproc
 789              	.LFE70:
 790              		.size	usbPutChar, .-usbPutChar
 791 0026 00BF     		.text
 792              	.Letext0:
 793              		.file 2 "c:\\program files (x86)\\cypress\\psoc creator\\4.2\\psoc creator\\import\\gnu\\arm\\5.4.
 794              		.file 3 "c:\\program files (x86)\\cypress\\psoc creator\\4.2\\psoc creator\\import\\gnu\\arm\\5.4.
 795              		.file 4 "Generated_Source\\PSoC5/cytypes.h"
 796              		.file 5 "vars.h"
 797              		.file 6 "Generated_Source\\PSoC5/core_cm3.h"