ARM GAS  C:\Users\sela847\AppData\Local\Temp\ccFfkNPu.s 			page 1


   1              		.syntax unified
   2              		.cpu cortex-m3
   3              		.fpu softvfp
   4              		.eabi_attribute 20, 1
   5              		.eabi_attribute 21, 1
   6              		.eabi_attribute 23, 3
   7              		.eabi_attribute 24, 1
   8              		.eabi_attribute 25, 1
   9              		.eabi_attribute 26, 1
  10              		.eabi_attribute 30, 6
  11              		.eabi_attribute 34, 1
  12              		.eabi_attribute 18, 4
  13              		.thumb
  14              		.syntax unified
  15              		.file	"QuadDec_M2.c"
  16              		.text
  17              	.Ltext0:
  18              		.cfi_sections	.debug_frame
  19              		.global	QuadDec_M2_initVar
  20              		.bss
  21              		.type	QuadDec_M2_initVar, %object
  22              		.size	QuadDec_M2_initVar, 1
  23              	QuadDec_M2_initVar:
  24 0000 00       		.space	1
  25              		.section	.text.QuadDec_M2_Init,"ax",%progbits
  26              		.align	2
  27              		.global	QuadDec_M2_Init
  28              		.thumb
  29              		.thumb_func
  30              		.type	QuadDec_M2_Init, %function
  31              	QuadDec_M2_Init:
  32              	.LFB0:
  33              		.file 1 "Generated_Source\\PSoC5\\QuadDec_M2.c"
   1:Generated_Source\PSoC5/QuadDec_M2.c **** /*******************************************************************************
   2:Generated_Source\PSoC5/QuadDec_M2.c **** * File Name: QuadDec_M2.c  
   3:Generated_Source\PSoC5/QuadDec_M2.c **** * Version 3.0
   4:Generated_Source\PSoC5/QuadDec_M2.c **** *
   5:Generated_Source\PSoC5/QuadDec_M2.c **** * Description:
   6:Generated_Source\PSoC5/QuadDec_M2.c **** *  This file provides the source code to the API for the Quadrature Decoder
   7:Generated_Source\PSoC5/QuadDec_M2.c **** *  component.
   8:Generated_Source\PSoC5/QuadDec_M2.c **** *
   9:Generated_Source\PSoC5/QuadDec_M2.c **** * Note:
  10:Generated_Source\PSoC5/QuadDec_M2.c **** *  None.
  11:Generated_Source\PSoC5/QuadDec_M2.c **** *   
  12:Generated_Source\PSoC5/QuadDec_M2.c **** ********************************************************************************
  13:Generated_Source\PSoC5/QuadDec_M2.c **** * Copyright 2008-2014, Cypress Semiconductor Corporation.  All rights reserved.
  14:Generated_Source\PSoC5/QuadDec_M2.c **** * You may use this file only in accordance with the license, terms, conditions, 
  15:Generated_Source\PSoC5/QuadDec_M2.c **** * disclaimers, and limitations in the end user license agreement accompanying 
  16:Generated_Source\PSoC5/QuadDec_M2.c **** * the software package with which this file was provided.
  17:Generated_Source\PSoC5/QuadDec_M2.c **** *******************************************************************************/
  18:Generated_Source\PSoC5/QuadDec_M2.c **** 
  19:Generated_Source\PSoC5/QuadDec_M2.c **** #include "QuadDec_M2.h"
  20:Generated_Source\PSoC5/QuadDec_M2.c **** 
  21:Generated_Source\PSoC5/QuadDec_M2.c **** #if (QuadDec_M2_COUNTER_SIZE == QuadDec_M2_COUNTER_SIZE_32_BIT)
  22:Generated_Source\PSoC5/QuadDec_M2.c ****     #include "QuadDec_M2_PVT.h"
  23:Generated_Source\PSoC5/QuadDec_M2.c **** #endif /* QuadDec_M2_COUNTER_SIZE == QuadDec_M2_COUNTER_SIZE_32_BIT */
  24:Generated_Source\PSoC5/QuadDec_M2.c **** 
ARM GAS  C:\Users\sela847\AppData\Local\Temp\ccFfkNPu.s 			page 2


  25:Generated_Source\PSoC5/QuadDec_M2.c **** uint8 QuadDec_M2_initVar = 0u;
  26:Generated_Source\PSoC5/QuadDec_M2.c **** 
  27:Generated_Source\PSoC5/QuadDec_M2.c **** 
  28:Generated_Source\PSoC5/QuadDec_M2.c **** /*******************************************************************************
  29:Generated_Source\PSoC5/QuadDec_M2.c **** * Function Name: QuadDec_M2_Init
  30:Generated_Source\PSoC5/QuadDec_M2.c **** ********************************************************************************
  31:Generated_Source\PSoC5/QuadDec_M2.c **** *
  32:Generated_Source\PSoC5/QuadDec_M2.c **** * Summary:
  33:Generated_Source\PSoC5/QuadDec_M2.c **** *  Inits/Restores default QuadDec configuration provided with customizer.
  34:Generated_Source\PSoC5/QuadDec_M2.c **** *
  35:Generated_Source\PSoC5/QuadDec_M2.c **** * Parameters:
  36:Generated_Source\PSoC5/QuadDec_M2.c **** *  None.
  37:Generated_Source\PSoC5/QuadDec_M2.c **** *
  38:Generated_Source\PSoC5/QuadDec_M2.c **** * Return:
  39:Generated_Source\PSoC5/QuadDec_M2.c **** *  None.
  40:Generated_Source\PSoC5/QuadDec_M2.c **** *
  41:Generated_Source\PSoC5/QuadDec_M2.c **** *******************************************************************************/
  42:Generated_Source\PSoC5/QuadDec_M2.c **** void QuadDec_M2_Init(void) 
  43:Generated_Source\PSoC5/QuadDec_M2.c **** {
  34              		.loc 1 43 0
  35              		.cfi_startproc
  36              		@ args = 0, pretend = 0, frame = 0
  37              		@ frame_needed = 1, uses_anonymous_args = 0
  38 0000 80B5     		push	{r7, lr}
  39              		.cfi_def_cfa_offset 8
  40              		.cfi_offset 7, -8
  41              		.cfi_offset 14, -4
  42 0002 00AF     		add	r7, sp, #0
  43              		.cfi_def_cfa_register 7
  44:Generated_Source\PSoC5/QuadDec_M2.c ****     #if (QuadDec_M2_COUNTER_SIZE == QuadDec_M2_COUNTER_SIZE_32_BIT)
  45:Generated_Source\PSoC5/QuadDec_M2.c ****         /* Disable Interrupt. */
  46:Generated_Source\PSoC5/QuadDec_M2.c ****         CyIntDisable(QuadDec_M2_ISR_NUMBER);
  44              		.loc 1 46 0
  45 0004 064B     		ldr	r3, .L2
  46 0006 0422     		movs	r2, #4
  47 0008 1A60     		str	r2, [r3]
  47:Generated_Source\PSoC5/QuadDec_M2.c ****         /* Set the ISR to point to the QuadDec_M2_isr Interrupt. */
  48:Generated_Source\PSoC5/QuadDec_M2.c ****         (void) CyIntSetVector(QuadDec_M2_ISR_NUMBER, & QuadDec_M2_ISR);
  48              		.loc 1 48 0
  49 000a 0649     		ldr	r1, .L2+4
  50 000c 0220     		movs	r0, #2
  51 000e FFF7FEFF 		bl	CyIntSetVector
  49:Generated_Source\PSoC5/QuadDec_M2.c ****         /* Set the priority. */
  50:Generated_Source\PSoC5/QuadDec_M2.c ****         CyIntSetPriority(QuadDec_M2_ISR_NUMBER, QuadDec_M2_ISR_PRIORITY);
  52              		.loc 1 50 0
  53 0012 0721     		movs	r1, #7
  54 0014 0220     		movs	r0, #2
  55 0016 FFF7FEFF 		bl	CyIntSetPriority
  51:Generated_Source\PSoC5/QuadDec_M2.c ****     #endif /* QuadDec_M2_COUNTER_SIZE == QuadDec_M2_COUNTER_SIZE_32_BIT */
  52:Generated_Source\PSoC5/QuadDec_M2.c **** }
  56              		.loc 1 52 0
  57 001a 00BF     		nop
  58 001c 80BD     		pop	{r7, pc}
  59              	.L3:
  60 001e 00BF     		.align	2
  61              	.L2:
  62 0020 80E100E0 		.word	-536813184
ARM GAS  C:\Users\sela847\AppData\Local\Temp\ccFfkNPu.s 			page 3


  63 0024 00000000 		.word	QuadDec_M2_ISR
  64              		.cfi_endproc
  65              	.LFE0:
  66              		.size	QuadDec_M2_Init, .-QuadDec_M2_Init
  67              		.section	.text.QuadDec_M2_Enable,"ax",%progbits
  68              		.align	2
  69              		.global	QuadDec_M2_Enable
  70              		.thumb
  71              		.thumb_func
  72              		.type	QuadDec_M2_Enable, %function
  73              	QuadDec_M2_Enable:
  74              	.LFB1:
  53:Generated_Source\PSoC5/QuadDec_M2.c **** 
  54:Generated_Source\PSoC5/QuadDec_M2.c **** 
  55:Generated_Source\PSoC5/QuadDec_M2.c **** /*******************************************************************************
  56:Generated_Source\PSoC5/QuadDec_M2.c **** * Function Name: QuadDec_M2_Enable
  57:Generated_Source\PSoC5/QuadDec_M2.c **** ********************************************************************************
  58:Generated_Source\PSoC5/QuadDec_M2.c **** *
  59:Generated_Source\PSoC5/QuadDec_M2.c **** * Summary:
  60:Generated_Source\PSoC5/QuadDec_M2.c **** *  This function enable interrupts from Component and also enable Component's
  61:Generated_Source\PSoC5/QuadDec_M2.c **** *  ISR in case of 32-bit counter.
  62:Generated_Source\PSoC5/QuadDec_M2.c **** *
  63:Generated_Source\PSoC5/QuadDec_M2.c **** * Parameters:
  64:Generated_Source\PSoC5/QuadDec_M2.c **** *  None.
  65:Generated_Source\PSoC5/QuadDec_M2.c **** *
  66:Generated_Source\PSoC5/QuadDec_M2.c **** * Return:
  67:Generated_Source\PSoC5/QuadDec_M2.c **** *  None.
  68:Generated_Source\PSoC5/QuadDec_M2.c **** *
  69:Generated_Source\PSoC5/QuadDec_M2.c **** *******************************************************************************/
  70:Generated_Source\PSoC5/QuadDec_M2.c **** void QuadDec_M2_Enable(void) 
  71:Generated_Source\PSoC5/QuadDec_M2.c **** {
  75              		.loc 1 71 0
  76              		.cfi_startproc
  77              		@ args = 0, pretend = 0, frame = 8
  78              		@ frame_needed = 1, uses_anonymous_args = 0
  79 0000 80B5     		push	{r7, lr}
  80              		.cfi_def_cfa_offset 8
  81              		.cfi_offset 7, -8
  82              		.cfi_offset 14, -4
  83 0002 82B0     		sub	sp, sp, #8
  84              		.cfi_def_cfa_offset 16
  85 0004 00AF     		add	r7, sp, #0
  86              		.cfi_def_cfa_register 7
  72:Generated_Source\PSoC5/QuadDec_M2.c ****     uint8 enableInterrupts;
  73:Generated_Source\PSoC5/QuadDec_M2.c **** 
  74:Generated_Source\PSoC5/QuadDec_M2.c ****     QuadDec_M2_SetInterruptMask(QuadDec_M2_INIT_INT_MASK);
  87              		.loc 1 74 0
  88 0006 0F20     		movs	r0, #15
  89 0008 FFF7FEFF 		bl	QuadDec_M2_SetInterruptMask
  75:Generated_Source\PSoC5/QuadDec_M2.c **** 
  76:Generated_Source\PSoC5/QuadDec_M2.c ****     /* Clear pending interrupts. */
  77:Generated_Source\PSoC5/QuadDec_M2.c ****     (void) QuadDec_M2_GetEvents();
  90              		.loc 1 77 0
  91 000c FFF7FEFF 		bl	QuadDec_M2_GetEvents
  78:Generated_Source\PSoC5/QuadDec_M2.c ****     
  79:Generated_Source\PSoC5/QuadDec_M2.c ****     enableInterrupts = CyEnterCriticalSection();
  92              		.loc 1 79 0
ARM GAS  C:\Users\sela847\AppData\Local\Temp\ccFfkNPu.s 			page 4


  93 0010 FFF7FEFF 		bl	CyEnterCriticalSection
  94 0014 0346     		mov	r3, r0
  95 0016 FB71     		strb	r3, [r7, #7]
  80:Generated_Source\PSoC5/QuadDec_M2.c **** 
  81:Generated_Source\PSoC5/QuadDec_M2.c ****     /* Enable interrupts from Statusi register */
  82:Generated_Source\PSoC5/QuadDec_M2.c ****     QuadDec_M2_SR_AUX_CONTROL |= QuadDec_M2_INTERRUPTS_ENABLE;
  96              		.loc 1 82 0
  97 0018 094A     		ldr	r2, .L5
  98 001a 094B     		ldr	r3, .L5
  99 001c 1B78     		ldrb	r3, [r3]
 100 001e DBB2     		uxtb	r3, r3
 101 0020 43F01003 		orr	r3, r3, #16
 102 0024 DBB2     		uxtb	r3, r3
 103 0026 1370     		strb	r3, [r2]
  83:Generated_Source\PSoC5/QuadDec_M2.c **** 
  84:Generated_Source\PSoC5/QuadDec_M2.c ****     CyExitCriticalSection(enableInterrupts);        
 104              		.loc 1 84 0
 105 0028 FB79     		ldrb	r3, [r7, #7]	@ zero_extendqisi2
 106 002a 1846     		mov	r0, r3
 107 002c FFF7FEFF 		bl	CyExitCriticalSection
  85:Generated_Source\PSoC5/QuadDec_M2.c **** 
  86:Generated_Source\PSoC5/QuadDec_M2.c ****     #if (QuadDec_M2_COUNTER_SIZE == QuadDec_M2_COUNTER_SIZE_32_BIT)
  87:Generated_Source\PSoC5/QuadDec_M2.c ****         /* Enable Component interrupts */
  88:Generated_Source\PSoC5/QuadDec_M2.c ****         CyIntEnable(QuadDec_M2_ISR_NUMBER);
 108              		.loc 1 88 0
 109 0030 044B     		ldr	r3, .L5+4
 110 0032 0422     		movs	r2, #4
 111 0034 1A60     		str	r2, [r3]
  89:Generated_Source\PSoC5/QuadDec_M2.c ****     #endif /* QuadDec_M2_COUNTER_SIZE == QuadDec_M2_COUNTER_SIZE_32_BIT */
  90:Generated_Source\PSoC5/QuadDec_M2.c **** }
 112              		.loc 1 90 0
 113 0036 00BF     		nop
 114 0038 0837     		adds	r7, r7, #8
 115              		.cfi_def_cfa_offset 8
 116 003a BD46     		mov	sp, r7
 117              		.cfi_def_cfa_register 13
 118              		@ sp needed
 119 003c 80BD     		pop	{r7, pc}
 120              	.L6:
 121 003e 00BF     		.align	2
 122              	.L5:
 123 0040 94640040 		.word	1073767572
 124 0044 00E100E0 		.word	-536813312
 125              		.cfi_endproc
 126              	.LFE1:
 127              		.size	QuadDec_M2_Enable, .-QuadDec_M2_Enable
 128              		.section	.text.QuadDec_M2_Start,"ax",%progbits
 129              		.align	2
 130              		.global	QuadDec_M2_Start
 131              		.thumb
 132              		.thumb_func
 133              		.type	QuadDec_M2_Start, %function
 134              	QuadDec_M2_Start:
 135              	.LFB2:
  91:Generated_Source\PSoC5/QuadDec_M2.c **** 
  92:Generated_Source\PSoC5/QuadDec_M2.c **** 
  93:Generated_Source\PSoC5/QuadDec_M2.c **** /*******************************************************************************
ARM GAS  C:\Users\sela847\AppData\Local\Temp\ccFfkNPu.s 			page 5


  94:Generated_Source\PSoC5/QuadDec_M2.c **** * Function Name: QuadDec_M2_Start
  95:Generated_Source\PSoC5/QuadDec_M2.c **** ********************************************************************************
  96:Generated_Source\PSoC5/QuadDec_M2.c **** *
  97:Generated_Source\PSoC5/QuadDec_M2.c **** * Summary:
  98:Generated_Source\PSoC5/QuadDec_M2.c **** *  Initializes UDBs and other relevant hardware.
  99:Generated_Source\PSoC5/QuadDec_M2.c **** *  Resets counter, enables or disables all relevant interrupts.
 100:Generated_Source\PSoC5/QuadDec_M2.c **** *  Starts monitoring the inputs and counting.
 101:Generated_Source\PSoC5/QuadDec_M2.c **** *
 102:Generated_Source\PSoC5/QuadDec_M2.c **** * Parameters:
 103:Generated_Source\PSoC5/QuadDec_M2.c **** *  None.
 104:Generated_Source\PSoC5/QuadDec_M2.c **** *
 105:Generated_Source\PSoC5/QuadDec_M2.c **** * Return:
 106:Generated_Source\PSoC5/QuadDec_M2.c **** *  None.
 107:Generated_Source\PSoC5/QuadDec_M2.c **** *
 108:Generated_Source\PSoC5/QuadDec_M2.c **** * Global variables:
 109:Generated_Source\PSoC5/QuadDec_M2.c **** *  QuadDec_M2_initVar - used to check initial configuration, modified on
 110:Generated_Source\PSoC5/QuadDec_M2.c **** *  first function call.
 111:Generated_Source\PSoC5/QuadDec_M2.c **** *
 112:Generated_Source\PSoC5/QuadDec_M2.c **** * Reentrant:
 113:Generated_Source\PSoC5/QuadDec_M2.c **** *  No.
 114:Generated_Source\PSoC5/QuadDec_M2.c **** *
 115:Generated_Source\PSoC5/QuadDec_M2.c **** *******************************************************************************/
 116:Generated_Source\PSoC5/QuadDec_M2.c **** void QuadDec_M2_Start(void) 
 117:Generated_Source\PSoC5/QuadDec_M2.c **** {
 136              		.loc 1 117 0
 137              		.cfi_startproc
 138              		@ args = 0, pretend = 0, frame = 0
 139              		@ frame_needed = 1, uses_anonymous_args = 0
 140 0000 80B5     		push	{r7, lr}
 141              		.cfi_def_cfa_offset 8
 142              		.cfi_offset 7, -8
 143              		.cfi_offset 14, -4
 144 0002 00AF     		add	r7, sp, #0
 145              		.cfi_def_cfa_register 7
 118:Generated_Source\PSoC5/QuadDec_M2.c ****     #if (QuadDec_M2_COUNTER_SIZE == QuadDec_M2_COUNTER_SIZE_8_BIT)
 119:Generated_Source\PSoC5/QuadDec_M2.c ****         QuadDec_M2_Cnt8_Start();
 120:Generated_Source\PSoC5/QuadDec_M2.c ****         QuadDec_M2_Cnt8_WriteCounter(QuadDec_M2_COUNTER_INIT_VALUE);
 121:Generated_Source\PSoC5/QuadDec_M2.c ****     #else
 122:Generated_Source\PSoC5/QuadDec_M2.c ****         /* (QuadDec_M2_COUNTER_SIZE == QuadDec_M2_COUNTER_SIZE_16_BIT) || 
 123:Generated_Source\PSoC5/QuadDec_M2.c ****         *  (QuadDec_M2_COUNTER_SIZE == QuadDec_M2_COUNTER_SIZE_32_BIT) 
 124:Generated_Source\PSoC5/QuadDec_M2.c ****         */
 125:Generated_Source\PSoC5/QuadDec_M2.c ****         QuadDec_M2_Cnt16_Start();
 146              		.loc 1 125 0
 147 0004 FFF7FEFF 		bl	QuadDec_M2_Cnt16_Start
 126:Generated_Source\PSoC5/QuadDec_M2.c ****         QuadDec_M2_Cnt16_WriteCounter(QuadDec_M2_COUNTER_INIT_VALUE);
 148              		.loc 1 126 0
 149 0008 4FF40040 		mov	r0, #32768
 150 000c FFF7FEFF 		bl	QuadDec_M2_Cnt16_WriteCounter
 127:Generated_Source\PSoC5/QuadDec_M2.c ****     #endif /* QuadDec_M2_COUNTER_SIZE == QuadDec_M2_COUNTER_SIZE_8_BIT */
 128:Generated_Source\PSoC5/QuadDec_M2.c ****     
 129:Generated_Source\PSoC5/QuadDec_M2.c ****     #if (QuadDec_M2_COUNTER_SIZE == QuadDec_M2_COUNTER_SIZE_32_BIT)        
 130:Generated_Source\PSoC5/QuadDec_M2.c ****        QuadDec_M2_count32SoftPart = 0;
 151              		.loc 1 130 0
 152 0010 074B     		ldr	r3, .L9
 153 0012 0022     		movs	r2, #0
 154 0014 1A60     		str	r2, [r3]
 131:Generated_Source\PSoC5/QuadDec_M2.c ****     #endif /* QuadDec_M2_COUNTER_SIZE == QuadDec_M2_COUNTER_SIZE_32_BIT */
ARM GAS  C:\Users\sela847\AppData\Local\Temp\ccFfkNPu.s 			page 6


 132:Generated_Source\PSoC5/QuadDec_M2.c **** 
 133:Generated_Source\PSoC5/QuadDec_M2.c ****     if (QuadDec_M2_initVar == 0u)
 155              		.loc 1 133 0
 156 0016 074B     		ldr	r3, .L9+4
 157 0018 1B78     		ldrb	r3, [r3]	@ zero_extendqisi2
 158 001a 002B     		cmp	r3, #0
 159 001c 04D1     		bne	.L8
 134:Generated_Source\PSoC5/QuadDec_M2.c ****     {
 135:Generated_Source\PSoC5/QuadDec_M2.c ****         QuadDec_M2_Init();
 160              		.loc 1 135 0
 161 001e FFF7FEFF 		bl	QuadDec_M2_Init
 136:Generated_Source\PSoC5/QuadDec_M2.c ****         QuadDec_M2_initVar = 1u;
 162              		.loc 1 136 0
 163 0022 044B     		ldr	r3, .L9+4
 164 0024 0122     		movs	r2, #1
 165 0026 1A70     		strb	r2, [r3]
 166              	.L8:
 137:Generated_Source\PSoC5/QuadDec_M2.c ****     }
 138:Generated_Source\PSoC5/QuadDec_M2.c **** 
 139:Generated_Source\PSoC5/QuadDec_M2.c ****     QuadDec_M2_Enable();
 167              		.loc 1 139 0
 168 0028 FFF7FEFF 		bl	QuadDec_M2_Enable
 140:Generated_Source\PSoC5/QuadDec_M2.c **** }
 169              		.loc 1 140 0
 170 002c 00BF     		nop
 171 002e 80BD     		pop	{r7, pc}
 172              	.L10:
 173              		.align	2
 174              	.L9:
 175 0030 00000000 		.word	QuadDec_M2_count32SoftPart
 176 0034 00000000 		.word	QuadDec_M2_initVar
 177              		.cfi_endproc
 178              	.LFE2:
 179              		.size	QuadDec_M2_Start, .-QuadDec_M2_Start
 180              		.section	.text.QuadDec_M2_Stop,"ax",%progbits
 181              		.align	2
 182              		.global	QuadDec_M2_Stop
 183              		.thumb
 184              		.thumb_func
 185              		.type	QuadDec_M2_Stop, %function
 186              	QuadDec_M2_Stop:
 187              	.LFB3:
 141:Generated_Source\PSoC5/QuadDec_M2.c **** 
 142:Generated_Source\PSoC5/QuadDec_M2.c **** 
 143:Generated_Source\PSoC5/QuadDec_M2.c **** /*******************************************************************************
 144:Generated_Source\PSoC5/QuadDec_M2.c **** * Function Name: QuadDec_M2_Stop
 145:Generated_Source\PSoC5/QuadDec_M2.c **** ********************************************************************************
 146:Generated_Source\PSoC5/QuadDec_M2.c **** *
 147:Generated_Source\PSoC5/QuadDec_M2.c **** * Summary:
 148:Generated_Source\PSoC5/QuadDec_M2.c **** *  Turns off UDBs and other relevant hardware.
 149:Generated_Source\PSoC5/QuadDec_M2.c **** *
 150:Generated_Source\PSoC5/QuadDec_M2.c **** * Parameters:
 151:Generated_Source\PSoC5/QuadDec_M2.c **** *  None.
 152:Generated_Source\PSoC5/QuadDec_M2.c **** *
 153:Generated_Source\PSoC5/QuadDec_M2.c **** * Return:
 154:Generated_Source\PSoC5/QuadDec_M2.c **** *  None.
 155:Generated_Source\PSoC5/QuadDec_M2.c **** *
ARM GAS  C:\Users\sela847\AppData\Local\Temp\ccFfkNPu.s 			page 7


 156:Generated_Source\PSoC5/QuadDec_M2.c **** *******************************************************************************/
 157:Generated_Source\PSoC5/QuadDec_M2.c **** void QuadDec_M2_Stop(void) 
 158:Generated_Source\PSoC5/QuadDec_M2.c **** {
 188              		.loc 1 158 0
 189              		.cfi_startproc
 190              		@ args = 0, pretend = 0, frame = 8
 191              		@ frame_needed = 1, uses_anonymous_args = 0
 192 0000 80B5     		push	{r7, lr}
 193              		.cfi_def_cfa_offset 8
 194              		.cfi_offset 7, -8
 195              		.cfi_offset 14, -4
 196 0002 82B0     		sub	sp, sp, #8
 197              		.cfi_def_cfa_offset 16
 198 0004 00AF     		add	r7, sp, #0
 199              		.cfi_def_cfa_register 7
 159:Generated_Source\PSoC5/QuadDec_M2.c ****     uint8 enableInterrupts;
 160:Generated_Source\PSoC5/QuadDec_M2.c **** 
 161:Generated_Source\PSoC5/QuadDec_M2.c ****     #if (QuadDec_M2_COUNTER_SIZE == QuadDec_M2_COUNTER_SIZE_8_BIT)
 162:Generated_Source\PSoC5/QuadDec_M2.c ****         QuadDec_M2_Cnt8_Stop();
 163:Generated_Source\PSoC5/QuadDec_M2.c ****     #else 
 164:Generated_Source\PSoC5/QuadDec_M2.c ****         /* (QuadDec_M2_COUNTER_SIZE == QuadDec_M2_COUNTER_SIZE_16_BIT) ||
 165:Generated_Source\PSoC5/QuadDec_M2.c ****         *  (QuadDec_M2_COUNTER_SIZE == QuadDec_M2_COUNTER_SIZE_32_BIT)
 166:Generated_Source\PSoC5/QuadDec_M2.c ****         */
 167:Generated_Source\PSoC5/QuadDec_M2.c ****         QuadDec_M2_Cnt16_Stop();    /* counter disable */
 200              		.loc 1 167 0
 201 0006 FFF7FEFF 		bl	QuadDec_M2_Cnt16_Stop
 168:Generated_Source\PSoC5/QuadDec_M2.c ****     #endif /* (QuadDec_M2_COUNTER_SIZE == QuadDec_M2_COUNTER_SIZE_8_BIT) */
 169:Generated_Source\PSoC5/QuadDec_M2.c ****  
 170:Generated_Source\PSoC5/QuadDec_M2.c ****     enableInterrupts = CyEnterCriticalSection();
 202              		.loc 1 170 0
 203 000a FFF7FEFF 		bl	CyEnterCriticalSection
 204 000e 0346     		mov	r3, r0
 205 0010 FB71     		strb	r3, [r7, #7]
 171:Generated_Source\PSoC5/QuadDec_M2.c **** 
 172:Generated_Source\PSoC5/QuadDec_M2.c ****     /* Disable interrupts interrupts from Statusi register */
 173:Generated_Source\PSoC5/QuadDec_M2.c ****     QuadDec_M2_SR_AUX_CONTROL &= (uint8) (~QuadDec_M2_INTERRUPTS_ENABLE);
 206              		.loc 1 173 0
 207 0012 094A     		ldr	r2, .L12
 208 0014 084B     		ldr	r3, .L12
 209 0016 1B78     		ldrb	r3, [r3]
 210 0018 DBB2     		uxtb	r3, r3
 211 001a 23F01003 		bic	r3, r3, #16
 212 001e DBB2     		uxtb	r3, r3
 213 0020 1370     		strb	r3, [r2]
 174:Generated_Source\PSoC5/QuadDec_M2.c **** 
 175:Generated_Source\PSoC5/QuadDec_M2.c ****     CyExitCriticalSection(enableInterrupts);
 214              		.loc 1 175 0
 215 0022 FB79     		ldrb	r3, [r7, #7]	@ zero_extendqisi2
 216 0024 1846     		mov	r0, r3
 217 0026 FFF7FEFF 		bl	CyExitCriticalSection
 176:Generated_Source\PSoC5/QuadDec_M2.c **** 
 177:Generated_Source\PSoC5/QuadDec_M2.c ****     #if (QuadDec_M2_COUNTER_SIZE == QuadDec_M2_COUNTER_SIZE_32_BIT)
 178:Generated_Source\PSoC5/QuadDec_M2.c ****         CyIntDisable(QuadDec_M2_ISR_NUMBER);    /* interrupt disable */
 218              		.loc 1 178 0
 219 002a 044B     		ldr	r3, .L12+4
 220 002c 0422     		movs	r2, #4
 221 002e 1A60     		str	r2, [r3]
ARM GAS  C:\Users\sela847\AppData\Local\Temp\ccFfkNPu.s 			page 8


 179:Generated_Source\PSoC5/QuadDec_M2.c ****     #endif /* QuadDec_M2_COUNTER_SIZE == QuadDec_M2_COUNTER_SIZE_32_BIT */
 180:Generated_Source\PSoC5/QuadDec_M2.c **** }
 222              		.loc 1 180 0
 223 0030 00BF     		nop
 224 0032 0837     		adds	r7, r7, #8
 225              		.cfi_def_cfa_offset 8
 226 0034 BD46     		mov	sp, r7
 227              		.cfi_def_cfa_register 13
 228              		@ sp needed
 229 0036 80BD     		pop	{r7, pc}
 230              	.L13:
 231              		.align	2
 232              	.L12:
 233 0038 94640040 		.word	1073767572
 234 003c 80E100E0 		.word	-536813184
 235              		.cfi_endproc
 236              	.LFE3:
 237              		.size	QuadDec_M2_Stop, .-QuadDec_M2_Stop
 238              		.section	.text.QuadDec_M2_GetCounter,"ax",%progbits
 239              		.align	2
 240              		.global	QuadDec_M2_GetCounter
 241              		.thumb
 242              		.thumb_func
 243              		.type	QuadDec_M2_GetCounter, %function
 244              	QuadDec_M2_GetCounter:
 245              	.LFB4:
 181:Generated_Source\PSoC5/QuadDec_M2.c **** 
 182:Generated_Source\PSoC5/QuadDec_M2.c **** 
 183:Generated_Source\PSoC5/QuadDec_M2.c **** /*******************************************************************************
 184:Generated_Source\PSoC5/QuadDec_M2.c **** * Function Name: QuadDec_M2_GetCounter
 185:Generated_Source\PSoC5/QuadDec_M2.c **** ********************************************************************************
 186:Generated_Source\PSoC5/QuadDec_M2.c **** *
 187:Generated_Source\PSoC5/QuadDec_M2.c **** * Summary:
 188:Generated_Source\PSoC5/QuadDec_M2.c **** *  Reports the current value of the counter.
 189:Generated_Source\PSoC5/QuadDec_M2.c **** *
 190:Generated_Source\PSoC5/QuadDec_M2.c **** * Parameters:
 191:Generated_Source\PSoC5/QuadDec_M2.c **** *  None.
 192:Generated_Source\PSoC5/QuadDec_M2.c **** *
 193:Generated_Source\PSoC5/QuadDec_M2.c **** * Return:
 194:Generated_Source\PSoC5/QuadDec_M2.c **** *  The counter value. Return type is signed and per the counter size setting.
 195:Generated_Source\PSoC5/QuadDec_M2.c **** *  A positive value indicates clockwise movement (B before A).
 196:Generated_Source\PSoC5/QuadDec_M2.c **** *
 197:Generated_Source\PSoC5/QuadDec_M2.c **** * Global variables:
 198:Generated_Source\PSoC5/QuadDec_M2.c **** *  QuadDec_M2_count32SoftPart - used to get hi 16 bit for current value
 199:Generated_Source\PSoC5/QuadDec_M2.c **** *  of the 32-bit counter, when Counter size equal 32-bit.
 200:Generated_Source\PSoC5/QuadDec_M2.c **** *
 201:Generated_Source\PSoC5/QuadDec_M2.c **** *******************************************************************************/
 202:Generated_Source\PSoC5/QuadDec_M2.c **** int32 QuadDec_M2_GetCounter(void) 
 203:Generated_Source\PSoC5/QuadDec_M2.c **** {
 246              		.loc 1 203 0
 247              		.cfi_startproc
 248              		@ args = 0, pretend = 0, frame = 8
 249              		@ frame_needed = 1, uses_anonymous_args = 0
 250 0000 80B5     		push	{r7, lr}
 251              		.cfi_def_cfa_offset 8
 252              		.cfi_offset 7, -8
 253              		.cfi_offset 14, -4
ARM GAS  C:\Users\sela847\AppData\Local\Temp\ccFfkNPu.s 			page 9


 254 0002 82B0     		sub	sp, sp, #8
 255              		.cfi_def_cfa_offset 16
 256 0004 00AF     		add	r7, sp, #0
 257              		.cfi_def_cfa_register 7
 204:Generated_Source\PSoC5/QuadDec_M2.c ****     int32 count;
 205:Generated_Source\PSoC5/QuadDec_M2.c ****     uint16 tmpCnt;
 206:Generated_Source\PSoC5/QuadDec_M2.c **** 
 207:Generated_Source\PSoC5/QuadDec_M2.c ****     #if (QuadDec_M2_COUNTER_SIZE == QuadDec_M2_COUNTER_SIZE_32_BIT)
 208:Generated_Source\PSoC5/QuadDec_M2.c ****         int16 hwCount;
 209:Generated_Source\PSoC5/QuadDec_M2.c **** 
 210:Generated_Source\PSoC5/QuadDec_M2.c ****         CyIntDisable(QuadDec_M2_ISR_NUMBER);
 258              		.loc 1 210 0
 259 0006 0D4B     		ldr	r3, .L16
 260 0008 0422     		movs	r2, #4
 261 000a 1A60     		str	r2, [r3]
 211:Generated_Source\PSoC5/QuadDec_M2.c **** 
 212:Generated_Source\PSoC5/QuadDec_M2.c ****         tmpCnt = QuadDec_M2_Cnt16_ReadCounter();
 262              		.loc 1 212 0
 263 000c FFF7FEFF 		bl	QuadDec_M2_Cnt16_ReadCounter
 264 0010 0346     		mov	r3, r0
 265 0012 FB80     		strh	r3, [r7, #6]	@ movhi
 213:Generated_Source\PSoC5/QuadDec_M2.c ****         hwCount = (int16) ((int32) tmpCnt - (int32) QuadDec_M2_COUNTER_INIT_VALUE);
 266              		.loc 1 213 0
 267 0014 FB88     		ldrh	r3, [r7, #6]	@ movhi
 268 0016 A3F50043 		sub	r3, r3, #32768
 269 001a 9BB2     		uxth	r3, r3
 270 001c BB80     		strh	r3, [r7, #4]	@ movhi
 214:Generated_Source\PSoC5/QuadDec_M2.c ****         count = QuadDec_M2_count32SoftPart + hwCount;
 271              		.loc 1 214 0
 272 001e B7F90420 		ldrsh	r2, [r7, #4]
 273 0022 074B     		ldr	r3, .L16+4
 274 0024 1B68     		ldr	r3, [r3]
 275 0026 1344     		add	r3, r3, r2
 276 0028 3B60     		str	r3, [r7]
 215:Generated_Source\PSoC5/QuadDec_M2.c **** 
 216:Generated_Source\PSoC5/QuadDec_M2.c ****         CyIntEnable(QuadDec_M2_ISR_NUMBER);
 277              		.loc 1 216 0
 278 002a 064B     		ldr	r3, .L16+8
 279 002c 0422     		movs	r2, #4
 280 002e 1A60     		str	r2, [r3]
 217:Generated_Source\PSoC5/QuadDec_M2.c ****     #else 
 218:Generated_Source\PSoC5/QuadDec_M2.c ****         /* (QuadDec_M2_COUNTER_SIZE == QuadDec_M2_COUNTER_SIZE_8_BIT) || 
 219:Generated_Source\PSoC5/QuadDec_M2.c ****         *  (QuadDec_M2_COUNTER_SIZE == QuadDec_M2_COUNTER_SIZE_16_BIT)
 220:Generated_Source\PSoC5/QuadDec_M2.c ****         */
 221:Generated_Source\PSoC5/QuadDec_M2.c ****         #if (QuadDec_M2_COUNTER_SIZE == QuadDec_M2_COUNTER_SIZE_8_BIT)
 222:Generated_Source\PSoC5/QuadDec_M2.c ****             tmpCnt = QuadDec_M2_Cnt8_ReadCounter();
 223:Generated_Source\PSoC5/QuadDec_M2.c ****         #else /* (QuadDec_M2_COUNTER_SIZE == QuadDec_M2_COUNTER_SIZE_16_BIT) */
 224:Generated_Source\PSoC5/QuadDec_M2.c ****             tmpCnt = QuadDec_M2_Cnt16_ReadCounter();
 225:Generated_Source\PSoC5/QuadDec_M2.c ****         #endif  /* QuadDec_M2_COUNTER_SIZE == QuadDec_M2_COUNTER_SIZE_8_BIT */
 226:Generated_Source\PSoC5/QuadDec_M2.c **** 
 227:Generated_Source\PSoC5/QuadDec_M2.c ****         count = (int32) ((int32) tmpCnt -
 228:Generated_Source\PSoC5/QuadDec_M2.c ****                 (int32) QuadDec_M2_COUNTER_INIT_VALUE);
 229:Generated_Source\PSoC5/QuadDec_M2.c **** 
 230:Generated_Source\PSoC5/QuadDec_M2.c ****     #endif /* QuadDec_M2_COUNTER_SIZE == QuadDec_M2_COUNTER_SIZE_32_BIT */ 
 231:Generated_Source\PSoC5/QuadDec_M2.c **** 
 232:Generated_Source\PSoC5/QuadDec_M2.c ****     return (count);
 281              		.loc 1 232 0
ARM GAS  C:\Users\sela847\AppData\Local\Temp\ccFfkNPu.s 			page 10


 282 0030 3B68     		ldr	r3, [r7]
 233:Generated_Source\PSoC5/QuadDec_M2.c **** }
 283              		.loc 1 233 0
 284 0032 1846     		mov	r0, r3
 285 0034 0837     		adds	r7, r7, #8
 286              		.cfi_def_cfa_offset 8
 287 0036 BD46     		mov	sp, r7
 288              		.cfi_def_cfa_register 13
 289              		@ sp needed
 290 0038 80BD     		pop	{r7, pc}
 291              	.L17:
 292 003a 00BF     		.align	2
 293              	.L16:
 294 003c 80E100E0 		.word	-536813184
 295 0040 00000000 		.word	QuadDec_M2_count32SoftPart
 296 0044 00E100E0 		.word	-536813312
 297              		.cfi_endproc
 298              	.LFE4:
 299              		.size	QuadDec_M2_GetCounter, .-QuadDec_M2_GetCounter
 300              		.section	.text.QuadDec_M2_SetCounter,"ax",%progbits
 301              		.align	2
 302              		.global	QuadDec_M2_SetCounter
 303              		.thumb
 304              		.thumb_func
 305              		.type	QuadDec_M2_SetCounter, %function
 306              	QuadDec_M2_SetCounter:
 307              	.LFB5:
 234:Generated_Source\PSoC5/QuadDec_M2.c **** 
 235:Generated_Source\PSoC5/QuadDec_M2.c **** 
 236:Generated_Source\PSoC5/QuadDec_M2.c **** /*******************************************************************************
 237:Generated_Source\PSoC5/QuadDec_M2.c **** * Function Name: QuadDec_M2_SetCounter
 238:Generated_Source\PSoC5/QuadDec_M2.c **** ********************************************************************************
 239:Generated_Source\PSoC5/QuadDec_M2.c **** *
 240:Generated_Source\PSoC5/QuadDec_M2.c **** * Summary:
 241:Generated_Source\PSoC5/QuadDec_M2.c **** *  Sets the current value of the counter.
 242:Generated_Source\PSoC5/QuadDec_M2.c **** *
 243:Generated_Source\PSoC5/QuadDec_M2.c **** * Parameters:
 244:Generated_Source\PSoC5/QuadDec_M2.c **** *  value:  The new value. Parameter type is signed and per the counter size
 245:Generated_Source\PSoC5/QuadDec_M2.c **** *  setting.
 246:Generated_Source\PSoC5/QuadDec_M2.c **** *
 247:Generated_Source\PSoC5/QuadDec_M2.c **** * Return:
 248:Generated_Source\PSoC5/QuadDec_M2.c **** *  None.
 249:Generated_Source\PSoC5/QuadDec_M2.c **** *
 250:Generated_Source\PSoC5/QuadDec_M2.c **** * Global variables:
 251:Generated_Source\PSoC5/QuadDec_M2.c **** *  QuadDec_M2_count32SoftPart - modified to set hi 16 bit for current
 252:Generated_Source\PSoC5/QuadDec_M2.c **** *  value of the 32-bit counter, when Counter size equal 32-bit.
 253:Generated_Source\PSoC5/QuadDec_M2.c **** *
 254:Generated_Source\PSoC5/QuadDec_M2.c **** * Reentrant:
 255:Generated_Source\PSoC5/QuadDec_M2.c **** *  No.
 256:Generated_Source\PSoC5/QuadDec_M2.c **** *
 257:Generated_Source\PSoC5/QuadDec_M2.c **** *******************************************************************************/
 258:Generated_Source\PSoC5/QuadDec_M2.c **** void QuadDec_M2_SetCounter(int32 value) 
 259:Generated_Source\PSoC5/QuadDec_M2.c **** {
 308              		.loc 1 259 0
 309              		.cfi_startproc
 310              		@ args = 0, pretend = 0, frame = 8
 311              		@ frame_needed = 1, uses_anonymous_args = 0
ARM GAS  C:\Users\sela847\AppData\Local\Temp\ccFfkNPu.s 			page 11


 312 0000 80B5     		push	{r7, lr}
 313              		.cfi_def_cfa_offset 8
 314              		.cfi_offset 7, -8
 315              		.cfi_offset 14, -4
 316 0002 82B0     		sub	sp, sp, #8
 317              		.cfi_def_cfa_offset 16
 318 0004 00AF     		add	r7, sp, #0
 319              		.cfi_def_cfa_register 7
 320 0006 7860     		str	r0, [r7, #4]
 260:Generated_Source\PSoC5/QuadDec_M2.c ****     #if ((QuadDec_M2_COUNTER_SIZE == QuadDec_M2_COUNTER_SIZE_8_BIT) || \
 261:Generated_Source\PSoC5/QuadDec_M2.c ****          (QuadDec_M2_COUNTER_SIZE == QuadDec_M2_COUNTER_SIZE_16_BIT))
 262:Generated_Source\PSoC5/QuadDec_M2.c ****         uint16 count;
 263:Generated_Source\PSoC5/QuadDec_M2.c ****         
 264:Generated_Source\PSoC5/QuadDec_M2.c ****         if (value >= 0)
 265:Generated_Source\PSoC5/QuadDec_M2.c ****         {
 266:Generated_Source\PSoC5/QuadDec_M2.c ****             count = (uint16) value + QuadDec_M2_COUNTER_INIT_VALUE;
 267:Generated_Source\PSoC5/QuadDec_M2.c ****         }
 268:Generated_Source\PSoC5/QuadDec_M2.c ****         else
 269:Generated_Source\PSoC5/QuadDec_M2.c ****         {
 270:Generated_Source\PSoC5/QuadDec_M2.c ****             count = QuadDec_M2_COUNTER_INIT_VALUE - (uint16)(-value);
 271:Generated_Source\PSoC5/QuadDec_M2.c ****         }
 272:Generated_Source\PSoC5/QuadDec_M2.c ****         #if (QuadDec_M2_COUNTER_SIZE == QuadDec_M2_COUNTER_SIZE_8_BIT)
 273:Generated_Source\PSoC5/QuadDec_M2.c ****             QuadDec_M2_Cnt8_WriteCounter(count);
 274:Generated_Source\PSoC5/QuadDec_M2.c ****         #else /* (QuadDec_M2_COUNTER_SIZE == QuadDec_M2_COUNTER_SIZE_16_BIT) */
 275:Generated_Source\PSoC5/QuadDec_M2.c ****             QuadDec_M2_Cnt16_WriteCounter(count);
 276:Generated_Source\PSoC5/QuadDec_M2.c ****         #endif  /* QuadDec_M2_COUNTER_SIZE == QuadDec_M2_COUNTER_SIZE_8_BIT */
 277:Generated_Source\PSoC5/QuadDec_M2.c ****     #else /* (QuadDec_M2_COUNTER_SIZE == QuadDec_M2_COUNTER_SIZE_32_BIT) */
 278:Generated_Source\PSoC5/QuadDec_M2.c ****         CyIntDisable(QuadDec_M2_ISR_NUMBER);
 321              		.loc 1 278 0
 322 0008 084B     		ldr	r3, .L19
 323 000a 0422     		movs	r2, #4
 324 000c 1A60     		str	r2, [r3]
 279:Generated_Source\PSoC5/QuadDec_M2.c **** 
 280:Generated_Source\PSoC5/QuadDec_M2.c ****         QuadDec_M2_Cnt16_WriteCounter(QuadDec_M2_COUNTER_INIT_VALUE);
 325              		.loc 1 280 0
 326 000e 4FF40040 		mov	r0, #32768
 327 0012 FFF7FEFF 		bl	QuadDec_M2_Cnt16_WriteCounter
 281:Generated_Source\PSoC5/QuadDec_M2.c ****         QuadDec_M2_count32SoftPart = value;
 328              		.loc 1 281 0
 329 0016 064A     		ldr	r2, .L19+4
 330 0018 7B68     		ldr	r3, [r7, #4]
 331 001a 1360     		str	r3, [r2]
 282:Generated_Source\PSoC5/QuadDec_M2.c **** 
 283:Generated_Source\PSoC5/QuadDec_M2.c ****         CyIntEnable(QuadDec_M2_ISR_NUMBER);
 332              		.loc 1 283 0
 333 001c 054B     		ldr	r3, .L19+8
 334 001e 0422     		movs	r2, #4
 335 0020 1A60     		str	r2, [r3]
 284:Generated_Source\PSoC5/QuadDec_M2.c ****     #endif  /* (QuadDec_M2_COUNTER_SIZE == QuadDec_M2_COUNTER_SIZE_8_BIT) ||
 285:Generated_Source\PSoC5/QuadDec_M2.c ****              * (QuadDec_M2_COUNTER_SIZE == QuadDec_M2_COUNTER_SIZE_16_BIT)
 286:Generated_Source\PSoC5/QuadDec_M2.c ****              */
 287:Generated_Source\PSoC5/QuadDec_M2.c **** }
 336              		.loc 1 287 0
 337 0022 00BF     		nop
 338 0024 0837     		adds	r7, r7, #8
 339              		.cfi_def_cfa_offset 8
 340 0026 BD46     		mov	sp, r7
ARM GAS  C:\Users\sela847\AppData\Local\Temp\ccFfkNPu.s 			page 12


 341              		.cfi_def_cfa_register 13
 342              		@ sp needed
 343 0028 80BD     		pop	{r7, pc}
 344              	.L20:
 345 002a 00BF     		.align	2
 346              	.L19:
 347 002c 80E100E0 		.word	-536813184
 348 0030 00000000 		.word	QuadDec_M2_count32SoftPart
 349 0034 00E100E0 		.word	-536813312
 350              		.cfi_endproc
 351              	.LFE5:
 352              		.size	QuadDec_M2_SetCounter, .-QuadDec_M2_SetCounter
 353              		.section	.text.QuadDec_M2_GetEvents,"ax",%progbits
 354              		.align	2
 355              		.global	QuadDec_M2_GetEvents
 356              		.thumb
 357              		.thumb_func
 358              		.type	QuadDec_M2_GetEvents, %function
 359              	QuadDec_M2_GetEvents:
 360              	.LFB6:
 288:Generated_Source\PSoC5/QuadDec_M2.c **** 
 289:Generated_Source\PSoC5/QuadDec_M2.c **** 
 290:Generated_Source\PSoC5/QuadDec_M2.c **** /*******************************************************************************
 291:Generated_Source\PSoC5/QuadDec_M2.c **** * Function Name: QuadDec_M2_GetEvents
 292:Generated_Source\PSoC5/QuadDec_M2.c **** ********************************************************************************
 293:Generated_Source\PSoC5/QuadDec_M2.c **** * 
 294:Generated_Source\PSoC5/QuadDec_M2.c **** * Summary:
 295:Generated_Source\PSoC5/QuadDec_M2.c **** *   Reports the current status of events. This function clears the bits of the 
 296:Generated_Source\PSoC5/QuadDec_M2.c **** *   status register.
 297:Generated_Source\PSoC5/QuadDec_M2.c **** *
 298:Generated_Source\PSoC5/QuadDec_M2.c **** * Parameters:
 299:Generated_Source\PSoC5/QuadDec_M2.c **** *  None.
 300:Generated_Source\PSoC5/QuadDec_M2.c **** *
 301:Generated_Source\PSoC5/QuadDec_M2.c **** * Return:
 302:Generated_Source\PSoC5/QuadDec_M2.c **** *  The events, as bits in an unsigned 8-bit value:
 303:Generated_Source\PSoC5/QuadDec_M2.c **** *    Bit      Description
 304:Generated_Source\PSoC5/QuadDec_M2.c **** *     0        Counter overflow.
 305:Generated_Source\PSoC5/QuadDec_M2.c **** *     1        Counter underflow.
 306:Generated_Source\PSoC5/QuadDec_M2.c **** *     2        Counter reset due to index, if index input is used.
 307:Generated_Source\PSoC5/QuadDec_M2.c **** *     3        Invalid A, B inputs state transition.
 308:Generated_Source\PSoC5/QuadDec_M2.c **** *
 309:Generated_Source\PSoC5/QuadDec_M2.c **** *******************************************************************************/
 310:Generated_Source\PSoC5/QuadDec_M2.c **** uint8 QuadDec_M2_GetEvents(void) 
 311:Generated_Source\PSoC5/QuadDec_M2.c **** {
 361              		.loc 1 311 0
 362              		.cfi_startproc
 363              		@ args = 0, pretend = 0, frame = 0
 364              		@ frame_needed = 1, uses_anonymous_args = 0
 365              		@ link register save eliminated.
 366 0000 80B4     		push	{r7}
 367              		.cfi_def_cfa_offset 4
 368              		.cfi_offset 7, -4
 369 0002 00AF     		add	r7, sp, #0
 370              		.cfi_def_cfa_register 7
 312:Generated_Source\PSoC5/QuadDec_M2.c ****     return (QuadDec_M2_STATUS_REG & QuadDec_M2_INIT_INT_MASK);
 371              		.loc 1 312 0
 372 0004 044B     		ldr	r3, .L23
ARM GAS  C:\Users\sela847\AppData\Local\Temp\ccFfkNPu.s 			page 13


 373 0006 1B78     		ldrb	r3, [r3]
 374 0008 DBB2     		uxtb	r3, r3
 375 000a 03F00F03 		and	r3, r3, #15
 376 000e DBB2     		uxtb	r3, r3
 313:Generated_Source\PSoC5/QuadDec_M2.c **** }
 377              		.loc 1 313 0
 378 0010 1846     		mov	r0, r3
 379 0012 BD46     		mov	sp, r7
 380              		.cfi_def_cfa_register 13
 381              		@ sp needed
 382 0014 80BC     		pop	{r7}
 383              		.cfi_restore 7
 384              		.cfi_def_cfa_offset 0
 385 0016 7047     		bx	lr
 386              	.L24:
 387              		.align	2
 388              	.L23:
 389 0018 64640040 		.word	1073767524
 390              		.cfi_endproc
 391              	.LFE6:
 392              		.size	QuadDec_M2_GetEvents, .-QuadDec_M2_GetEvents
 393              		.section	.text.QuadDec_M2_SetInterruptMask,"ax",%progbits
 394              		.align	2
 395              		.global	QuadDec_M2_SetInterruptMask
 396              		.thumb
 397              		.thumb_func
 398              		.type	QuadDec_M2_SetInterruptMask, %function
 399              	QuadDec_M2_SetInterruptMask:
 400              	.LFB7:
 314:Generated_Source\PSoC5/QuadDec_M2.c **** 
 315:Generated_Source\PSoC5/QuadDec_M2.c **** 
 316:Generated_Source\PSoC5/QuadDec_M2.c **** /*******************************************************************************
 317:Generated_Source\PSoC5/QuadDec_M2.c **** * Function Name: QuadDec_M2_SetInterruptMask
 318:Generated_Source\PSoC5/QuadDec_M2.c **** ********************************************************************************
 319:Generated_Source\PSoC5/QuadDec_M2.c **** *
 320:Generated_Source\PSoC5/QuadDec_M2.c **** * Summary:
 321:Generated_Source\PSoC5/QuadDec_M2.c **** *  Enables / disables interrupts due to the events.
 322:Generated_Source\PSoC5/QuadDec_M2.c **** *  For the 32-bit counter, the overflow, underflow and reset interrupts cannot
 323:Generated_Source\PSoC5/QuadDec_M2.c **** *  be disabled, these bits are ignored.
 324:Generated_Source\PSoC5/QuadDec_M2.c **** *
 325:Generated_Source\PSoC5/QuadDec_M2.c **** * Parameters:
 326:Generated_Source\PSoC5/QuadDec_M2.c **** *  mask: Enable / disable bits in an 8-bit value, where 1 enables the interrupt.
 327:Generated_Source\PSoC5/QuadDec_M2.c **** *
 328:Generated_Source\PSoC5/QuadDec_M2.c **** * Return:
 329:Generated_Source\PSoC5/QuadDec_M2.c **** *  None.
 330:Generated_Source\PSoC5/QuadDec_M2.c **** *
 331:Generated_Source\PSoC5/QuadDec_M2.c **** *******************************************************************************/
 332:Generated_Source\PSoC5/QuadDec_M2.c **** void QuadDec_M2_SetInterruptMask(uint8 mask) 
 333:Generated_Source\PSoC5/QuadDec_M2.c **** {
 401              		.loc 1 333 0
 402              		.cfi_startproc
 403              		@ args = 0, pretend = 0, frame = 8
 404              		@ frame_needed = 1, uses_anonymous_args = 0
 405              		@ link register save eliminated.
 406 0000 80B4     		push	{r7}
 407              		.cfi_def_cfa_offset 4
 408              		.cfi_offset 7, -4
ARM GAS  C:\Users\sela847\AppData\Local\Temp\ccFfkNPu.s 			page 14


 409 0002 83B0     		sub	sp, sp, #12
 410              		.cfi_def_cfa_offset 16
 411 0004 00AF     		add	r7, sp, #0
 412              		.cfi_def_cfa_register 7
 413 0006 0346     		mov	r3, r0
 414 0008 FB71     		strb	r3, [r7, #7]
 334:Generated_Source\PSoC5/QuadDec_M2.c ****     #if (QuadDec_M2_COUNTER_SIZE == QuadDec_M2_COUNTER_SIZE_32_BIT)
 335:Generated_Source\PSoC5/QuadDec_M2.c ****         /* Underflow, Overflow and Reset interrupts for 32-bit Counter are always enable */
 336:Generated_Source\PSoC5/QuadDec_M2.c ****         mask |= (QuadDec_M2_COUNTER_OVERFLOW | QuadDec_M2_COUNTER_UNDERFLOW |
 415              		.loc 1 336 0
 416 000a FB79     		ldrb	r3, [r7, #7]
 417 000c 43F00703 		orr	r3, r3, #7
 418 0010 FB71     		strb	r3, [r7, #7]
 337:Generated_Source\PSoC5/QuadDec_M2.c ****                  QuadDec_M2_COUNTER_RESET);
 338:Generated_Source\PSoC5/QuadDec_M2.c ****     #endif /* QuadDec_M2_COUNTER_SIZE == QuadDec_M2_COUNTER_SIZE_32_BIT */
 339:Generated_Source\PSoC5/QuadDec_M2.c **** 
 340:Generated_Source\PSoC5/QuadDec_M2.c ****     QuadDec_M2_STATUS_MASK = mask;
 419              		.loc 1 340 0
 420 0012 044A     		ldr	r2, .L26
 421 0014 FB79     		ldrb	r3, [r7, #7]
 422 0016 1370     		strb	r3, [r2]
 341:Generated_Source\PSoC5/QuadDec_M2.c **** }
 423              		.loc 1 341 0
 424 0018 00BF     		nop
 425 001a 0C37     		adds	r7, r7, #12
 426              		.cfi_def_cfa_offset 4
 427 001c BD46     		mov	sp, r7
 428              		.cfi_def_cfa_register 13
 429              		@ sp needed
 430 001e 80BC     		pop	{r7}
 431              		.cfi_restore 7
 432              		.cfi_def_cfa_offset 0
 433 0020 7047     		bx	lr
 434              	.L27:
 435 0022 00BF     		.align	2
 436              	.L26:
 437 0024 84640040 		.word	1073767556
 438              		.cfi_endproc
 439              	.LFE7:
 440              		.size	QuadDec_M2_SetInterruptMask, .-QuadDec_M2_SetInterruptMask
 441              		.section	.text.QuadDec_M2_GetInterruptMask,"ax",%progbits
 442              		.align	2
 443              		.global	QuadDec_M2_GetInterruptMask
 444              		.thumb
 445              		.thumb_func
 446              		.type	QuadDec_M2_GetInterruptMask, %function
 447              	QuadDec_M2_GetInterruptMask:
 448              	.LFB8:
 342:Generated_Source\PSoC5/QuadDec_M2.c **** 
 343:Generated_Source\PSoC5/QuadDec_M2.c **** 
 344:Generated_Source\PSoC5/QuadDec_M2.c **** /*******************************************************************************
 345:Generated_Source\PSoC5/QuadDec_M2.c **** * Function Name: QuadDec_M2_GetInterruptMask
 346:Generated_Source\PSoC5/QuadDec_M2.c **** ********************************************************************************
 347:Generated_Source\PSoC5/QuadDec_M2.c **** *
 348:Generated_Source\PSoC5/QuadDec_M2.c **** * Summary:
 349:Generated_Source\PSoC5/QuadDec_M2.c **** *  Reports the current interrupt mask settings.
 350:Generated_Source\PSoC5/QuadDec_M2.c **** *
ARM GAS  C:\Users\sela847\AppData\Local\Temp\ccFfkNPu.s 			page 15


 351:Generated_Source\PSoC5/QuadDec_M2.c **** * Parameters:
 352:Generated_Source\PSoC5/QuadDec_M2.c **** *  None.
 353:Generated_Source\PSoC5/QuadDec_M2.c **** *
 354:Generated_Source\PSoC5/QuadDec_M2.c **** * Return:
 355:Generated_Source\PSoC5/QuadDec_M2.c **** *  Enable / disable bits in an 8-bit value, where 1 enables the interrupt.
 356:Generated_Source\PSoC5/QuadDec_M2.c **** *  For the 32-bit counter, the overflow, underflow and reset enable bits are
 357:Generated_Source\PSoC5/QuadDec_M2.c **** *  always set.
 358:Generated_Source\PSoC5/QuadDec_M2.c **** *
 359:Generated_Source\PSoC5/QuadDec_M2.c **** *******************************************************************************/
 360:Generated_Source\PSoC5/QuadDec_M2.c **** uint8 QuadDec_M2_GetInterruptMask(void) 
 361:Generated_Source\PSoC5/QuadDec_M2.c **** {
 449              		.loc 1 361 0
 450              		.cfi_startproc
 451              		@ args = 0, pretend = 0, frame = 0
 452              		@ frame_needed = 1, uses_anonymous_args = 0
 453              		@ link register save eliminated.
 454 0000 80B4     		push	{r7}
 455              		.cfi_def_cfa_offset 4
 456              		.cfi_offset 7, -4
 457 0002 00AF     		add	r7, sp, #0
 458              		.cfi_def_cfa_register 7
 362:Generated_Source\PSoC5/QuadDec_M2.c ****     return (QuadDec_M2_STATUS_MASK & QuadDec_M2_INIT_INT_MASK);
 459              		.loc 1 362 0
 460 0004 044B     		ldr	r3, .L30
 461 0006 1B78     		ldrb	r3, [r3]
 462 0008 DBB2     		uxtb	r3, r3
 463 000a 03F00F03 		and	r3, r3, #15
 464 000e DBB2     		uxtb	r3, r3
 363:Generated_Source\PSoC5/QuadDec_M2.c **** }
 465              		.loc 1 363 0
 466 0010 1846     		mov	r0, r3
 467 0012 BD46     		mov	sp, r7
 468              		.cfi_def_cfa_register 13
 469              		@ sp needed
 470 0014 80BC     		pop	{r7}
 471              		.cfi_restore 7
 472              		.cfi_def_cfa_offset 0
 473 0016 7047     		bx	lr
 474              	.L31:
 475              		.align	2
 476              	.L30:
 477 0018 84640040 		.word	1073767556
 478              		.cfi_endproc
 479              	.LFE8:
 480              		.size	QuadDec_M2_GetInterruptMask, .-QuadDec_M2_GetInterruptMask
 481              		.text
 482              	.Letext0:
 483              		.file 2 "Generated_Source\\PSoC5\\cytypes.h"
 484              		.file 3 "Generated_Source\\PSoC5\\QuadDec_M2_PVT.h"