ARM GAS  C:\Users\sela847\AppData\Local\Temp\ccNEkrbe.s 			page 1


   1              		.syntax unified
   2              		.cpu cortex-m3
   3              		.fpu softvfp
   4              		.eabi_attribute 20, 1
   5              		.eabi_attribute 21, 1
   6              		.eabi_attribute 23, 3
   7              		.eabi_attribute 24, 1
   8              		.eabi_attribute 25, 1
   9              		.eabi_attribute 26, 1
  10              		.eabi_attribute 30, 6
  11              		.eabi_attribute 34, 1
  12              		.eabi_attribute 18, 4
  13              		.thumb
  14              		.syntax unified
  15              		.file	"QuadDec_M2_INT.c"
  16              		.text
  17              	.Ltext0:
  18              		.cfi_sections	.debug_frame
  19              		.global	QuadDec_M2_count32SoftPart
  20              		.bss
  21              		.align	2
  22              		.type	QuadDec_M2_count32SoftPart, %object
  23              		.size	QuadDec_M2_count32SoftPart, 4
  24              	QuadDec_M2_count32SoftPart:
  25 0000 00000000 		.space	4
  26              		.section	.text.QuadDec_M2_ISR,"ax",%progbits
  27              		.align	2
  28              		.global	QuadDec_M2_ISR
  29              		.thumb
  30              		.thumb_func
  31              		.type	QuadDec_M2_ISR, %function
  32              	QuadDec_M2_ISR:
  33              	.LFB0:
  34              		.file 1 "Generated_Source\\PSoC5\\QuadDec_M2_INT.c"
   1:Generated_Source\PSoC5/QuadDec_M2_INT.c **** /*******************************************************************************
   2:Generated_Source\PSoC5/QuadDec_M2_INT.c **** * File Name: QuadDec_M2_INT.c
   3:Generated_Source\PSoC5/QuadDec_M2_INT.c **** * Version 3.0
   4:Generated_Source\PSoC5/QuadDec_M2_INT.c **** *
   5:Generated_Source\PSoC5/QuadDec_M2_INT.c **** * Description:
   6:Generated_Source\PSoC5/QuadDec_M2_INT.c **** *  This file contains the Interrupt Service Routine (ISR) for the Quadrature
   7:Generated_Source\PSoC5/QuadDec_M2_INT.c **** *  Decoder component.
   8:Generated_Source\PSoC5/QuadDec_M2_INT.c **** *
   9:Generated_Source\PSoC5/QuadDec_M2_INT.c **** * Note:
  10:Generated_Source\PSoC5/QuadDec_M2_INT.c **** *  None.
  11:Generated_Source\PSoC5/QuadDec_M2_INT.c **** *
  12:Generated_Source\PSoC5/QuadDec_M2_INT.c **** ********************************************************************************
  13:Generated_Source\PSoC5/QuadDec_M2_INT.c **** * Copyright 2008-2014, Cypress Semiconductor Corporation.  All rights reserved.
  14:Generated_Source\PSoC5/QuadDec_M2_INT.c **** * You may use this file only in accordance with the license, terms, conditions, 
  15:Generated_Source\PSoC5/QuadDec_M2_INT.c **** * disclaimers, and limitations in the end user license agreement accompanying
  16:Generated_Source\PSoC5/QuadDec_M2_INT.c **** * the software package with which this file was provided.
  17:Generated_Source\PSoC5/QuadDec_M2_INT.c **** *******************************************************************************/
  18:Generated_Source\PSoC5/QuadDec_M2_INT.c **** 
  19:Generated_Source\PSoC5/QuadDec_M2_INT.c **** #include "QuadDec_M2.h"
  20:Generated_Source\PSoC5/QuadDec_M2_INT.c **** #include "QuadDec_M2_PVT.h"
  21:Generated_Source\PSoC5/QuadDec_M2_INT.c **** 
  22:Generated_Source\PSoC5/QuadDec_M2_INT.c **** 
  23:Generated_Source\PSoC5/QuadDec_M2_INT.c **** volatile int32 QuadDec_M2_count32SoftPart = 0;
ARM GAS  C:\Users\sela847\AppData\Local\Temp\ccNEkrbe.s 			page 2


  24:Generated_Source\PSoC5/QuadDec_M2_INT.c **** 
  25:Generated_Source\PSoC5/QuadDec_M2_INT.c **** 
  26:Generated_Source\PSoC5/QuadDec_M2_INT.c **** /*******************************************************************************
  27:Generated_Source\PSoC5/QuadDec_M2_INT.c **** * FUNCTION NAME: void QuadDec_M2_ISR
  28:Generated_Source\PSoC5/QuadDec_M2_INT.c **** ********************************************************************************
  29:Generated_Source\PSoC5/QuadDec_M2_INT.c **** *
  30:Generated_Source\PSoC5/QuadDec_M2_INT.c **** * Summary:
  31:Generated_Source\PSoC5/QuadDec_M2_INT.c **** *  Interrupt Service Routine for Quadrature Decoder Component.
  32:Generated_Source\PSoC5/QuadDec_M2_INT.c **** *
  33:Generated_Source\PSoC5/QuadDec_M2_INT.c **** * Parameters:
  34:Generated_Source\PSoC5/QuadDec_M2_INT.c **** *  None.
  35:Generated_Source\PSoC5/QuadDec_M2_INT.c **** *
  36:Generated_Source\PSoC5/QuadDec_M2_INT.c **** * Return:
  37:Generated_Source\PSoC5/QuadDec_M2_INT.c **** *  None.
  38:Generated_Source\PSoC5/QuadDec_M2_INT.c **** *
  39:Generated_Source\PSoC5/QuadDec_M2_INT.c **** * Global variables:
  40:Generated_Source\PSoC5/QuadDec_M2_INT.c **** *  QuadDec_M2_count32SoftPart - modified to update hi 16 bit for current
  41:Generated_Source\PSoC5/QuadDec_M2_INT.c **** *  value of the 32-bit counter, when Counter size equal 32-bit.
  42:Generated_Source\PSoC5/QuadDec_M2_INT.c **** *  QuadDec_M2_swStatus - modified with the updated values of STATUS
  43:Generated_Source\PSoC5/QuadDec_M2_INT.c **** *  register.
  44:Generated_Source\PSoC5/QuadDec_M2_INT.c **** *
  45:Generated_Source\PSoC5/QuadDec_M2_INT.c **** *******************************************************************************/
  46:Generated_Source\PSoC5/QuadDec_M2_INT.c **** CY_ISR( QuadDec_M2_ISR )
  47:Generated_Source\PSoC5/QuadDec_M2_INT.c **** {
  35              		.loc 1 47 0
  36              		.cfi_startproc
  37              		@ args = 0, pretend = 0, frame = 8
  38              		@ frame_needed = 1, uses_anonymous_args = 0
  39              		@ link register save eliminated.
  40 0000 80B4     		push	{r7}
  41              		.cfi_def_cfa_offset 4
  42              		.cfi_offset 7, -4
  43 0002 83B0     		sub	sp, sp, #12
  44              		.cfi_def_cfa_offset 16
  45 0004 00AF     		add	r7, sp, #0
  46              		.cfi_def_cfa_register 7
  48:Generated_Source\PSoC5/QuadDec_M2_INT.c ****    uint8 QuadDec_M2_swStatus;
  49:Generated_Source\PSoC5/QuadDec_M2_INT.c **** 
  50:Generated_Source\PSoC5/QuadDec_M2_INT.c ****    QuadDec_M2_swStatus = QuadDec_M2_STATUS_REG;
  47              		.loc 1 50 0
  48 0006 144B     		ldr	r3, .L6
  49 0008 1B78     		ldrb	r3, [r3]
  50 000a FB71     		strb	r3, [r7, #7]
  51:Generated_Source\PSoC5/QuadDec_M2_INT.c **** 
  52:Generated_Source\PSoC5/QuadDec_M2_INT.c ****     #ifdef QuadDec_M2_ISR_ENTRY_CALLBACK
  53:Generated_Source\PSoC5/QuadDec_M2_INT.c ****         QuadDec_M2_ISR_EntryCallback();
  54:Generated_Source\PSoC5/QuadDec_M2_INT.c ****     #endif /* QuadDec_M2_ISR_ENTRY_CALLBACK */
  55:Generated_Source\PSoC5/QuadDec_M2_INT.c **** 
  56:Generated_Source\PSoC5/QuadDec_M2_INT.c ****     /* User code required at start of ISR */
  57:Generated_Source\PSoC5/QuadDec_M2_INT.c ****     /* `#START QuadDec_M2_ISR_START` */
  58:Generated_Source\PSoC5/QuadDec_M2_INT.c **** 
  59:Generated_Source\PSoC5/QuadDec_M2_INT.c ****     /* `#END` */
  60:Generated_Source\PSoC5/QuadDec_M2_INT.c **** 
  61:Generated_Source\PSoC5/QuadDec_M2_INT.c ****     if (0u != (QuadDec_M2_swStatus & QuadDec_M2_COUNTER_OVERFLOW))
  51              		.loc 1 61 0
  52 000c FB79     		ldrb	r3, [r7, #7]	@ zero_extendqisi2
  53 000e 03F00103 		and	r3, r3, #1
ARM GAS  C:\Users\sela847\AppData\Local\Temp\ccNEkrbe.s 			page 3


  54 0012 002B     		cmp	r3, #0
  55 0014 07D0     		beq	.L2
  62:Generated_Source\PSoC5/QuadDec_M2_INT.c ****     {
  63:Generated_Source\PSoC5/QuadDec_M2_INT.c ****         QuadDec_M2_count32SoftPart += (int32) QuadDec_M2_COUNTER_MAX_VALUE;
  56              		.loc 1 63 0
  57 0016 114B     		ldr	r3, .L6+4
  58 0018 1B68     		ldr	r3, [r3]
  59 001a 03F5FF43 		add	r3, r3, #32640
  60 001e 7F33     		adds	r3, r3, #127
  61 0020 0E4A     		ldr	r2, .L6+4
  62 0022 1360     		str	r3, [r2]
  63 0024 0AE0     		b	.L3
  64              	.L2:
  64:Generated_Source\PSoC5/QuadDec_M2_INT.c ****     }
  65:Generated_Source\PSoC5/QuadDec_M2_INT.c ****     else if (0u != (QuadDec_M2_swStatus & QuadDec_M2_COUNTER_UNDERFLOW))
  65              		.loc 1 65 0
  66 0026 FB79     		ldrb	r3, [r7, #7]	@ zero_extendqisi2
  67 0028 03F00203 		and	r3, r3, #2
  68 002c 002B     		cmp	r3, #0
  69 002e 05D0     		beq	.L3
  66:Generated_Source\PSoC5/QuadDec_M2_INT.c ****     {
  67:Generated_Source\PSoC5/QuadDec_M2_INT.c ****         QuadDec_M2_count32SoftPart -= (int32) QuadDec_M2_COUNTER_INIT_VALUE;
  70              		.loc 1 67 0
  71 0030 0A4B     		ldr	r3, .L6+4
  72 0032 1B68     		ldr	r3, [r3]
  73 0034 A3F50043 		sub	r3, r3, #32768
  74 0038 084A     		ldr	r2, .L6+4
  75 003a 1360     		str	r3, [r2]
  76              	.L3:
  68:Generated_Source\PSoC5/QuadDec_M2_INT.c ****     }
  69:Generated_Source\PSoC5/QuadDec_M2_INT.c ****     else
  70:Generated_Source\PSoC5/QuadDec_M2_INT.c ****     {
  71:Generated_Source\PSoC5/QuadDec_M2_INT.c ****         /* Nothing to do here */
  72:Generated_Source\PSoC5/QuadDec_M2_INT.c ****     }
  73:Generated_Source\PSoC5/QuadDec_M2_INT.c ****     
  74:Generated_Source\PSoC5/QuadDec_M2_INT.c ****     if (0u != (QuadDec_M2_swStatus & QuadDec_M2_COUNTER_RESET))
  77              		.loc 1 74 0
  78 003c FB79     		ldrb	r3, [r7, #7]	@ zero_extendqisi2
  79 003e 03F00403 		and	r3, r3, #4
  80 0042 002B     		cmp	r3, #0
  81 0044 02D0     		beq	.L5
  75:Generated_Source\PSoC5/QuadDec_M2_INT.c ****     {
  76:Generated_Source\PSoC5/QuadDec_M2_INT.c ****         QuadDec_M2_count32SoftPart = 0;
  82              		.loc 1 76 0
  83 0046 054B     		ldr	r3, .L6+4
  84 0048 0022     		movs	r2, #0
  85 004a 1A60     		str	r2, [r3]
  86              	.L5:
  77:Generated_Source\PSoC5/QuadDec_M2_INT.c ****     }
  78:Generated_Source\PSoC5/QuadDec_M2_INT.c ****     
  79:Generated_Source\PSoC5/QuadDec_M2_INT.c ****     /* User code required at end of ISR */
  80:Generated_Source\PSoC5/QuadDec_M2_INT.c ****     /* `#START QuadDec_M2_ISR_END` */
  81:Generated_Source\PSoC5/QuadDec_M2_INT.c **** 
  82:Generated_Source\PSoC5/QuadDec_M2_INT.c ****     /* `#END` */
  83:Generated_Source\PSoC5/QuadDec_M2_INT.c **** 
  84:Generated_Source\PSoC5/QuadDec_M2_INT.c ****     #ifdef QuadDec_M2_ISR_EXIT_CALLBACK
  85:Generated_Source\PSoC5/QuadDec_M2_INT.c ****         QuadDec_M2_ISR_ExitCallback();
ARM GAS  C:\Users\sela847\AppData\Local\Temp\ccNEkrbe.s 			page 4


  86:Generated_Source\PSoC5/QuadDec_M2_INT.c ****     #endif /* QuadDec_M2_ISR_EXIT_CALLBACK */
  87:Generated_Source\PSoC5/QuadDec_M2_INT.c **** }
  87              		.loc 1 87 0
  88 004c 00BF     		nop
  89 004e 0C37     		adds	r7, r7, #12
  90              		.cfi_def_cfa_offset 4
  91 0050 BD46     		mov	sp, r7
  92              		.cfi_def_cfa_register 13
  93              		@ sp needed
  94 0052 80BC     		pop	{r7}
  95              		.cfi_restore 7
  96              		.cfi_def_cfa_offset 0
  97 0054 7047     		bx	lr
  98              	.L7:
  99 0056 00BF     		.align	2
 100              	.L6:
 101 0058 64650040 		.word	1073767780
 102 005c 00000000 		.word	QuadDec_M2_count32SoftPart
 103              		.cfi_endproc
 104              	.LFE0:
 105              		.size	QuadDec_M2_ISR, .-QuadDec_M2_ISR
 106              		.text
 107              	.Letext0:
 108              		.file 2 "Generated_Source\\PSoC5\\cytypes.h"