ARM GAS  C:\Users\sela847\AppData\Local\Temp\ccmw0Jyb.s 			page 1


   1              		.syntax unified
   2              		.cpu cortex-m3
   3              		.fpu softvfp
   4              		.eabi_attribute 20, 1
   5              		.eabi_attribute 21, 1
   6              		.eabi_attribute 23, 3
   7              		.eabi_attribute 24, 1
   8              		.eabi_attribute 25, 1
   9              		.eabi_attribute 26, 1
  10              		.eabi_attribute 30, 6
  11              		.eabi_attribute 34, 1
  12              		.eabi_attribute 18, 4
  13              		.thumb
  14              		.syntax unified
  15              		.file	"main.c"
  16              		.text
  17              	.Ltext0:
  18              		.cfi_sections	.debug_frame
  19              		.global	ts
  20              		.bss
  21              		.type	ts, %object
  22              		.size	ts, 1
  23              	ts:
  24 0000 00       		.space	1
  25              		.global	ts_enc
  26 0001 00       		.align	1
  27              		.type	ts_enc, %object
  28              		.size	ts_enc, 2
  29              	ts_enc:
  30 0002 0000     		.space	2
  31              		.global	ts_update
  32              		.align	1
  33              		.type	ts_update, %object
  34              		.size	ts_update, 2
  35              	ts_update:
  36 0004 0000     		.space	2
  37              		.global	ts_speed
  38              		.align	1
  39              		.type	ts_speed, %object
  40              		.size	ts_speed, 2
  41              	ts_speed:
  42 0006 0000     		.space	2
  43              		.global	ts_display
  44              		.align	1
  45              		.type	ts_display, %object
  46              		.size	ts_display, 2
  47              	ts_display:
  48 0008 0000     		.space	2
  49              		.global	flag_ts_enc
  50              		.type	flag_ts_enc, %object
  51              		.size	flag_ts_enc, 1
  52              	flag_ts_enc:
  53 000a 00       		.space	1
  54              		.global	flag_ts_update
  55              		.type	flag_ts_update, %object
  56              		.size	flag_ts_update, 1
  57              	flag_ts_update:
ARM GAS  C:\Users\sela847\AppData\Local\Temp\ccmw0Jyb.s 			page 2


  58 000b 00       		.space	1
  59              		.global	flag_ts_speed
  60              		.type	flag_ts_speed, %object
  61              		.size	flag_ts_speed, 1
  62              	flag_ts_speed:
  63 000c 00       		.space	1
  64              		.global	flag_ts_display
  65              		.type	flag_ts_display, %object
  66              		.size	flag_ts_display, 1
  67              	flag_ts_display:
  68 000d 00       		.space	1
  69              		.global	flag_rx
  70              		.type	flag_rx, %object
  71              		.size	flag_rx, 1
  72              	flag_rx:
  73 000e 00       		.space	1
  74              		.global	flag_packet
  75              		.type	flag_packet, %object
  76              		.size	flag_packet, 1
  77              	flag_packet:
  78 000f 00       		.space	1
  79              		.global	flag_KB_string
  80              		.type	flag_KB_string, %object
  81              		.size	flag_KB_string, 1
  82              	flag_KB_string:
  83 0010 00       		.space	1
  84              		.global	dataready_flag
  85              		.type	dataready_flag, %object
  86              		.size	dataready_flag, 1
  87              	dataready_flag:
  88 0011 00       		.space	1
  89              		.global	flag_rf_transmission_active
  90              		.data
  91              		.type	flag_rf_transmission_active, %object
  92              		.size	flag_rf_transmission_active, 1
  93              	flag_rf_transmission_active:
  94 0000 0A       		.byte	10
  95              		.global	displaystring
  96 0001 000000   		.align	2
  97              		.type	displaystring, %object
  98              		.size	displaystring, 64
  99              	displaystring:
 100 0004 43533330 		.ascii	"CS301 2016\012\015\000"
 100      31203230 
 100      31360A0D 
 100      00
 101 0011 00000000 		.space	51
 101      00000000 
 101      00000000 
 101      00000000 
 101      00000000 
 102              		.comm	line,64,4
 103              		.comm	entry,64,4
 104              		.comm	usbBuffer,64,4
 105              		.comm	system_state,32,4
 106              		.global	printSpeed
 107              		.bss
ARM GAS  C:\Users\sela847\AppData\Local\Temp\ccmw0Jyb.s 			page 3


 108              		.align	1
 109              		.type	printSpeed, %object
 110              		.size	printSpeed, 2
 111              	printSpeed:
 112 0012 0000     		.space	2
 113              		.global	m1
 114              		.align	1
 115              		.type	m1, %object
 116              		.size	m1, 2
 117              	m1:
 118 0014 0000     		.space	2
 119              		.global	m2
 120              		.align	1
 121              		.type	m2, %object
 122              		.size	m2, 2
 123              	m2:
 124 0016 0000     		.space	2
 125              		.section	.text.garb,"ax",%progbits
 126              		.align	2
 127              		.global	garb
 128              		.thumb
 129              		.thumb_func
 130              		.type	garb, %function
 131              	garb:
 132              	.LFB64:
 133              		.file 1 "main.c"
   1:main.c        **** /* ========================================
   2:main.c        ****  * Fully working code: 
   3:main.c        ****  * PWM      : 
   4:main.c        ****  * Encoder  : 
   5:main.c        ****  * ADC      :
   6:main.c        ****  * USB      : port displays speed and position.
   7:main.c        ****  * CMD: "PW xx"
   8:main.c        ****  * Copyright Univ of Auckland, 2016
   9:main.c        ****  * All Rights Reserved
  10:main.c        ****  * UNPUBLISHED, LICENSED SOFTWARE.
  11:main.c        ****  *
  12:main.c        ****  * CONFIDENTIAL AND PROPRIETARY INFORMATION
  13:main.c        ****  * WHICH IS THE PROPERTY OF Univ of Auckland.
  14:main.c        ****  *
  15:main.c        ****  * ========================================
  16:main.c        **** */
  17:main.c        **** #include <stdio.h>
  18:main.c        **** #include <string.h>
  19:main.c        **** #include <stdlib.h>
  20:main.c        **** #include <project.h>
  21:main.c        **** //* ========================================
  22:main.c        **** #include "defines.h"
  23:main.c        **** #include "vars.h"
  24:main.c        **** //* ========================================
  25:main.c        **** void usbPutString(char *s);
  26:main.c        **** void usbPutChar(char c);
  27:main.c        **** void handle_usb();
  28:main.c        **** void checkPWMCommand(const char *input);
  29:main.c        **** void setPWMDuty(int duty);
  30:main.c        **** void setPWMFreq(int peri);
  31:main.c        **** //* ========================================
ARM GAS  C:\Users\sela847\AppData\Local\Temp\ccmw0Jyb.s 			page 4


  32:main.c        **** uint16_t printSpeed = 0;
  33:main.c        **** uint16_t m1 = 0;
  34:main.c        **** uint16_t m2 = 0;
  35:main.c        **** CY_ISR(garb) {
 134              		.loc 1 35 0
 135              		.cfi_startproc
 136              		@ args = 0, pretend = 0, frame = 0
 137              		@ frame_needed = 1, uses_anonymous_args = 0
 138 0000 80B5     		push	{r7, lr}
 139              		.cfi_def_cfa_offset 8
 140              		.cfi_offset 7, -8
 141              		.cfi_offset 14, -4
 142 0002 00AF     		add	r7, sp, #0
 143              		.cfi_def_cfa_register 7
  36:main.c        ****    m1 = QuadDec_M1_GetCounter();
 144              		.loc 1 36 0
 145 0004 FFF7FEFF 		bl	QuadDec_M1_GetCounter
 146 0008 0346     		mov	r3, r0
 147 000a 9AB2     		uxth	r2, r3
 148 000c 0A4B     		ldr	r3, .L2
 149 000e 1A80     		strh	r2, [r3]	@ movhi
  37:main.c        ****    m2 = QuadDec_M2_GetCounter();
 150              		.loc 1 37 0
 151 0010 FFF7FEFF 		bl	QuadDec_M2_GetCounter
 152 0014 0346     		mov	r3, r0
 153 0016 9AB2     		uxth	r2, r3
 154 0018 084B     		ldr	r3, .L2+4
 155 001a 1A80     		strh	r2, [r3]	@ movhi
  38:main.c        ****     
  39:main.c        ****     QuadDec_M1_Stop();
 156              		.loc 1 39 0
 157 001c FFF7FEFF 		bl	QuadDec_M1_Stop
  40:main.c        ****     QuadDec_M2_Stop();
 158              		.loc 1 40 0
 159 0020 FFF7FEFF 		bl	QuadDec_M2_Stop
  41:main.c        ****     QuadDec_M1_SetCounter(0);
 160              		.loc 1 41 0
 161 0024 0020     		movs	r0, #0
 162 0026 FFF7FEFF 		bl	QuadDec_M1_SetCounter
  42:main.c        ****     QuadDec_M2_SetCounter(0);
 163              		.loc 1 42 0
 164 002a 0020     		movs	r0, #0
 165 002c FFF7FEFF 		bl	QuadDec_M2_SetCounter
  43:main.c        ****     Timer_1_ReadStatusRegister();
 166              		.loc 1 43 0
 167 0030 FFF7FEFF 		bl	Timer_1_ReadStatusRegister
  44:main.c        **** }
 168              		.loc 1 44 0
 169 0034 00BF     		nop
 170 0036 80BD     		pop	{r7, pc}
 171              	.L3:
 172              		.align	2
 173              	.L2:
 174 0038 00000000 		.word	m1
 175 003c 00000000 		.word	m2
 176              		.cfi_endproc
 177              	.LFE64:
ARM GAS  C:\Users\sela847\AppData\Local\Temp\ccmw0Jyb.s 			page 5


 178              		.size	garb, .-garb
 179              		.section	.text.printUart,"ax",%progbits
 180              		.align	2
 181              		.global	printUart
 182              		.thumb
 183              		.thumb_func
 184              		.type	printUart, %function
 185              	printUart:
 186              	.LFB65:
  45:main.c        **** CY_ISR(printUart) {
 187              		.loc 1 45 0
 188              		.cfi_startproc
 189              		@ args = 0, pretend = 0, frame = 0
 190              		@ frame_needed = 1, uses_anonymous_args = 0
 191 0000 80B5     		push	{r7, lr}
 192              		.cfi_def_cfa_offset 8
 193              		.cfi_offset 7, -8
 194              		.cfi_offset 14, -4
 195 0002 00AF     		add	r7, sp, #0
 196              		.cfi_def_cfa_register 7
  46:main.c        ****     printSpeed = 1; // Print the speed every like 200ms
 197              		.loc 1 46 0
 198 0004 064B     		ldr	r3, .L5
 199 0006 0122     		movs	r2, #1
 200 0008 1A80     		strh	r2, [r3]	@ movhi
  47:main.c        ****     
  48:main.c        ****     
  49:main.c        ****     QuadDec_M1_SetCounter(0);
 201              		.loc 1 49 0
 202 000a 0020     		movs	r0, #0
 203 000c FFF7FEFF 		bl	QuadDec_M1_SetCounter
  50:main.c        ****     QuadDec_M2_SetCounter(0);
 204              		.loc 1 50 0
 205 0010 0020     		movs	r0, #0
 206 0012 FFF7FEFF 		bl	QuadDec_M2_SetCounter
  51:main.c        ****     
  52:main.c        ****     //stop = 1;
  53:main.c        ****     Timer_TS_ReadStatusRegister();      
 207              		.loc 1 53 0
 208 0016 FFF7FEFF 		bl	Timer_TS_ReadStatusRegister
  54:main.c        **** }
 209              		.loc 1 54 0
 210 001a 00BF     		nop
 211 001c 80BD     		pop	{r7, pc}
 212              	.L6:
 213 001e 00BF     		.align	2
 214              	.L5:
 215 0020 00000000 		.word	printSpeed
 216              		.cfi_endproc
 217              	.LFE65:
 218              		.size	printUart, .-printUart
 219              		.section	.rodata
 220              		.align	2
 221              	.LC0:
 222 0000 0D0A204D 		.ascii	"\015\012 M1:\000"
 222      313A00
 223              		.global	__aeabi_ui2f
ARM GAS  C:\Users\sela847\AppData\Local\Temp\ccmw0Jyb.s 			page 6


 224              		.global	__aeabi_f2iz
 225 0007 00       		.align	2
 226              	.LC1:
 227 0008 0D0A00   		.ascii	"\015\012\000"
 228 000b 00       		.align	2
 229              	.LC2:
 230 000c 0D0A204D 		.ascii	"\015\012 M2:\000"
 230      323A00
 231 0013 00       		.align	2
 232              	.LC3:
 233 0014 0D0A2065 		.ascii	"\015\012 end \015\012\000"
 233      6E64200D 
 233      0A00
 234              		.section	.text.main,"ax",%progbits
 235              		.align	2
 236              		.global	main
 237              		.thumb
 238              		.thumb_func
 239              		.type	main, %function
 240              	main:
 241              	.LFB66:
  55:main.c        **** int main()
  56:main.c        **** {
 242              		.loc 1 56 0
 243              		.cfi_startproc
 244              		@ args = 0, pretend = 0, frame = 64
 245              		@ frame_needed = 1, uses_anonymous_args = 0
 246 0000 80B5     		push	{r7, lr}
 247              		.cfi_def_cfa_offset 8
 248              		.cfi_offset 7, -8
 249              		.cfi_offset 14, -4
 250 0002 90B0     		sub	sp, sp, #64
 251              		.cfi_def_cfa_offset 72
 252 0004 00AF     		add	r7, sp, #0
 253              		.cfi_def_cfa_register 7
  57:main.c        ****     PWM_1_WritePeriod(255);
 254              		.loc 1 57 0
 255 0006 FF20     		movs	r0, #255
 256 0008 FFF7FEFF 		bl	PWM_1_WritePeriod
  58:main.c        ****     PWM_1_Start();
 257              		.loc 1 58 0
 258 000c FFF7FEFF 		bl	PWM_1_Start
  59:main.c        ****     PWM_1_WriteCompare(170);
 259              		.loc 1 59 0
 260 0010 AA20     		movs	r0, #170
 261 0012 FFF7FEFF 		bl	PWM_1_WriteCompare
  60:main.c        ****     QuadDec_M1_Start();
 262              		.loc 1 60 0
 263 0016 FFF7FEFF 		bl	QuadDec_M1_Start
  61:main.c        ****     QuadDec_M2_Start();
 264              		.loc 1 61 0
 265 001a FFF7FEFF 		bl	QuadDec_M2_Start
  62:main.c        ****     
  63:main.c        ****     PWM_2_WritePeriod(255);
 266              		.loc 1 63 0
 267 001e FF20     		movs	r0, #255
 268 0020 FFF7FEFF 		bl	PWM_2_WritePeriod
ARM GAS  C:\Users\sela847\AppData\Local\Temp\ccmw0Jyb.s 			page 7


  64:main.c        ****     PWM_2_Start();
 269              		.loc 1 64 0
 270 0024 FFF7FEFF 		bl	PWM_2_Start
  65:main.c        ****     PWM_2_WriteCompare(170);
 271              		.loc 1 65 0
 272 0028 AA20     		movs	r0, #170
 273 002a FFF7FEFF 		bl	PWM_2_WriteCompare
  66:main.c        ****     LED_Write(1);
 274              		.loc 1 66 0
 275 002e 0120     		movs	r0, #1
 276 0030 FFF7FEFF 		bl	LED_Write
  67:main.c        **** 
  68:main.c        **** // --------------------------------    
  69:main.c        **** // ----- INITIALIZATIONS ----------
  70:main.c        ****     CYGlobalIntEnable;
 277              		.loc 1 70 0
 278              		.syntax unified
 279              	@ 70 "main.c" 1
 280 0034 62B6     		CPSIE   i
 281              	@ 0 "" 2
  71:main.c        ****     
  72:main.c        **** 
  73:main.c        **** // ------USB SETUP ----------------    
  74:main.c        **** #ifdef USE_USB    
  75:main.c        ****     USBUART_Start(0,USBUART_5V_OPERATION);
 282              		.loc 1 75 0
 283              		.thumb
 284              		.syntax unified
 285 0036 0121     		movs	r1, #1
 286 0038 0020     		movs	r0, #0
 287 003a FFF7FEFF 		bl	USBUART_Start
  76:main.c        **** #endif        
  77:main.c        ****     M2_INV_Write(1);
 288              		.loc 1 77 0
 289 003e 0120     		movs	r0, #1
 290 0040 FFF7FEFF 		bl	M2_INV_Write
  78:main.c        ****     RF_BT_SELECT_Write(0);
 291              		.loc 1 78 0
 292 0044 0020     		movs	r0, #0
 293 0046 FFF7FEFF 		bl	RF_BT_SELECT_Write
  79:main.c        ****     //usbPutString(displaystring);
  80:main.c        ****     isr_TS_StartEx(printUart);
 294              		.loc 1 80 0
 295 004a 2548     		ldr	r0, .L10
 296 004c FFF7FEFF 		bl	isr_TS_StartEx
  81:main.c        ****     Timer_TS_Start();
 297              		.loc 1 81 0
 298 0050 FFF7FEFF 		bl	Timer_TS_Start
  82:main.c        ****     PWM_1_Start();
 299              		.loc 1 82 0
 300 0054 FFF7FEFF 		bl	PWM_1_Start
  83:main.c        ****     PWM_2_Start();
 301              		.loc 1 83 0
 302 0058 FFF7FEFF 		bl	PWM_2_Start
  84:main.c        ****     isr_ValCheck_StartEx(garb);
 303              		.loc 1 84 0
 304 005c 2148     		ldr	r0, .L10+4
ARM GAS  C:\Users\sela847\AppData\Local\Temp\ccmw0Jyb.s 			page 8


 305 005e FFF7FEFF 		bl	isr_ValCheck_StartEx
  85:main.c        ****     Timer_1_Start();
 306              		.loc 1 85 0
 307 0062 FFF7FEFF 		bl	Timer_1_Start
 308              	.L9:
 309              	.LBB2:
  86:main.c        ****     for(;;)
  87:main.c        ****     {
  88:main.c        ****         char buffer[64];
  89:main.c        ****         if (printSpeed == 1) {
 310              		.loc 1 89 0
 311 0066 204B     		ldr	r3, .L10+8
 312 0068 1B88     		ldrh	r3, [r3]
 313 006a 012B     		cmp	r3, #1
 314 006c FBD1     		bne	.L9
  90:main.c        ****             usbPutString("\r\n M1:");
 315              		.loc 1 90 0
 316 006e 1F48     		ldr	r0, .L10+12
 317 0070 FFF7FEFF 		bl	usbPutString
  91:main.c        ****             itoa((float) m1, buffer, 10);
 318              		.loc 1 91 0
 319 0074 1E4B     		ldr	r3, .L10+16
 320 0076 1B88     		ldrh	r3, [r3]
 321 0078 1846     		mov	r0, r3
 322 007a FFF7FEFF 		bl	__aeabi_ui2f
 323 007e 0346     		mov	r3, r0
 324 0080 1846     		mov	r0, r3
 325 0082 FFF7FEFF 		bl	__aeabi_f2iz
 326 0086 3B46     		mov	r3, r7
 327 0088 0A22     		movs	r2, #10
 328 008a 1946     		mov	r1, r3
 329 008c FFF7FEFF 		bl	itoa
  92:main.c        ****             usbPutString(buffer);
 330              		.loc 1 92 0
 331 0090 3B46     		mov	r3, r7
 332 0092 1846     		mov	r0, r3
 333 0094 FFF7FEFF 		bl	usbPutString
  93:main.c        ****             usbPutString("\r\n");
 334              		.loc 1 93 0
 335 0098 1648     		ldr	r0, .L10+20
 336 009a FFF7FEFF 		bl	usbPutString
  94:main.c        ****             usbPutString("\r\n M2:");
 337              		.loc 1 94 0
 338 009e 1648     		ldr	r0, .L10+24
 339 00a0 FFF7FEFF 		bl	usbPutString
  95:main.c        ****             itoa((float) m2, buffer, 10);
 340              		.loc 1 95 0
 341 00a4 154B     		ldr	r3, .L10+28
 342 00a6 1B88     		ldrh	r3, [r3]
 343 00a8 1846     		mov	r0, r3
 344 00aa FFF7FEFF 		bl	__aeabi_ui2f
 345 00ae 0346     		mov	r3, r0
 346 00b0 1846     		mov	r0, r3
 347 00b2 FFF7FEFF 		bl	__aeabi_f2iz
 348 00b6 3B46     		mov	r3, r7
 349 00b8 0A22     		movs	r2, #10
 350 00ba 1946     		mov	r1, r3
ARM GAS  C:\Users\sela847\AppData\Local\Temp\ccmw0Jyb.s 			page 9


 351 00bc FFF7FEFF 		bl	itoa
  96:main.c        ****             usbPutString(buffer);
 352              		.loc 1 96 0
 353 00c0 3B46     		mov	r3, r7
 354 00c2 1846     		mov	r0, r3
 355 00c4 FFF7FEFF 		bl	usbPutString
  97:main.c        ****             usbPutString("\r\n end \r\n");
 356              		.loc 1 97 0
 357 00c8 0D48     		ldr	r0, .L10+32
 358 00ca FFF7FEFF 		bl	usbPutString
  98:main.c        ****             QuadDec_M1_Start();
 359              		.loc 1 98 0
 360 00ce FFF7FEFF 		bl	QuadDec_M1_Start
  99:main.c        ****             QuadDec_M2_Start();
 361              		.loc 1 99 0
 362 00d2 FFF7FEFF 		bl	QuadDec_M2_Start
 100:main.c        ****             printSpeed = 0;
 363              		.loc 1 100 0
 364 00d6 044B     		ldr	r3, .L10+8
 365 00d8 0022     		movs	r2, #0
 366 00da 1A80     		strh	r2, [r3]	@ movhi
 367              	.LBE2:
 101:main.c        ****         } 
 102:main.c        ****         /* Place your application code here. */
 103:main.c        ****         /*handle_usb();
 104:main.c        ****         if (flag_KB_string == 1 && line[0] != '\0')
 105:main.c        ****         {
 106:main.c        ****             char msg[BUF_SIZE];
 107:main.c        ****             char textpt[14] = "You entered: \"";
 108:main.c        ****             strcpy(msg, textpt);
 109:main.c        ****             strcat(msg, line);
 110:main.c        ****             strcat(msg, "\"\n\r");
 111:main.c        ****             usbPutString(msg);
 112:main.c        ****             checkPWMCommand(line);
 113:main.c        ****             flag_KB_string = 0;
 114:main.c        ****         }     */   
 115:main.c        ****     }   
 368              		.loc 1 115 0
 369 00dc C3E7     		b	.L9
 370              	.L11:
 371 00de 00BF     		.align	2
 372              	.L10:
 373 00e0 00000000 		.word	printUart
 374 00e4 00000000 		.word	garb
 375 00e8 00000000 		.word	printSpeed
 376 00ec 00000000 		.word	.LC0
 377 00f0 00000000 		.word	m1
 378 00f4 08000000 		.word	.LC1
 379 00f8 0C000000 		.word	.LC2
 380 00fc 00000000 		.word	m2
 381 0100 14000000 		.word	.LC3
 382              		.cfi_endproc
 383              	.LFE66:
 384              		.size	main, .-main
 385              		.section	.rodata
 386 001e 0000     		.align	2
 387              	.LC4:
ARM GAS  C:\Users\sela847\AppData\Local\Temp\ccmw0Jyb.s 			page 10


 388 0020 454E4420 		.ascii	"END LOOP\012\015\000"
 388      4C4F4F50 
 388      0A0D00
 389 002b 00       		.align	2
 390              	.LC5:
 391 002c 4E756D62 		.ascii	"Number too large!\012\015\000"
 391      65722074 
 391      6F6F206C 
 391      61726765 
 391      210A0D00 
 392              		.section	.text.checkPWMCommand,"ax",%progbits
 393              		.align	2
 394              		.global	checkPWMCommand
 395              		.thumb
 396              		.thumb_func
 397              		.type	checkPWMCommand, %function
 398              	checkPWMCommand:
 399              	.LFB67:
 116:main.c        **** }
 117:main.c        **** 
 118:main.c        **** void checkPWMCommand(const char *input){
 400              		.loc 1 118 0
 401              		.cfi_startproc
 402              		@ args = 0, pretend = 0, frame = 32
 403              		@ frame_needed = 1, uses_anonymous_args = 0
 404 0000 2DE9F043 		push	{r4, r5, r6, r7, r8, r9, lr}
 405              		.cfi_def_cfa_offset 28
 406              		.cfi_offset 4, -28
 407              		.cfi_offset 5, -24
 408              		.cfi_offset 6, -20
 409              		.cfi_offset 7, -16
 410              		.cfi_offset 8, -12
 411              		.cfi_offset 9, -8
 412              		.cfi_offset 14, -4
 413 0004 89B0     		sub	sp, sp, #36
 414              		.cfi_def_cfa_offset 64
 415 0006 00AF     		add	r7, sp, #0
 416              		.cfi_def_cfa_register 7
 417 0008 7860     		str	r0, [r7, #4]
 119:main.c        ****     char *duty_command_found = strstr(input, "d");
 418              		.loc 1 119 0
 419 000a 6421     		movs	r1, #100
 420 000c 7868     		ldr	r0, [r7, #4]
 421 000e FFF7FEFF 		bl	strchr
 422 0012 7861     		str	r0, [r7, #20]
 120:main.c        ****     char *period_command_found = strstr(input, "p");
 423              		.loc 1 120 0
 424 0014 7021     		movs	r1, #112
 425 0016 7868     		ldr	r0, [r7, #4]
 426 0018 FFF7FEFF 		bl	strchr
 427 001c 3861     		str	r0, [r7, #16]
 121:main.c        ****     
 122:main.c        ****     if (duty_command_found) {
 428              		.loc 1 122 0
 429 001e 7B69     		ldr	r3, [r7, #20]
 430 0020 002B     		cmp	r3, #0
 431 0022 56D0     		beq	.L19
ARM GAS  C:\Users\sela847\AppData\Local\Temp\ccmw0Jyb.s 			page 11


 432              	.LBB3:
 123:main.c        ****         int count = 1;
 433              		.loc 1 123 0
 434 0024 0123     		movs	r3, #1
 435 0026 FB61     		str	r3, [r7, #28]
 124:main.c        ****         char currentchar = 'a';
 436              		.loc 1 124 0
 437 0028 6123     		movs	r3, #97
 438 002a FB76     		strb	r3, [r7, #27]
 125:main.c        ****         while (currentchar != '\0') {
 439              		.loc 1 125 0
 440 002c 15E0     		b	.L14
 441              	.L17:
 126:main.c        ****             currentchar = input[count];
 442              		.loc 1 126 0
 443 002e FB69     		ldr	r3, [r7, #28]
 444 0030 7A68     		ldr	r2, [r7, #4]
 445 0032 1344     		add	r3, r3, r2
 446 0034 1B78     		ldrb	r3, [r3]
 447 0036 FB76     		strb	r3, [r7, #27]
 127:main.c        ****             if (!isdigit(currentchar)) {
 448              		.loc 1 127 0
 449 0038 294B     		ldr	r3, .L21
 450 003a 1A68     		ldr	r2, [r3]
 451 003c FB7E     		ldrb	r3, [r7, #27]	@ zero_extendqisi2
 452 003e 0133     		adds	r3, r3, #1
 453 0040 1344     		add	r3, r3, r2
 454 0042 1B78     		ldrb	r3, [r3]	@ zero_extendqisi2
 455 0044 03F00403 		and	r3, r3, #4
 456 0048 002B     		cmp	r3, #0
 457 004a 44D0     		beq	.L20
 128:main.c        ****                 return;
 129:main.c        ****             }
 130:main.c        ****             count++;
 458              		.loc 1 130 0
 459 004c FB69     		ldr	r3, [r7, #28]
 460 004e 0133     		adds	r3, r3, #1
 461 0050 FB61     		str	r3, [r7, #28]
 131:main.c        ****             usbPutChar(currentchar);                                //**//
 462              		.loc 1 131 0
 463 0052 FB7E     		ldrb	r3, [r7, #27]	@ zero_extendqisi2
 464 0054 1846     		mov	r0, r3
 465 0056 FFF7FEFF 		bl	usbPutChar
 466              	.L14:
 125:main.c        ****             currentchar = input[count];
 467              		.loc 1 125 0
 468 005a FB7E     		ldrb	r3, [r7, #27]	@ zero_extendqisi2
 469 005c 002B     		cmp	r3, #0
 470 005e E6D1     		bne	.L17
 132:main.c        ****         }
 133:main.c        ****         usbPutString("END LOOP\n\r");                               //**//
 471              		.loc 1 133 0
 472 0060 2048     		ldr	r0, .L21+4
 473 0062 FFF7FEFF 		bl	usbPutString
 134:main.c        ****         
 135:main.c        ****         if (count > 3){
 474              		.loc 1 135 0
ARM GAS  C:\Users\sela847\AppData\Local\Temp\ccmw0Jyb.s 			page 12


 475 0066 FB69     		ldr	r3, [r7, #28]
 476 0068 032B     		cmp	r3, #3
 477 006a 03DD     		ble	.L18
 136:main.c        ****             usbPutString("Number too large!\n\r");
 478              		.loc 1 136 0
 479 006c 1E48     		ldr	r0, .L21+8
 480 006e FFF7FEFF 		bl	usbPutString
 137:main.c        ****             return;            
 481              		.loc 1 137 0
 482 0072 31E0     		b	.L12
 483              	.L18:
 138:main.c        ****         }
 139:main.c        ****         
 140:main.c        ****         char char_nums[count-1];
 484              		.loc 1 140 0
 485 0074 FB69     		ldr	r3, [r7, #28]
 486 0076 591E     		subs	r1, r3, #1
 487 0078 6B46     		mov	r3, sp
 488 007a 1E46     		mov	r6, r3
 489 007c 4B1E     		subs	r3, r1, #1
 490 007e FB60     		str	r3, [r7, #12]
 491 0080 0B46     		mov	r3, r1
 492 0082 1A46     		mov	r2, r3
 493 0084 4FF00003 		mov	r3, #0
 494 0088 4FEAC309 		lsl	r9, r3, #3
 495 008c 49EA5279 		orr	r9, r9, r2, lsr #29
 496 0090 4FEAC208 		lsl	r8, r2, #3
 497 0094 0B46     		mov	r3, r1
 498 0096 1A46     		mov	r2, r3
 499 0098 4FF00003 		mov	r3, #0
 500 009c DD00     		lsls	r5, r3, #3
 501 009e 45EA5275 		orr	r5, r5, r2, lsr #29
 502 00a2 D400     		lsls	r4, r2, #3
 503 00a4 0B46     		mov	r3, r1
 504 00a6 0733     		adds	r3, r3, #7
 505 00a8 DB08     		lsrs	r3, r3, #3
 506 00aa DB00     		lsls	r3, r3, #3
 507 00ac ADEB030D 		sub	sp, sp, r3
 508 00b0 6B46     		mov	r3, sp
 509 00b2 0033     		adds	r3, r3, #0
 510 00b4 BB60     		str	r3, [r7, #8]
 141:main.c        ****         strncpy(char_nums, input+1, count-1);
 511              		.loc 1 141 0
 512 00b6 B868     		ldr	r0, [r7, #8]
 513 00b8 7B68     		ldr	r3, [r7, #4]
 514 00ba 591C     		adds	r1, r3, #1
 515 00bc FB69     		ldr	r3, [r7, #28]
 516 00be 013B     		subs	r3, r3, #1
 517 00c0 1A46     		mov	r2, r3
 518 00c2 FFF7FEFF 		bl	strncpy
 142:main.c        ****         usbPutString(char_nums);                                    //**//
 519              		.loc 1 142 0
 520 00c6 BB68     		ldr	r3, [r7, #8]
 521 00c8 1846     		mov	r0, r3
 522 00ca FFF7FEFF 		bl	usbPutString
 523 00ce B546     		mov	sp, r6
 524              	.LBE3:
ARM GAS  C:\Users\sela847\AppData\Local\Temp\ccmw0Jyb.s 			page 13


 143:main.c        ****     }
 144:main.c        ****     return; // Pattern not found
 525              		.loc 1 144 0
 526 00d0 00BF     		nop
 527              	.L19:
 528 00d2 00BF     		nop
 529 00d4 00E0     		b	.L12
 530              	.L20:
 531              	.LBB4:
 128:main.c        ****             }
 532              		.loc 1 128 0
 533 00d6 00BF     		nop
 534              	.L12:
 535              	.LBE4:
 145:main.c        **** }
 536              		.loc 1 145 0
 537 00d8 2437     		adds	r7, r7, #36
 538              		.cfi_def_cfa_offset 28
 539 00da BD46     		mov	sp, r7
 540              		.cfi_def_cfa_register 13
 541              		@ sp needed
 542 00dc BDE8F083 		pop	{r4, r5, r6, r7, r8, r9, pc}
 543              	.L22:
 544              		.align	2
 545              	.L21:
 546 00e0 00000000 		.word	__ctype_ptr__
 547 00e4 20000000 		.word	.LC4
 548 00e8 2C000000 		.word	.LC5
 549              		.cfi_endproc
 550              	.LFE67:
 551              		.size	checkPWMCommand, .-checkPWMCommand
 552              		.global	__aeabi_i2f
 553              		.global	__aeabi_fmul
 554              		.global	__aeabi_f2d
 555              		.global	__aeabi_ddiv
 556              		.global	__aeabi_d2uiz
 557              		.section	.rodata
 558              		.align	2
 559              	.LC6:
 560 0040 55706461 		.ascii	"Updated duty cycle!\012\015\000"
 560      74656420 
 560      64757479 
 560      20637963 
 560      6C65210A 
 561              		.section	.text.setPWMDuty,"ax",%progbits
 562              		.align	2
 563              		.global	setPWMDuty
 564              		.thumb
 565              		.thumb_func
 566              		.type	setPWMDuty, %function
 567              	setPWMDuty:
 568              	.LFB68:
 146:main.c        **** 
 147:main.c        **** void setPWMDuty(int duty){
 569              		.loc 1 147 0
 570              		.cfi_startproc
 571              		@ args = 0, pretend = 0, frame = 8
ARM GAS  C:\Users\sela847\AppData\Local\Temp\ccmw0Jyb.s 			page 14


 572              		@ frame_needed = 1, uses_anonymous_args = 0
 573 0000 90B5     		push	{r4, r7, lr}
 574              		.cfi_def_cfa_offset 12
 575              		.cfi_offset 4, -12
 576              		.cfi_offset 7, -8
 577              		.cfi_offset 14, -4
 578 0002 83B0     		sub	sp, sp, #12
 579              		.cfi_def_cfa_offset 24
 580 0004 00AF     		add	r7, sp, #0
 581              		.cfi_def_cfa_register 7
 582 0006 7860     		str	r0, [r7, #4]
 148:main.c        ****     PWM_1_WriteCompare(PWM_1_ReadPeriod() * (float)duty/100.00);
 583              		.loc 1 148 0
 584 0008 FFF7FEFF 		bl	PWM_1_ReadPeriod
 585 000c 0346     		mov	r3, r0
 586 000e 1846     		mov	r0, r3
 587 0010 FFF7FEFF 		bl	__aeabi_i2f
 588 0014 0446     		mov	r4, r0
 589 0016 7868     		ldr	r0, [r7, #4]
 590 0018 FFF7FEFF 		bl	__aeabi_i2f
 591 001c 0346     		mov	r3, r0
 592 001e 1946     		mov	r1, r3
 593 0020 2046     		mov	r0, r4
 594 0022 FFF7FEFF 		bl	__aeabi_fmul
 595 0026 0346     		mov	r3, r0
 596 0028 1846     		mov	r0, r3
 597 002a FFF7FEFF 		bl	__aeabi_f2d
 598 002e 4FF00002 		mov	r2, #0
 599 0032 1C4B     		ldr	r3, .L25
 600 0034 FFF7FEFF 		bl	__aeabi_ddiv
 601 0038 0346     		mov	r3, r0
 602 003a 0C46     		mov	r4, r1
 603 003c 1846     		mov	r0, r3
 604 003e 2146     		mov	r1, r4
 605 0040 FFF7FEFF 		bl	__aeabi_d2uiz
 606 0044 0346     		mov	r3, r0
 607 0046 DBB2     		uxtb	r3, r3
 608 0048 1846     		mov	r0, r3
 609 004a FFF7FEFF 		bl	PWM_1_WriteCompare
 149:main.c        ****     PWM_2_WriteCompare(PWM_2_ReadPeriod() * (float)duty/100.00);
 610              		.loc 1 149 0
 611 004e FFF7FEFF 		bl	PWM_2_ReadPeriod
 612 0052 0346     		mov	r3, r0
 613 0054 1846     		mov	r0, r3
 614 0056 FFF7FEFF 		bl	__aeabi_i2f
 615 005a 0446     		mov	r4, r0
 616 005c 7868     		ldr	r0, [r7, #4]
 617 005e FFF7FEFF 		bl	__aeabi_i2f
 618 0062 0346     		mov	r3, r0
 619 0064 1946     		mov	r1, r3
 620 0066 2046     		mov	r0, r4
 621 0068 FFF7FEFF 		bl	__aeabi_fmul
 622 006c 0346     		mov	r3, r0
 623 006e 1846     		mov	r0, r3
 624 0070 FFF7FEFF 		bl	__aeabi_f2d
 625 0074 4FF00002 		mov	r2, #0
 626 0078 0A4B     		ldr	r3, .L25
ARM GAS  C:\Users\sela847\AppData\Local\Temp\ccmw0Jyb.s 			page 15


 627 007a FFF7FEFF 		bl	__aeabi_ddiv
 628 007e 0346     		mov	r3, r0
 629 0080 0C46     		mov	r4, r1
 630 0082 1846     		mov	r0, r3
 631 0084 2146     		mov	r1, r4
 632 0086 FFF7FEFF 		bl	__aeabi_d2uiz
 633 008a 0346     		mov	r3, r0
 634 008c DBB2     		uxtb	r3, r3
 635 008e 1846     		mov	r0, r3
 636 0090 FFF7FEFF 		bl	PWM_2_WriteCompare
 150:main.c        ****     usbPutString("Updated duty cycle!\n\r");
 637              		.loc 1 150 0
 638 0094 0448     		ldr	r0, .L25+4
 639 0096 FFF7FEFF 		bl	usbPutString
 151:main.c        ****     return;
 640              		.loc 1 151 0
 641 009a 00BF     		nop
 152:main.c        **** }
 642              		.loc 1 152 0
 643 009c 0C37     		adds	r7, r7, #12
 644              		.cfi_def_cfa_offset 12
 645 009e BD46     		mov	sp, r7
 646              		.cfi_def_cfa_register 13
 647              		@ sp needed
 648 00a0 90BD     		pop	{r4, r7, pc}
 649              	.L26:
 650 00a2 00BF     		.align	2
 651              	.L25:
 652 00a4 00005940 		.word	1079574528
 653 00a8 40000000 		.word	.LC6
 654              		.cfi_endproc
 655              	.LFE68:
 656              		.size	setPWMDuty, .-setPWMDuty
 657              		.section	.text.usbPutString,"ax",%progbits
 658              		.align	2
 659              		.global	usbPutString
 660              		.thumb
 661              		.thumb_func
 662              		.type	usbPutString, %function
 663              	usbPutString:
 664              	.LFB69:
 153:main.c        **** 
 154:main.c        **** //* ========================================
 155:main.c        **** void usbPutString(char *s)
 156:main.c        **** {
 665              		.loc 1 156 0
 666              		.cfi_startproc
 667              		@ args = 0, pretend = 0, frame = 8
 668              		@ frame_needed = 1, uses_anonymous_args = 0
 669 0000 80B5     		push	{r7, lr}
 670              		.cfi_def_cfa_offset 8
 671              		.cfi_offset 7, -8
 672              		.cfi_offset 14, -4
 673 0002 82B0     		sub	sp, sp, #8
 674              		.cfi_def_cfa_offset 16
 675 0004 00AF     		add	r7, sp, #0
 676              		.cfi_def_cfa_register 7
ARM GAS  C:\Users\sela847\AppData\Local\Temp\ccmw0Jyb.s 			page 16


 677 0006 7860     		str	r0, [r7, #4]
 157:main.c        **** // !! Assumes that *s is a string with allocated space >=64 chars     
 158:main.c        **** //  Since USB implementation retricts data packets to 64 chars, this function truncates the
 159:main.c        **** //  length to 62 char (63rd char is a '!')
 160:main.c        **** 
 161:main.c        **** #ifdef USE_USB     
 162:main.c        ****     while (USBUART_CDCIsReady() == 0);
 678              		.loc 1 162 0
 679 0008 00BF     		nop
 680              	.L28:
 681              		.loc 1 162 0 is_stmt 0 discriminator 1
 682 000a FFF7FEFF 		bl	USBUART_CDCIsReady
 683 000e 0346     		mov	r3, r0
 684 0010 002B     		cmp	r3, #0
 685 0012 FAD0     		beq	.L28
 163:main.c        ****     s[63]='\0';
 686              		.loc 1 163 0 is_stmt 1
 687 0014 7B68     		ldr	r3, [r7, #4]
 688 0016 3F33     		adds	r3, r3, #63
 689 0018 0022     		movs	r2, #0
 690 001a 1A70     		strb	r2, [r3]
 164:main.c        ****     s[62]='!';
 691              		.loc 1 164 0
 692 001c 7B68     		ldr	r3, [r7, #4]
 693 001e 3E33     		adds	r3, r3, #62
 694 0020 2122     		movs	r2, #33
 695 0022 1A70     		strb	r2, [r3]
 165:main.c        ****     USBUART_PutData((uint8*)s,strlen(s));
 696              		.loc 1 165 0
 697 0024 7868     		ldr	r0, [r7, #4]
 698 0026 FFF7FEFF 		bl	strlen
 699 002a 0346     		mov	r3, r0
 700 002c 9BB2     		uxth	r3, r3
 701 002e 1946     		mov	r1, r3
 702 0030 7868     		ldr	r0, [r7, #4]
 703 0032 FFF7FEFF 		bl	USBUART_PutData
 166:main.c        **** #endif
 167:main.c        **** }
 704              		.loc 1 167 0
 705 0036 00BF     		nop
 706 0038 0837     		adds	r7, r7, #8
 707              		.cfi_def_cfa_offset 8
 708 003a BD46     		mov	sp, r7
 709              		.cfi_def_cfa_register 13
 710              		@ sp needed
 711 003c 80BD     		pop	{r7, pc}
 712              		.cfi_endproc
 713              	.LFE69:
 714              		.size	usbPutString, .-usbPutString
 715 003e 00BF     		.section	.text.usbPutChar,"ax",%progbits
 716              		.align	2
 717              		.global	usbPutChar
 718              		.thumb
 719              		.thumb_func
 720              		.type	usbPutChar, %function
 721              	usbPutChar:
 722              	.LFB70:
ARM GAS  C:\Users\sela847\AppData\Local\Temp\ccmw0Jyb.s 			page 17


 168:main.c        **** //* ========================================
 169:main.c        **** void usbPutChar(char c)
 170:main.c        **** {
 723              		.loc 1 170 0
 724              		.cfi_startproc
 725              		@ args = 0, pretend = 0, frame = 8
 726              		@ frame_needed = 1, uses_anonymous_args = 0
 727 0000 80B5     		push	{r7, lr}
 728              		.cfi_def_cfa_offset 8
 729              		.cfi_offset 7, -8
 730              		.cfi_offset 14, -4
 731 0002 82B0     		sub	sp, sp, #8
 732              		.cfi_def_cfa_offset 16
 733 0004 00AF     		add	r7, sp, #0
 734              		.cfi_def_cfa_register 7
 735 0006 0346     		mov	r3, r0
 736 0008 FB71     		strb	r3, [r7, #7]
 171:main.c        **** #ifdef USE_USB     
 172:main.c        ****     while (USBUART_CDCIsReady() == 0);
 737              		.loc 1 172 0
 738 000a 00BF     		nop
 739              	.L30:
 740              		.loc 1 172 0 is_stmt 0 discriminator 1
 741 000c FFF7FEFF 		bl	USBUART_CDCIsReady
 742 0010 0346     		mov	r3, r0
 743 0012 002B     		cmp	r3, #0
 744 0014 FAD0     		beq	.L30
 173:main.c        ****     USBUART_PutChar(c);
 745              		.loc 1 173 0 is_stmt 1
 746 0016 FB79     		ldrb	r3, [r7, #7]	@ zero_extendqisi2
 747 0018 1846     		mov	r0, r3
 748 001a FFF7FEFF 		bl	USBUART_PutChar
 174:main.c        **** #endif    
 175:main.c        **** }
 749              		.loc 1 175 0
 750 001e 00BF     		nop
 751 0020 0837     		adds	r7, r7, #8
 752              		.cfi_def_cfa_offset 8
 753 0022 BD46     		mov	sp, r7
 754              		.cfi_def_cfa_register 13
 755              		@ sp needed
 756 0024 80BD     		pop	{r7, pc}
 757              		.cfi_endproc
 758              	.LFE70:
 759              		.size	usbPutChar, .-usbPutChar
 760 0026 00BF     		.section	.text.handle_usb,"ax",%progbits
 761              		.align	2
 762              		.global	handle_usb
 763              		.thumb
 764              		.thumb_func
 765              		.type	handle_usb, %function
 766              	handle_usb:
 767              	.LFB71:
 176:main.c        **** //* ========================================
 177:main.c        **** void handle_usb()
 178:main.c        **** {
 768              		.loc 1 178 0
ARM GAS  C:\Users\sela847\AppData\Local\Temp\ccmw0Jyb.s 			page 18


 769              		.cfi_startproc
 770              		@ args = 0, pretend = 0, frame = 8
 771              		@ frame_needed = 1, uses_anonymous_args = 0
 772 0000 80B5     		push	{r7, lr}
 773              		.cfi_def_cfa_offset 8
 774              		.cfi_offset 7, -8
 775              		.cfi_offset 14, -4
 776 0002 82B0     		sub	sp, sp, #8
 777              		.cfi_def_cfa_offset 16
 778 0004 00AF     		add	r7, sp, #0
 779              		.cfi_def_cfa_register 7
 179:main.c        ****     // handles input at terminal, echos it back to the terminal
 180:main.c        ****     // turn echo OFF, key emulation: only CR
 181:main.c        ****     // entered string is made available in 'line' and 'flag_KB_string' is set
 182:main.c        ****     
 183:main.c        ****     static uint8 usbStarted = FALSE;
 184:main.c        ****     static uint16 usbBufCount = 0;
 185:main.c        ****     uint8 c; 
 186:main.c        ****     
 187:main.c        **** 
 188:main.c        ****     if (!usbStarted)
 780              		.loc 1 188 0
 781 0006 2B4B     		ldr	r3, .L41
 782 0008 1B78     		ldrb	r3, [r3]	@ zero_extendqisi2
 783 000a 002B     		cmp	r3, #0
 784 000c 0AD1     		bne	.L32
 189:main.c        ****     {
 190:main.c        ****         if (USBUART_GetConfiguration())
 785              		.loc 1 190 0
 786 000e FFF7FEFF 		bl	USBUART_GetConfiguration
 787 0012 0346     		mov	r3, r0
 788 0014 002B     		cmp	r3, #0
 789 0016 49D0     		beq	.L40
 191:main.c        ****         {
 192:main.c        ****             USBUART_CDC_Init();
 790              		.loc 1 192 0
 791 0018 FFF7FEFF 		bl	USBUART_CDC_Init
 193:main.c        ****             usbStarted = TRUE;
 792              		.loc 1 193 0
 793 001c 254B     		ldr	r3, .L41
 794 001e 0122     		movs	r2, #1
 795 0020 1A70     		strb	r2, [r3]
 194:main.c        ****         }
 195:main.c        ****     }
 196:main.c        ****     else
 197:main.c        ****     {
 198:main.c        ****         if (USBUART_DataIsReady() != 0)
 199:main.c        ****         {  
 200:main.c        ****             c = USBUART_GetChar();
 201:main.c        **** 
 202:main.c        ****             if ((c == 13) || (c == 10))
 203:main.c        ****             {
 204:main.c        **** //                if (usbBufCount > 0)
 205:main.c        ****                 {
 206:main.c        ****                     entry[usbBufCount]= '\0';
 207:main.c        ****                     strcpy(line,entry);
 208:main.c        ****                     usbBufCount = 0;
ARM GAS  C:\Users\sela847\AppData\Local\Temp\ccmw0Jyb.s 			page 19


 209:main.c        ****                     flag_KB_string = 1;
 210:main.c        ****                 }
 211:main.c        ****             }
 212:main.c        ****             else 
 213:main.c        ****             {
 214:main.c        ****                 if (((c == CHAR_BACKSP) || (c == CHAR_DEL) ) && (usbBufCount > 0) )
 215:main.c        ****                     usbBufCount--;
 216:main.c        ****                 else
 217:main.c        ****                 {
 218:main.c        ****                     if (usbBufCount > (BUF_SIZE-2) ) // one less else strtok triggers a crash
 219:main.c        ****                     {
 220:main.c        ****                        USBUART_PutChar('!');        
 221:main.c        ****                     }
 222:main.c        ****                     else
 223:main.c        ****                         entry[usbBufCount++] = c;  
 224:main.c        ****                 }  
 225:main.c        ****             }
 226:main.c        ****         }
 227:main.c        ****     }    
 228:main.c        **** }
 796              		.loc 1 228 0
 797 0022 43E0     		b	.L40
 798              	.L32:
 198:main.c        ****         {  
 799              		.loc 1 198 0
 800 0024 FFF7FEFF 		bl	USBUART_DataIsReady
 801 0028 0346     		mov	r3, r0
 802 002a 002B     		cmp	r3, #0
 803 002c 3ED0     		beq	.L40
 200:main.c        **** 
 804              		.loc 1 200 0
 805 002e FFF7FEFF 		bl	USBUART_GetChar
 806 0032 0346     		mov	r3, r0
 807 0034 FB71     		strb	r3, [r7, #7]
 202:main.c        ****             {
 808              		.loc 1 202 0
 809 0036 FB79     		ldrb	r3, [r7, #7]	@ zero_extendqisi2
 810 0038 0D2B     		cmp	r3, #13
 811 003a 02D0     		beq	.L35
 202:main.c        ****             {
 812              		.loc 1 202 0 is_stmt 0 discriminator 1
 813 003c FB79     		ldrb	r3, [r7, #7]	@ zero_extendqisi2
 814 003e 0A2B     		cmp	r3, #10
 815 0040 10D1     		bne	.L36
 816              	.L35:
 206:main.c        ****                     strcpy(line,entry);
 817              		.loc 1 206 0 is_stmt 1
 818 0042 1D4B     		ldr	r3, .L41+4
 819 0044 1B88     		ldrh	r3, [r3]
 820 0046 1A46     		mov	r2, r3
 821 0048 1C4B     		ldr	r3, .L41+8
 822 004a 0021     		movs	r1, #0
 823 004c 9954     		strb	r1, [r3, r2]
 207:main.c        ****                     usbBufCount = 0;
 824              		.loc 1 207 0
 825 004e 1B49     		ldr	r1, .L41+8
 826 0050 1B48     		ldr	r0, .L41+12
ARM GAS  C:\Users\sela847\AppData\Local\Temp\ccmw0Jyb.s 			page 20


 827 0052 FFF7FEFF 		bl	strcpy
 208:main.c        ****                     flag_KB_string = 1;
 828              		.loc 1 208 0
 829 0056 184B     		ldr	r3, .L41+4
 830 0058 0022     		movs	r2, #0
 831 005a 1A80     		strh	r2, [r3]	@ movhi
 209:main.c        ****                 }
 832              		.loc 1 209 0
 833 005c 194B     		ldr	r3, .L41+16
 834 005e 0122     		movs	r2, #1
 835 0060 1A70     		strb	r2, [r3]
 836 0062 23E0     		b	.L34
 837              	.L36:
 214:main.c        ****                     usbBufCount--;
 838              		.loc 1 214 0
 839 0064 FB79     		ldrb	r3, [r7, #7]	@ zero_extendqisi2
 840 0066 082B     		cmp	r3, #8
 841 0068 02D0     		beq	.L37
 214:main.c        ****                     usbBufCount--;
 842              		.loc 1 214 0 is_stmt 0 discriminator 2
 843 006a FB79     		ldrb	r3, [r7, #7]	@ zero_extendqisi2
 844 006c 7F2B     		cmp	r3, #127
 845 006e 0AD1     		bne	.L38
 846              	.L37:
 214:main.c        ****                     usbBufCount--;
 847              		.loc 1 214 0 discriminator 3
 848 0070 114B     		ldr	r3, .L41+4
 849 0072 1B88     		ldrh	r3, [r3]
 850 0074 002B     		cmp	r3, #0
 851 0076 06D0     		beq	.L38
 215:main.c        ****                 else
 852              		.loc 1 215 0 is_stmt 1
 853 0078 0F4B     		ldr	r3, .L41+4
 854 007a 1B88     		ldrh	r3, [r3]
 855 007c 013B     		subs	r3, r3, #1
 856 007e 9AB2     		uxth	r2, r3
 857 0080 0D4B     		ldr	r3, .L41+4
 858 0082 1A80     		strh	r2, [r3]	@ movhi
 859 0084 12E0     		b	.L34
 860              	.L38:
 218:main.c        ****                     {
 861              		.loc 1 218 0
 862 0086 0C4B     		ldr	r3, .L41+4
 863 0088 1B88     		ldrh	r3, [r3]
 864 008a 3E2B     		cmp	r3, #62
 865 008c 03D9     		bls	.L39
 220:main.c        ****                     }
 866              		.loc 1 220 0
 867 008e 2120     		movs	r0, #33
 868 0090 FFF7FEFF 		bl	USBUART_PutChar
 869              		.loc 1 228 0
 870 0094 0AE0     		b	.L40
 871              	.L39:
 223:main.c        ****                 }  
 872              		.loc 1 223 0
 873 0096 084B     		ldr	r3, .L41+4
 874 0098 1B88     		ldrh	r3, [r3]
ARM GAS  C:\Users\sela847\AppData\Local\Temp\ccmw0Jyb.s 			page 21


 875 009a 5A1C     		adds	r2, r3, #1
 876 009c 91B2     		uxth	r1, r2
 877 009e 064A     		ldr	r2, .L41+4
 878 00a0 1180     		strh	r1, [r2]	@ movhi
 879 00a2 1946     		mov	r1, r3
 880 00a4 054A     		ldr	r2, .L41+8
 881 00a6 FB79     		ldrb	r3, [r7, #7]
 882 00a8 5354     		strb	r3, [r2, r1]
 883              		.loc 1 228 0
 884 00aa FFE7     		b	.L40
 885              	.L34:
 886              	.L40:
 887 00ac 00BF     		nop
 888 00ae 0837     		adds	r7, r7, #8
 889              		.cfi_def_cfa_offset 8
 890 00b0 BD46     		mov	sp, r7
 891              		.cfi_def_cfa_register 13
 892              		@ sp needed
 893 00b2 80BD     		pop	{r7, pc}
 894              	.L42:
 895              		.align	2
 896              	.L41:
 897 00b4 18000000 		.word	usbStarted.8259
 898 00b8 1A000000 		.word	usbBufCount.8260
 899 00bc 00000000 		.word	entry
 900 00c0 00000000 		.word	line
 901 00c4 00000000 		.word	flag_KB_string
 902              		.cfi_endproc
 903              	.LFE71:
 904              		.size	handle_usb, .-handle_usb
 905              		.bss
 906              	usbStarted.8259:
 907 0018 00       		.space	1
 908 0019 00       		.align	1
 909              	usbBufCount.8260:
 910 001a 0000     		.space	2
 911              		.text
 912              	.Letext0:
 913              		.file 2 "c:\\program files (x86)\\cypress\\psoc creator\\4.2\\psoc creator\\import\\gnu\\arm\\5.4.
 914              		.file 3 "c:\\program files (x86)\\cypress\\psoc creator\\4.2\\psoc creator\\import\\gnu\\arm\\5.4.
 915              		.file 4 "Generated_Source\\PSoC5/cytypes.h"
 916              		.file 5 "vars.h"
 917              		.file 6 "c:\\program files (x86)\\cypress\\psoc creator\\4.2\\psoc creator\\import\\gnu\\arm\\5.4.
 918              		.file 7 "Generated_Source\\PSoC5/core_cm3.h"