ARM GAS  C:\Users\sela847\AppData\Local\Temp\ccMzjcTW.s 			page 1


   1              		.syntax unified
   2              		.cpu cortex-m3
   3              		.fpu softvfp
   4              		.eabi_attribute 20, 1
   5              		.eabi_attribute 21, 1
   6              		.eabi_attribute 23, 3
   7              		.eabi_attribute 24, 1
   8              		.eabi_attribute 25, 1
   9              		.eabi_attribute 26, 1
  10              		.eabi_attribute 30, 6
  11              		.eabi_attribute 34, 1
  12              		.eabi_attribute 18, 4
  13              		.thumb
  14              		.syntax unified
  15              		.file	"main.c"
  16              		.text
  17              	.Ltext0:
  18              		.cfi_sections	.debug_frame
  19              		.global	ts
  20              		.bss
  21              		.type	ts, %object
  22              		.size	ts, 1
  23              	ts:
  24 0000 00       		.space	1
  25              		.global	ts_enc
  26 0001 00       		.align	1
  27              		.type	ts_enc, %object
  28              		.size	ts_enc, 2
  29              	ts_enc:
  30 0002 0000     		.space	2
  31              		.global	ts_update
  32              		.align	1
  33              		.type	ts_update, %object
  34              		.size	ts_update, 2
  35              	ts_update:
  36 0004 0000     		.space	2
  37              		.global	ts_speed
  38              		.align	1
  39              		.type	ts_speed, %object
  40              		.size	ts_speed, 2
  41              	ts_speed:
  42 0006 0000     		.space	2
  43              		.global	ts_display
  44              		.align	1
  45              		.type	ts_display, %object
  46              		.size	ts_display, 2
  47              	ts_display:
  48 0008 0000     		.space	2
  49              		.global	flag_ts_enc
  50              		.type	flag_ts_enc, %object
  51              		.size	flag_ts_enc, 1
  52              	flag_ts_enc:
  53 000a 00       		.space	1
  54              		.global	flag_ts_update
  55              		.type	flag_ts_update, %object
  56              		.size	flag_ts_update, 1
  57              	flag_ts_update:
ARM GAS  C:\Users\sela847\AppData\Local\Temp\ccMzjcTW.s 			page 2


  58 000b 00       		.space	1
  59              		.global	flag_ts_speed
  60              		.type	flag_ts_speed, %object
  61              		.size	flag_ts_speed, 1
  62              	flag_ts_speed:
  63 000c 00       		.space	1
  64              		.global	flag_ts_display
  65              		.type	flag_ts_display, %object
  66              		.size	flag_ts_display, 1
  67              	flag_ts_display:
  68 000d 00       		.space	1
  69              		.global	flag_rx
  70              		.type	flag_rx, %object
  71              		.size	flag_rx, 1
  72              	flag_rx:
  73 000e 00       		.space	1
  74              		.global	flag_packet
  75              		.type	flag_packet, %object
  76              		.size	flag_packet, 1
  77              	flag_packet:
  78 000f 00       		.space	1
  79              		.global	flag_KB_string
  80              		.type	flag_KB_string, %object
  81              		.size	flag_KB_string, 1
  82              	flag_KB_string:
  83 0010 00       		.space	1
  84              		.global	dataready_flag
  85              		.type	dataready_flag, %object
  86              		.size	dataready_flag, 1
  87              	dataready_flag:
  88 0011 00       		.space	1
  89              		.global	flag_rf_transmission_active
  90              		.data
  91              		.type	flag_rf_transmission_active, %object
  92              		.size	flag_rf_transmission_active, 1
  93              	flag_rf_transmission_active:
  94 0000 0A       		.byte	10
  95              		.global	displaystring
  96 0001 000000   		.align	2
  97              		.type	displaystring, %object
  98              		.size	displaystring, 64
  99              	displaystring:
 100 0004 43533330 		.ascii	"CS301 2016\012\000"
 100      31203230 
 100      31360A00 
 101 0010 00000000 		.space	52
 101      00000000 
 101      00000000 
 101      00000000 
 101      00000000 
 102              		.comm	line,64,4
 103              		.comm	entry,64,4
 104              		.comm	usbBuffer,64,4
 105              		.comm	system_state,32,4
 106              		.align	2
 107              		.type	pathArray, %object
 108              		.size	pathArray, 896
ARM GAS  C:\Users\sela847\AppData\Local\Temp\ccMzjcTW.s 			page 3


 109              	pathArray:
 110 0044 01       		.byte	1
 111 0045 01       		.byte	1
 112 0046 01       		.byte	1
 113 0047 01       		.byte	1
 114 0048 00       		.byte	0
 115 0049 00       		.byte	0
 116 004a 00       		.byte	0
 117 004b 01       		.byte	1
 118 004c 01       		.byte	1
 119 004d 01       		.byte	1
 120 004e 01       		.byte	1
 121 004f 00       		.byte	0
 122 0050 00       		.byte	0
 123 0051 00       		.byte	0
 124 0052 01       		.byte	1
 125 0053 03       		.byte	3
 126 0054 03       		.byte	3
 127 0055 01       		.byte	1
 128 0056 00       		.byte	0
 129 0057 00       		.byte	0
 130 0058 00       		.byte	0
 131 0059 01       		.byte	1
 132 005a 03       		.byte	3
 133 005b 03       		.byte	3
 134 005c 01       		.byte	1
 135 005d 00       		.byte	0
 136 005e 00       		.byte	0
 137 005f 00       		.byte	0
 138 0060 01       		.byte	1
 139 0061 03       		.byte	3
 140 0062 04       		.byte	4
 141 0063 01       		.byte	1
 142 0064 00       		.byte	0
 143 0065 00       		.byte	0
 144 0066 00       		.byte	0
 145 0067 01       		.byte	1
 146 0068 03       		.byte	3
 147 0069 03       		.byte	3
 148 006a 01       		.byte	1
 149 006b 00       		.byte	0
 150 006c 00       		.byte	0
 151 006d 00       		.byte	0
 152 006e 01       		.byte	1
 153 006f 03       		.byte	3
 154 0070 03       		.byte	3
 155 0071 01       		.byte	1
 156 0072 00       		.byte	0
 157 0073 00       		.byte	0
 158 0074 00       		.byte	0
 159 0075 01       		.byte	1
 160 0076 03       		.byte	3
 161 0077 04       		.byte	4
 162 0078 01       		.byte	1
 163 0079 01       		.byte	1
 164 007a 00       		.byte	0
 165 007b 00       		.byte	0
ARM GAS  C:\Users\sela847\AppData\Local\Temp\ccMzjcTW.s 			page 4


 166 007c 01       		.byte	1
 167 007d 03       		.byte	3
 168 007e 03       		.byte	3
 169 007f 01       		.byte	1
 170 0080 00       		.byte	0
 171 0081 01       		.byte	1
 172 0082 00       		.byte	0
 173 0083 00000000 		.space	833
 173      00000000 
 173      00000000 
 173      00000000 
 173      00000000 
 174              		.global	currentState
 175              		.type	currentState, %object
 176              		.size	currentState, 1
 177              	currentState:
 178 03c4 04       		.byte	4
 179              		.global	firstEntry
 180              		.bss
 181              		.type	firstEntry, %object
 182              		.size	firstEntry, 1
 183              	firstEntry:
 184 0012 00       		.space	1
 185              		.global	noSensor
 186 0013 00       		.align	2
 187              		.type	noSensor, %object
 188              		.size	noSensor, 4
 189              	noSensor:
 190 0014 00000000 		.space	4
 191              		.section	.text.Sensor_Timer_Isr,"ax",%progbits
 192              		.align	2
 193              		.global	Sensor_Timer_Isr
 194              		.thumb
 195              		.thumb_func
 196              		.type	Sensor_Timer_Isr, %function
 197              	Sensor_Timer_Isr:
 198              	.LFB64:
 199              		.file 1 "main.c"
   1:main.c        **** /* ========================================
   2:main.c        ****  * Fully working code: 
   3:main.c        ****  * PWM      : 
   4:main.c        ****  * Encoder  : 
   5:main.c        ****  * ADC      :
   6:main.c        ****  * USB      : port displays speed and position.
   7:main.c        ****  * CMD: "PW xx"
   8:main.c        ****  * Copyright Univ of Auckland, 2016
   9:main.c        ****  * All Rights Reserved
  10:main.c        ****  * UNPUBLISHED, LICENSED SOFTWARE.
  11:main.c        ****  *
  12:main.c        ****  * CONFIDENTIAL AND PROPRIETARY INFORMATION
  13:main.c        ****  * WHICH IS THE PROPERTY OF Univ of Auckland.
  14:main.c        ****  *
  15:main.c        ****  * ========================================
  16:main.c        **** */
  17:main.c        **** #include <stdio.h>
  18:main.c        **** #include <string.h>
  19:main.c        **** #include <stdlib.h>
ARM GAS  C:\Users\sela847\AppData\Local\Temp\ccMzjcTW.s 			page 5


  20:main.c        **** #include <project.h>
  21:main.c        **** //* ========================================
  22:main.c        **** #include "defines.h"
  23:main.c        **** #include "vars.h"
  24:main.c        **** //* ========================================
  25:main.c        **** //* ==== Our functionsality Includes =======
  26:main.c        **** #include "movement.h"
  27:main.c        **** #include "states.h"
  28:main.c        **** 
  29:main.c        **** //*=========================================
  30:main.c        **** void usbPutString(char *s);
  31:main.c        **** void usbPutChar(char c);
  32:main.c        **** void handle_usb();
  33:main.c        **** //* ========================================
  34:main.c        **** # define MAX_PATH_SIZE 128
  35:main.c        **** typedef struct Point {
  36:main.c        ****     uint8_t x,y,direction,node,finalTurn,foodPoint,steps  ;
  37:main.c        **** } Point;
  38:main.c        **** 
  39:main.c        **** #define FORWARD    1
  40:main.c        **** #define BACKWARD  2
  41:main.c        **** #define LEFT  3
  42:main.c        **** #define RIGHT 4
  43:main.c        **** 
  44:main.c        **** static Point pathArray[MAX_PATH_SIZE] = {{1,1,FORWARD,1,0,0,0},{1,1,FORWARD,1,0,0,0},{1,3,LEFT,1,0,
  45:main.c        **** uint8_t currentState = DRIVING;
  46:main.c        **** uint8_t firstEntry = 0;
  47:main.c        **** volatile int noSensor = 0;
  48:main.c        **** 
  49:main.c        **** CY_ISR(Sensor_Timer_Isr){
 200              		.loc 1 49 0
 201              		.cfi_startproc
 202              		@ args = 0, pretend = 0, frame = 0
 203              		@ frame_needed = 1, uses_anonymous_args = 0
 204 0000 80B5     		push	{r7, lr}
 205              		.cfi_def_cfa_offset 8
 206              		.cfi_offset 7, -8
 207              		.cfi_offset 14, -4
 208 0002 00AF     		add	r7, sp, #0
 209              		.cfi_def_cfa_register 7
  50:main.c        ****     noSensor = 0;
 210              		.loc 1 50 0
 211 0004 074B     		ldr	r3, .L2
 212 0006 0022     		movs	r2, #0
 213 0008 1A60     		str	r2, [r3]
  51:main.c        ****     Timer_Sensor_Stop();
 214              		.loc 1 51 0
 215 000a FFF7FEFF 		bl	Timer_Sensor_Stop
  52:main.c        ****     LED_GREEN_Write(0);
 216              		.loc 1 52 0
 217 000e 0020     		movs	r0, #0
 218 0010 FFF7FEFF 		bl	LED_GREEN_Write
  53:main.c        ****     LED_BLUE_Write(0);
 219              		.loc 1 53 0
 220 0014 0020     		movs	r0, #0
 221 0016 FFF7FEFF 		bl	LED_BLUE_Write
  54:main.c        ****     LED_Write(1);
ARM GAS  C:\Users\sela847\AppData\Local\Temp\ccMzjcTW.s 			page 6


 222              		.loc 1 54 0
 223 001a 0120     		movs	r0, #1
 224 001c FFF7FEFF 		bl	LED_Write
  55:main.c        **** }
 225              		.loc 1 55 0
 226 0020 00BF     		nop
 227 0022 80BD     		pop	{r7, pc}
 228              	.L3:
 229              		.align	2
 230              	.L2:
 231 0024 00000000 		.word	noSensor
 232              		.cfi_endproc
 233              	.LFE64:
 234              		.size	Sensor_Timer_Isr, .-Sensor_Timer_Isr
 235              		.section	.text.main,"ax",%progbits
 236              		.align	2
 237              		.global	main
 238              		.thumb
 239              		.thumb_func
 240              		.type	main, %function
 241              	main:
 242              	.LFB65:
  56:main.c        **** 
  57:main.c        **** int main(){
 243              		.loc 1 57 0
 244              		.cfi_startproc
 245              		@ args = 0, pretend = 0, frame = 16
 246              		@ frame_needed = 1, uses_anonymous_args = 0
 247 0000 80B5     		push	{r7, lr}
 248              		.cfi_def_cfa_offset 8
 249              		.cfi_offset 7, -8
 250              		.cfi_offset 14, -4
 251 0002 84B0     		sub	sp, sp, #16
 252              		.cfi_def_cfa_offset 24
 253 0004 00AF     		add	r7, sp, #0
 254              		.cfi_def_cfa_register 7
  58:main.c        ****     
  59:main.c        **** // --------------------------------    
  60:main.c        **** // ----- INITIALIZATIONS ----------
  61:main.c        ****         CYGlobalIntEnable;   
 255              		.loc 1 61 0
 256              		.syntax unified
 257              	@ 61 "main.c" 1
 258 0006 62B6     		CPSIE   i
 259              	@ 0 "" 2
  62:main.c        ****     
  63:main.c        ****     M2_INV_Write(1);
 260              		.loc 1 63 0
 261              		.thumb
 262              		.syntax unified
 263 0008 0120     		movs	r0, #1
 264 000a FFF7FEFF 		bl	M2_INV_Write
  64:main.c        ****     //PWM_1_WritePeriod(255);
  65:main.c        ****     
  66:main.c        ****     //PWM1
  67:main.c        ****     PWM_1_Start();
 265              		.loc 1 67 0
ARM GAS  C:\Users\sela847\AppData\Local\Temp\ccMzjcTW.s 			page 7


 266 000e FFF7FEFF 		bl	PWM_1_Start
  68:main.c        ****     //PWM2
  69:main.c        ****     PWM_2_Start();   
 267              		.loc 1 69 0
 268 0012 FFF7FEFF 		bl	PWM_2_Start
  70:main.c        ****     
  71:main.c        ****     controlWheels(STOP, STOP);
 269              		.loc 1 71 0
 270 0016 3221     		movs	r1, #50
 271 0018 3220     		movs	r0, #50
 272 001a FFF7FEFF 		bl	controlWheels
  72:main.c        ****     currentState = DRIVING;
 273              		.loc 1 72 0
 274 001e B84B     		ldr	r3, .L50
 275 0020 0422     		movs	r2, #4
 276 0022 1A70     		strb	r2, [r3]
  73:main.c        ****     
  74:main.c        ****     uint8_t intersect = 0;
 277              		.loc 1 74 0
 278 0024 0023     		movs	r3, #0
 279 0026 FB73     		strb	r3, [r7, #15]
  75:main.c        ****     //#ifdef USE_USB
  76:main.c        ****     //    USBUART_Start(0, USBUART_5V_OPERATION);
  77:main.c        ****     //#endif
  78:main.c        ****     // instuction index
  79:main.c        ****     uint8_t instructions = 0;
 280              		.loc 1 79 0
 281 0028 0023     		movs	r3, #0
 282 002a BB73     		strb	r3, [r7, #14]
  80:main.c        ****     // current instuction
  81:main.c        ****     Point currentInstruction = pathArray[instructions++];
 283              		.loc 1 81 0
 284 002c BB7B     		ldrb	r3, [r7, #14]	@ zero_extendqisi2
 285 002e 5A1C     		adds	r2, r3, #1
 286 0030 BA73     		strb	r2, [r7, #14]
 287 0032 1946     		mov	r1, r3
 288 0034 B34A     		ldr	r2, .L50+4
 289 0036 0B46     		mov	r3, r1
 290 0038 DB00     		lsls	r3, r3, #3
 291 003a 5B1A     		subs	r3, r3, r1
 292 003c 1A44     		add	r2, r2, r3
 293 003e 3B46     		mov	r3, r7
 294 0040 1068     		ldr	r0, [r2]	@ unaligned
 295 0042 1860     		str	r0, [r3]	@ unaligned
 296 0044 9188     		ldrh	r1, [r2, #4]	@ unaligned
 297 0046 9279     		ldrb	r2, [r2, #6]
 298 0048 9980     		strh	r1, [r3, #4]	@ unaligned
 299 004a 9A71     		strb	r2, [r3, #6]
  82:main.c        ****     
  83:main.c        ****     Sensor_isr_StartEx(Sensor_Timer_Isr);
 300              		.loc 1 83 0
 301 004c AE48     		ldr	r0, .L50+8
 302 004e FFF7FEFF 		bl	Sensor_isr_StartEx
  84:main.c        ****     
  85:main.c        ****     
  86:main.c        ****     
  87:main.c        ****     int edgeFlag = 0;
ARM GAS  C:\Users\sela847\AppData\Local\Temp\ccMzjcTW.s 			page 8


 303              		.loc 1 87 0
 304 0052 0023     		movs	r3, #0
 305 0054 BB60     		str	r3, [r7, #8]
  88:main.c        ****     
  89:main.c        **** 
  90:main.c        ****     CyDelay(1000);
 306              		.loc 1 90 0
 307 0056 4FF47A70 		mov	r0, #1000
 308 005a FFF7FEFF 		bl	CyDelay
 309              	.L43:
  91:main.c        ****     for(;;){
  92:main.c        ****         
  93:main.c        ****              
  94:main.c        ****         switch(currentState){
 310              		.loc 1 94 0
 311 005e A84B     		ldr	r3, .L50
 312 0060 1B78     		ldrb	r3, [r3]	@ zero_extendqisi2
 313 0062 033B     		subs	r3, r3, #3
 314 0064 072B     		cmp	r3, #7
 315 0066 FAD8     		bhi	.L43
 316 0068 01A2     		adr	r2, .L7
 317 006a 52F823F0 		ldr	pc, [r2, r3, lsl #2]
 318 006e 00BF     		.p2align 2
 319              	.L7:
 320 0070 49010000 		.word	.L6+1
 321 0074 91000000 		.word	.L8+1
 322 0078 AF030000 		.word	.L9+1
 323 007c 13020000 		.word	.L10+1
 324 0080 5F000000 		.word	.L43+1
 325 0084 5F000000 		.word	.L43+1
 326 0088 5F000000 		.word	.L43+1
 327 008c 43040000 		.word	.L11+1
 328              		.p2align 1
 329              	.L8:
  95:main.c        ****             case (DRIVING):
  96:main.c        ****                 LED_GREEN_Write(1);
 330              		.loc 1 96 0
 331 0090 0120     		movs	r0, #1
 332 0092 FFF7FEFF 		bl	LED_GREEN_Write
  97:main.c        ****                 LED_BLUE_Write(0);
 333              		.loc 1 97 0
 334 0096 0020     		movs	r0, #0
 335 0098 FFF7FEFF 		bl	LED_BLUE_Write
  98:main.c        ****                 LED_Write(0);
 336              		.loc 1 98 0
 337 009c 0020     		movs	r0, #0
 338 009e FFF7FEFF 		bl	LED_Write
  99:main.c        ****                 
 100:main.c        ****                 controlWheels(MEDIUM_FORWARD_L, MEDIUM_FORWARD);
 339              		.loc 1 100 0
 340 00a2 4221     		movs	r1, #66
 341 00a4 4120     		movs	r0, #65
 342 00a6 FFF7FEFF 		bl	controlWheels
 101:main.c        ****                 //controlWheels(TEST_FORWARD_L,TEST_FORWARD);
 102:main.c        ****                 // if all the frot sensors are off the line
 103:main.c        ****                 // if either of left or right middle sensors detects the line
 104:main.c        ****                 /*
ARM GAS  C:\Users\sela847\AppData\Local\Temp\ccMzjcTW.s 			page 9


 105:main.c        ****                 if ((Q1_Read() && Q3_Read()) && (!Q5_Read() || !Q4_Read()) && !noSensor){
 106:main.c        ****                     firstEntry = 1;
 107:main.c        ****                     currentState = PREPARETURN;
 108:main.c        ****                     currentInstruction = pathArray[instructions++];
 109:main.c        ****                 }*/
 110:main.c        ****                 if ((!Q5_Read() || !Q4_Read()) && !noSensor) {
 343              		.loc 1 110 0
 344 00aa FFF7FEFF 		bl	Q5_Read
 345 00ae 0346     		mov	r3, r0
 346 00b0 002B     		cmp	r3, #0
 347 00b2 04D0     		beq	.L12
 348              		.loc 1 110 0 is_stmt 0 discriminator 2
 349 00b4 FFF7FEFF 		bl	Q4_Read
 350 00b8 0346     		mov	r3, r0
 351 00ba 002B     		cmp	r3, #0
 352 00bc 1AD1     		bne	.L13
 353              	.L12:
 354              		.loc 1 110 0 discriminator 3
 355 00be 934B     		ldr	r3, .L50+12
 356 00c0 1B68     		ldr	r3, [r3]
 357 00c2 002B     		cmp	r3, #0
 358 00c4 16D1     		bne	.L13
 111:main.c        ****                     currentState = PREPARETURN;
 359              		.loc 1 111 0 is_stmt 1
 360 00c6 8E4B     		ldr	r3, .L50
 361 00c8 0622     		movs	r2, #6
 362 00ca 1A70     		strb	r2, [r3]
 112:main.c        ****                     firstEntry = 1;
 363              		.loc 1 112 0
 364 00cc 904B     		ldr	r3, .L50+16
 365 00ce 0122     		movs	r2, #1
 366 00d0 1A70     		strb	r2, [r3]
 113:main.c        ****                     currentInstruction = pathArray[instructions++];
 367              		.loc 1 113 0
 368 00d2 BB7B     		ldrb	r3, [r7, #14]	@ zero_extendqisi2
 369 00d4 5A1C     		adds	r2, r3, #1
 370 00d6 BA73     		strb	r2, [r7, #14]
 371 00d8 1946     		mov	r1, r3
 372 00da 8A4A     		ldr	r2, .L50+4
 373 00dc 0B46     		mov	r3, r1
 374 00de DB00     		lsls	r3, r3, #3
 375 00e0 5B1A     		subs	r3, r3, r1
 376 00e2 1A44     		add	r2, r2, r3
 377 00e4 3B46     		mov	r3, r7
 378 00e6 1068     		ldr	r0, [r2]	@ unaligned
 379 00e8 1860     		str	r0, [r3]	@ unaligned
 380 00ea 9188     		ldrh	r1, [r2, #4]	@ unaligned
 381 00ec 9279     		ldrb	r2, [r2, #6]
 382 00ee 9980     		strh	r1, [r3, #4]	@ unaligned
 383 00f0 9A71     		strb	r2, [r3, #6]
 114:main.c        ****                 }
 115:main.c        ****                 // if all the front sensors are not off the line
 116:main.c        ****                 // if either side of the sensor is off the line
 117:main.c        ****                 else if (!(Q1_Read() && Q2_Read() && Q3_Read()) && ((Q1_Read() && Q2_Read()) || (Q2
 118:main.c        ****                     currentState = CALIBRATING;
 119:main.c        ****                 }
 120:main.c        **** 
ARM GAS  C:\Users\sela847\AppData\Local\Temp\ccMzjcTW.s 			page 10


 121:main.c        ****                 break;
 384              		.loc 1 121 0
 385 00f2 ABE1     		b	.L44
 386              	.L13:
 117:main.c        ****                     currentState = CALIBRATING;
 387              		.loc 1 117 0
 388 00f4 FFF7FEFF 		bl	Q1_Read
 389 00f8 0346     		mov	r3, r0
 390 00fa 002B     		cmp	r3, #0
 391 00fc 0AD0     		beq	.L15
 117:main.c        ****                     currentState = CALIBRATING;
 392              		.loc 1 117 0 is_stmt 0 discriminator 2
 393 00fe FFF7FEFF 		bl	Q2_Read
 394 0102 0346     		mov	r3, r0
 395 0104 002B     		cmp	r3, #0
 396 0106 05D0     		beq	.L15
 117:main.c        ****                     currentState = CALIBRATING;
 397              		.loc 1 117 0 discriminator 4
 398 0108 FFF7FEFF 		bl	Q3_Read
 399 010c 0346     		mov	r3, r0
 400 010e 002B     		cmp	r3, #0
 401 0110 40F09C81 		bne	.L44
 402              	.L15:
 117:main.c        ****                     currentState = CALIBRATING;
 403              		.loc 1 117 0 discriminator 5
 404 0114 FFF7FEFF 		bl	Q1_Read
 405 0118 0346     		mov	r3, r0
 406 011a 002B     		cmp	r3, #0
 407 011c 04D0     		beq	.L16
 117:main.c        ****                     currentState = CALIBRATING;
 408              		.loc 1 117 0 discriminator 6
 409 011e FFF7FEFF 		bl	Q2_Read
 410 0122 0346     		mov	r3, r0
 411 0124 002B     		cmp	r3, #0
 412 0126 0BD1     		bne	.L17
 413              	.L16:
 117:main.c        ****                     currentState = CALIBRATING;
 414              		.loc 1 117 0 discriminator 8
 415 0128 FFF7FEFF 		bl	Q2_Read
 416 012c 0346     		mov	r3, r0
 417 012e 002B     		cmp	r3, #0
 418 0130 00F08C81 		beq	.L44
 117:main.c        ****                     currentState = CALIBRATING;
 419              		.loc 1 117 0 discriminator 9
 420 0134 FFF7FEFF 		bl	Q3_Read
 421 0138 0346     		mov	r3, r0
 422 013a 002B     		cmp	r3, #0
 423 013c 00F08681 		beq	.L44
 424              	.L17:
 118:main.c        ****                 }
 425              		.loc 1 118 0 is_stmt 1
 426 0140 6F4B     		ldr	r3, .L50
 427 0142 0322     		movs	r2, #3
 428 0144 1A70     		strb	r2, [r3]
 429              		.loc 1 121 0
 430 0146 81E1     		b	.L44
 431              	.L6:
ARM GAS  C:\Users\sela847\AppData\Local\Temp\ccMzjcTW.s 			page 11


 122:main.c        ****                 
 123:main.c        ****             case (CALIBRATING):
 124:main.c        ****                 LED_GREEN_Write(0);
 432              		.loc 1 124 0
 433 0148 0020     		movs	r0, #0
 434 014a FFF7FEFF 		bl	LED_GREEN_Write
 125:main.c        ****                 LED_BLUE_Write(1);
 435              		.loc 1 125 0
 436 014e 0120     		movs	r0, #1
 437 0150 FFF7FEFF 		bl	LED_BLUE_Write
 126:main.c        ****                 LED_Write(0);
 438              		.loc 1 126 0
 439 0154 0020     		movs	r0, #0
 440 0156 FFF7FEFF 		bl	LED_Write
 127:main.c        ****                 controlWheels(64, MEDIUM_FORWARD);
 441              		.loc 1 127 0
 442 015a 4221     		movs	r1, #66
 443 015c 4020     		movs	r0, #64
 444 015e FFF7FEFF 		bl	controlWheels
 128:main.c        ****                                
 129:main.c        ****                     // if the front wheels are all of the line, we must drive before turning
 130:main.c        ****                     if (Q1_Read() && Q2_Read() && Q3_Read()){
 445              		.loc 1 130 0
 446 0162 FFF7FEFF 		bl	Q1_Read
 447 0166 0346     		mov	r3, r0
 448 0168 002B     		cmp	r3, #0
 449 016a 0CD0     		beq	.L18
 450              		.loc 1 130 0 is_stmt 0 discriminator 1
 451 016c FFF7FEFF 		bl	Q2_Read
 452 0170 0346     		mov	r3, r0
 453 0172 002B     		cmp	r3, #0
 454 0174 07D0     		beq	.L18
 455              		.loc 1 130 0 discriminator 2
 456 0176 FFF7FEFF 		bl	Q3_Read
 457 017a 0346     		mov	r3, r0
 458 017c 002B     		cmp	r3, #0
 459 017e 02D0     		beq	.L18
 131:main.c        ****                         currentState = DRIVING;
 460              		.loc 1 131 0 is_stmt 1
 461 0180 5F4B     		ldr	r3, .L50
 462 0182 0422     		movs	r2, #4
 463 0184 1A70     		strb	r2, [r3]
 464              	.L18:
 132:main.c        ****                     }
 133:main.c        ****                     // right correction
 134:main.c        ****                     if (!Q3_Read()){
 465              		.loc 1 134 0
 466 0186 FFF7FEFF 		bl	Q3_Read
 467 018a 0346     		mov	r3, r0
 468 018c 002B     		cmp	r3, #0
 469 018e 03D1     		bne	.L19
 135:main.c        ****                         controlWheels(MEDIUM_FORWARD, SLOW_FORWARD);
 470              		.loc 1 135 0
 471 0190 3721     		movs	r1, #55
 472 0192 4220     		movs	r0, #66
 473 0194 FFF7FEFF 		bl	controlWheels
 474              	.L19:
ARM GAS  C:\Users\sela847\AppData\Local\Temp\ccMzjcTW.s 			page 12


 136:main.c        ****                     }
 137:main.c        ****                     // left correction
 138:main.c        ****                     if (!Q1_Read()){
 475              		.loc 1 138 0
 476 0198 FFF7FEFF 		bl	Q1_Read
 477 019c 0346     		mov	r3, r0
 478 019e 002B     		cmp	r3, #0
 479 01a0 03D1     		bne	.L20
 139:main.c        ****                         controlWheels(SLOW_FORWARD, MEDIUM_FORWARD);  
 480              		.loc 1 139 0
 481 01a2 4221     		movs	r1, #66
 482 01a4 3720     		movs	r0, #55
 483 01a6 FFF7FEFF 		bl	controlWheels
 484              	.L20:
 140:main.c        ****                     }
 141:main.c        ****                     if (!Q1_Read() && !Q3_Read()){
 485              		.loc 1 141 0
 486 01aa FFF7FEFF 		bl	Q1_Read
 487 01ae 0346     		mov	r3, r0
 488 01b0 002B     		cmp	r3, #0
 489 01b2 07D1     		bne	.L21
 490              		.loc 1 141 0 is_stmt 0 discriminator 1
 491 01b4 FFF7FEFF 		bl	Q3_Read
 492 01b8 0346     		mov	r3, r0
 493 01ba 002B     		cmp	r3, #0
 494 01bc 02D1     		bne	.L21
 142:main.c        ****                         currentState = DRIVING;
 495              		.loc 1 142 0 is_stmt 1
 496 01be 504B     		ldr	r3, .L50
 497 01c0 0422     		movs	r2, #4
 498 01c2 1A70     		strb	r2, [r3]
 499              	.L21:
 143:main.c        ****                         
 144:main.c        ****                     }
 145:main.c        ****                    
 146:main.c        ****                     if ((!Q5_Read() || !Q4_Read()) && !noSensor) {
 500              		.loc 1 146 0
 501 01c4 FFF7FEFF 		bl	Q5_Read
 502 01c8 0346     		mov	r3, r0
 503 01ca 002B     		cmp	r3, #0
 504 01cc 05D0     		beq	.L22
 505              		.loc 1 146 0 is_stmt 0 discriminator 2
 506 01ce FFF7FEFF 		bl	Q4_Read
 507 01d2 0346     		mov	r3, r0
 508 01d4 002B     		cmp	r3, #0
 509 01d6 40F03B81 		bne	.L45
 510              	.L22:
 511              		.loc 1 146 0 discriminator 3
 512 01da 4C4B     		ldr	r3, .L50+12
 513 01dc 1B68     		ldr	r3, [r3]
 514 01de 002B     		cmp	r3, #0
 515 01e0 40F03681 		bne	.L45
 147:main.c        ****                         currentState = PREPARETURN;
 516              		.loc 1 147 0 is_stmt 1
 517 01e4 464B     		ldr	r3, .L50
 518 01e6 0622     		movs	r2, #6
 519 01e8 1A70     		strb	r2, [r3]
ARM GAS  C:\Users\sela847\AppData\Local\Temp\ccMzjcTW.s 			page 13


 148:main.c        ****                         firstEntry = 1;
 520              		.loc 1 148 0
 521 01ea 494B     		ldr	r3, .L50+16
 522 01ec 0122     		movs	r2, #1
 523 01ee 1A70     		strb	r2, [r3]
 149:main.c        ****                         currentInstruction = pathArray[instructions++];
 524              		.loc 1 149 0
 525 01f0 BB7B     		ldrb	r3, [r7, #14]	@ zero_extendqisi2
 526 01f2 5A1C     		adds	r2, r3, #1
 527 01f4 BA73     		strb	r2, [r7, #14]
 528 01f6 1946     		mov	r1, r3
 529 01f8 424A     		ldr	r2, .L50+4
 530 01fa 0B46     		mov	r3, r1
 531 01fc DB00     		lsls	r3, r3, #3
 532 01fe 5B1A     		subs	r3, r3, r1
 533 0200 1A44     		add	r2, r2, r3
 534 0202 3B46     		mov	r3, r7
 535 0204 1068     		ldr	r0, [r2]	@ unaligned
 536 0206 1860     		str	r0, [r3]	@ unaligned
 537 0208 9188     		ldrh	r1, [r2, #4]	@ unaligned
 538 020a 9279     		ldrb	r2, [r2, #6]
 539 020c 9980     		strh	r1, [r3, #4]	@ unaligned
 540 020e 9A71     		strb	r2, [r3, #6]
 150:main.c        ****                     }
 151:main.c        ****                  
 152:main.c        ****                 break; 
 541              		.loc 1 152 0
 542 0210 1EE1     		b	.L45
 543              	.L10:
 153:main.c        ****                     
 154:main.c        ****             case(PREPARETURN):
 155:main.c        ****                 LED_GREEN_Write(0);
 544              		.loc 1 155 0
 545 0212 0020     		movs	r0, #0
 546 0214 FFF7FEFF 		bl	LED_GREEN_Write
 156:main.c        ****                 LED_BLUE_Write(0);
 547              		.loc 1 156 0
 548 0218 0020     		movs	r0, #0
 549 021a FFF7FEFF 		bl	LED_BLUE_Write
 157:main.c        ****                 LED_Write(1);
 550              		.loc 1 157 0
 551 021e 0120     		movs	r0, #1
 552 0220 FFF7FEFF 		bl	LED_Write
 158:main.c        ****                 if(!currentInstruction.foodPoint) {
 553              		.loc 1 158 0
 554 0224 7B79     		ldrb	r3, [r7, #5]	@ zero_extendqisi2
 555 0226 002B     		cmp	r3, #0
 556 0228 40F0B780 		bne	.L24
 159:main.c        ****                     switch(currentInstruction.direction) {
 557              		.loc 1 159 0
 558 022c BB78     		ldrb	r3, [r7, #2]	@ zero_extendqisi2
 559 022e 032B     		cmp	r3, #3
 560 0230 04D0     		beq	.L26
 561 0232 042B     		cmp	r3, #4
 562 0234 6ED0     		beq	.L27
 563 0236 012B     		cmp	r3, #1
 564 0238 45D0     		beq	.L28
ARM GAS  C:\Users\sela847\AppData\Local\Temp\ccMzjcTW.s 			page 14


 160:main.c        ****                     case(LEFT):
 161:main.c        ****                         controlWheels(MEDIUM_REVERSE, MEDIUM_FORWARD);
 162:main.c        ****                          //Working Mostly
 163:main.c        ****                         if ((firstEntry == 1 && Q2_Read() && Q1_Read() && Q3_Read())) { // i.e noth
 164:main.c        ****                             intersect = 1;
 165:main.c        ****                             controlWheels(STOP,STOP);
 166:main.c        ****                             currentState = TURNING;
 167:main.c        ****                         }
 168:main.c        ****                         firstEntry = 0;
 169:main.c        ****                         
 170:main.c        ****                         
 171:main.c        ****                         
 172:main.c        ****                         if (!Q3_Read()) {
 173:main.c        ****                             edgeFlag = 1;   
 174:main.c        ****                             
 175:main.c        ****                         }
 176:main.c        ****                         if(Q2_Read() && Q3_Read() && edgeFlag == 1){
 177:main.c        ****                             intersect = 1;
 178:main.c        ****                             edgeFlag = 0;
 179:main.c        ****                             controlWheels(STOP,STOP);
 180:main.c        ****                             currentState = TURNING;
 181:main.c        ****                         }
 182:main.c        ****                       
 183:main.c        ****                         
 184:main.c        ****                         break;                 
 185:main.c        ****                     case(FORWARD):
 186:main.c        ****                         controlWheels(MEDIUM_FORWARD, MEDIUM_FORWARD);
 187:main.c        ****                         CyDelay(400);    // REVIEW MAYBE //
 188:main.c        ****                         if (Q5_Read() && Q4_Read()){
 189:main.c        ****                             controlWheels(MEDIUM_FORWARD, MEDIUM_FORWARD);
 190:main.c        ****                             currentState = DRIVING;
 191:main.c        ****                         }
 192:main.c        ****                         firstEntry = 0;
 193:main.c        ****                     
 194:main.c        ****                         break;
 195:main.c        ****                     case(RIGHT):
 196:main.c        ****                         controlWheels(MEDIUM_FORWARD, MEDIUM_REVERSE);
 197:main.c        ****                          //Working Mostly
 198:main.c        ****                         if ((firstEntry == 1 && Q2_Read() && Q1_Read() && Q3_Read())) { // i.e noth
 199:main.c        ****                             intersect = 1;
 200:main.c        ****                             controlWheels(STOP,STOP);
 201:main.c        ****                             currentState = TURNING;
 202:main.c        ****                         }
 203:main.c        ****                         firstEntry = 0;
 204:main.c        ****                         
 205:main.c        ****                         
 206:main.c        ****                         
 207:main.c        ****                         if (!Q1_Read()) {
 208:main.c        ****                             edgeFlag = 1;   
 209:main.c        ****                             
 210:main.c        ****                         }
 211:main.c        ****                         if(Q2_Read() && Q1_Read() && edgeFlag == 1){
 212:main.c        ****                             intersect = 1;
 213:main.c        ****                             edgeFlag = 0;
 214:main.c        ****                             controlWheels(STOP,STOP);
 215:main.c        ****                             currentState = TURNING;
 216:main.c        ****                         }
ARM GAS  C:\Users\sela847\AppData\Local\Temp\ccMzjcTW.s 			page 15


 217:main.c        ****                     }
 218:main.c        ****                 } else {
 219:main.c        ****                     controlWheels(STOP,STOP);
 220:main.c        ****                     currentState = STOPCAR;
 221:main.c        ****                 }
 222:main.c        ****                 
 223:main.c        ****                     break;
 565              		.loc 1 223 0
 566 023a 0BE1     		b	.L47
 567              	.L26:
 161:main.c        ****                          //Working Mostly
 568              		.loc 1 161 0
 569 023c 4221     		movs	r1, #66
 570 023e 2320     		movs	r0, #35
 571 0240 FFF7FEFF 		bl	controlWheels
 163:main.c        ****                             intersect = 1;
 572              		.loc 1 163 0
 573 0244 324B     		ldr	r3, .L50+16
 574 0246 1B78     		ldrb	r3, [r3]	@ zero_extendqisi2
 575 0248 012B     		cmp	r3, #1
 576 024a 17D1     		bne	.L29
 163:main.c        ****                             intersect = 1;
 577              		.loc 1 163 0 is_stmt 0 discriminator 1
 578 024c FFF7FEFF 		bl	Q2_Read
 579 0250 0346     		mov	r3, r0
 580 0252 002B     		cmp	r3, #0
 581 0254 12D0     		beq	.L29
 163:main.c        ****                             intersect = 1;
 582              		.loc 1 163 0 discriminator 2
 583 0256 FFF7FEFF 		bl	Q1_Read
 584 025a 0346     		mov	r3, r0
 585 025c 002B     		cmp	r3, #0
 586 025e 0DD0     		beq	.L29
 163:main.c        ****                             intersect = 1;
 587              		.loc 1 163 0 discriminator 3
 588 0260 FFF7FEFF 		bl	Q3_Read
 589 0264 0346     		mov	r3, r0
 590 0266 002B     		cmp	r3, #0
 591 0268 08D0     		beq	.L29
 164:main.c        ****                             controlWheels(STOP,STOP);
 592              		.loc 1 164 0 is_stmt 1
 593 026a 0123     		movs	r3, #1
 594 026c FB73     		strb	r3, [r7, #15]
 165:main.c        ****                             currentState = TURNING;
 595              		.loc 1 165 0
 596 026e 3221     		movs	r1, #50
 597 0270 3220     		movs	r0, #50
 598 0272 FFF7FEFF 		bl	controlWheels
 166:main.c        ****                         }
 599              		.loc 1 166 0
 600 0276 224B     		ldr	r3, .L50
 601 0278 0522     		movs	r2, #5
 602 027a 1A70     		strb	r2, [r3]
 603              	.L29:
 168:main.c        ****                         
 604              		.loc 1 168 0
 605 027c 244B     		ldr	r3, .L50+16
ARM GAS  C:\Users\sela847\AppData\Local\Temp\ccMzjcTW.s 			page 16


 606 027e 0022     		movs	r2, #0
 607 0280 1A70     		strb	r2, [r3]
 172:main.c        ****                             edgeFlag = 1;   
 608              		.loc 1 172 0
 609 0282 FFF7FEFF 		bl	Q3_Read
 610 0286 0346     		mov	r3, r0
 611 0288 002B     		cmp	r3, #0
 612 028a 01D1     		bne	.L30
 173:main.c        ****                             
 613              		.loc 1 173 0
 614 028c 0123     		movs	r3, #1
 615 028e BB60     		str	r3, [r7, #8]
 616              	.L30:
 176:main.c        ****                             intersect = 1;
 617              		.loc 1 176 0
 618 0290 FFF7FEFF 		bl	Q2_Read
 619 0294 0346     		mov	r3, r0
 620 0296 002B     		cmp	r3, #0
 621 0298 00F08780 		beq	.L46
 176:main.c        ****                             intersect = 1;
 622              		.loc 1 176 0 is_stmt 0 discriminator 1
 623 029c FFF7FEFF 		bl	Q3_Read
 624 02a0 0346     		mov	r3, r0
 625 02a2 002B     		cmp	r3, #0
 626 02a4 00F08180 		beq	.L46
 176:main.c        ****                             intersect = 1;
 627              		.loc 1 176 0 discriminator 2
 628 02a8 BB68     		ldr	r3, [r7, #8]
 629 02aa 012B     		cmp	r3, #1
 630 02ac 7DD1     		bne	.L46
 177:main.c        ****                             edgeFlag = 0;
 631              		.loc 1 177 0 is_stmt 1
 632 02ae 0123     		movs	r3, #1
 633 02b0 FB73     		strb	r3, [r7, #15]
 178:main.c        ****                             controlWheels(STOP,STOP);
 634              		.loc 1 178 0
 635 02b2 0023     		movs	r3, #0
 636 02b4 BB60     		str	r3, [r7, #8]
 179:main.c        ****                             currentState = TURNING;
 637              		.loc 1 179 0
 638 02b6 3221     		movs	r1, #50
 639 02b8 3220     		movs	r0, #50
 640 02ba FFF7FEFF 		bl	controlWheels
 180:main.c        ****                         }
 641              		.loc 1 180 0
 642 02be 104B     		ldr	r3, .L50
 643 02c0 0522     		movs	r2, #5
 644 02c2 1A70     		strb	r2, [r3]
 184:main.c        ****                     case(FORWARD):
 645              		.loc 1 184 0
 646 02c4 71E0     		b	.L46
 647              	.L28:
 186:main.c        ****                         CyDelay(400);    // REVIEW MAYBE //
 648              		.loc 1 186 0
 649 02c6 4221     		movs	r1, #66
 650 02c8 4220     		movs	r0, #66
 651 02ca FFF7FEFF 		bl	controlWheels
ARM GAS  C:\Users\sela847\AppData\Local\Temp\ccMzjcTW.s 			page 17


 187:main.c        ****                         if (Q5_Read() && Q4_Read()){
 652              		.loc 1 187 0
 653 02ce 4FF4C870 		mov	r0, #400
 654 02d2 FFF7FEFF 		bl	CyDelay
 188:main.c        ****                             controlWheels(MEDIUM_FORWARD, MEDIUM_FORWARD);
 655              		.loc 1 188 0
 656 02d6 FFF7FEFF 		bl	Q5_Read
 657 02da 0346     		mov	r3, r0
 658 02dc 002B     		cmp	r3, #0
 659 02de 0BD0     		beq	.L32
 188:main.c        ****                             controlWheels(MEDIUM_FORWARD, MEDIUM_FORWARD);
 660              		.loc 1 188 0 is_stmt 0 discriminator 1
 661 02e0 FFF7FEFF 		bl	Q4_Read
 662 02e4 0346     		mov	r3, r0
 663 02e6 002B     		cmp	r3, #0
 664 02e8 06D0     		beq	.L32
 189:main.c        ****                             currentState = DRIVING;
 665              		.loc 1 189 0 is_stmt 1
 666 02ea 4221     		movs	r1, #66
 667 02ec 4220     		movs	r0, #66
 668 02ee FFF7FEFF 		bl	controlWheels
 190:main.c        ****                         }
 669              		.loc 1 190 0
 670 02f2 034B     		ldr	r3, .L50
 671 02f4 0422     		movs	r2, #4
 672 02f6 1A70     		strb	r2, [r3]
 673              	.L32:
 192:main.c        ****                     
 674              		.loc 1 192 0
 675 02f8 054B     		ldr	r3, .L50+16
 676 02fa 0022     		movs	r2, #0
 677 02fc 1A70     		strb	r2, [r3]
 194:main.c        ****                     case(RIGHT):
 678              		.loc 1 194 0
 679 02fe 55E0     		b	.L35
 680              	.L51:
 681              		.align	2
 682              	.L50:
 683 0300 00000000 		.word	currentState
 684 0304 44000000 		.word	pathArray
 685 0308 00000000 		.word	Sensor_Timer_Isr
 686 030c 00000000 		.word	noSensor
 687 0310 00000000 		.word	firstEntry
 688              	.L27:
 196:main.c        ****                          //Working Mostly
 689              		.loc 1 196 0
 690 0314 2321     		movs	r1, #35
 691 0316 4220     		movs	r0, #66
 692 0318 FFF7FEFF 		bl	controlWheels
 198:main.c        ****                             intersect = 1;
 693              		.loc 1 198 0
 694 031c 4E4B     		ldr	r3, .L52
 695 031e 1B78     		ldrb	r3, [r3]	@ zero_extendqisi2
 696 0320 012B     		cmp	r3, #1
 697 0322 17D1     		bne	.L33
 198:main.c        ****                             intersect = 1;
 698              		.loc 1 198 0 is_stmt 0 discriminator 1
ARM GAS  C:\Users\sela847\AppData\Local\Temp\ccMzjcTW.s 			page 18


 699 0324 FFF7FEFF 		bl	Q2_Read
 700 0328 0346     		mov	r3, r0
 701 032a 002B     		cmp	r3, #0
 702 032c 12D0     		beq	.L33
 198:main.c        ****                             intersect = 1;
 703              		.loc 1 198 0 discriminator 2
 704 032e FFF7FEFF 		bl	Q1_Read
 705 0332 0346     		mov	r3, r0
 706 0334 002B     		cmp	r3, #0
 707 0336 0DD0     		beq	.L33
 198:main.c        ****                             intersect = 1;
 708              		.loc 1 198 0 discriminator 3
 709 0338 FFF7FEFF 		bl	Q3_Read
 710 033c 0346     		mov	r3, r0
 711 033e 002B     		cmp	r3, #0
 712 0340 08D0     		beq	.L33
 199:main.c        ****                             controlWheels(STOP,STOP);
 713              		.loc 1 199 0 is_stmt 1
 714 0342 0123     		movs	r3, #1
 715 0344 FB73     		strb	r3, [r7, #15]
 200:main.c        ****                             currentState = TURNING;
 716              		.loc 1 200 0
 717 0346 3221     		movs	r1, #50
 718 0348 3220     		movs	r0, #50
 719 034a FFF7FEFF 		bl	controlWheels
 201:main.c        ****                         }
 720              		.loc 1 201 0
 721 034e 434B     		ldr	r3, .L52+4
 722 0350 0522     		movs	r2, #5
 723 0352 1A70     		strb	r2, [r3]
 724              	.L33:
 203:main.c        ****                         
 725              		.loc 1 203 0
 726 0354 404B     		ldr	r3, .L52
 727 0356 0022     		movs	r2, #0
 728 0358 1A70     		strb	r2, [r3]
 207:main.c        ****                             edgeFlag = 1;   
 729              		.loc 1 207 0
 730 035a FFF7FEFF 		bl	Q1_Read
 731 035e 0346     		mov	r3, r0
 732 0360 002B     		cmp	r3, #0
 733 0362 01D1     		bne	.L34
 208:main.c        ****                             
 734              		.loc 1 208 0
 735 0364 0123     		movs	r3, #1
 736 0366 BB60     		str	r3, [r7, #8]
 737              	.L34:
 211:main.c        ****                             intersect = 1;
 738              		.loc 1 211 0
 739 0368 FFF7FEFF 		bl	Q2_Read
 740 036c 0346     		mov	r3, r0
 741 036e 002B     		cmp	r3, #0
 742 0370 70D0     		beq	.L47
 211:main.c        ****                             intersect = 1;
 743              		.loc 1 211 0 is_stmt 0 discriminator 1
 744 0372 FFF7FEFF 		bl	Q1_Read
 745 0376 0346     		mov	r3, r0
ARM GAS  C:\Users\sela847\AppData\Local\Temp\ccMzjcTW.s 			page 19


 746 0378 002B     		cmp	r3, #0
 747 037a 6BD0     		beq	.L47
 211:main.c        ****                             intersect = 1;
 748              		.loc 1 211 0 discriminator 2
 749 037c BB68     		ldr	r3, [r7, #8]
 750 037e 012B     		cmp	r3, #1
 751 0380 68D1     		bne	.L47
 212:main.c        ****                             edgeFlag = 0;
 752              		.loc 1 212 0 is_stmt 1
 753 0382 0123     		movs	r3, #1
 754 0384 FB73     		strb	r3, [r7, #15]
 213:main.c        ****                             controlWheels(STOP,STOP);
 755              		.loc 1 213 0
 756 0386 0023     		movs	r3, #0
 757 0388 BB60     		str	r3, [r7, #8]
 214:main.c        ****                             currentState = TURNING;
 758              		.loc 1 214 0
 759 038a 3221     		movs	r1, #50
 760 038c 3220     		movs	r0, #50
 761 038e FFF7FEFF 		bl	controlWheels
 215:main.c        ****                         }
 762              		.loc 1 215 0
 763 0392 324B     		ldr	r3, .L52+4
 764 0394 0522     		movs	r2, #5
 765 0396 1A70     		strb	r2, [r3]
 766              		.loc 1 223 0
 767 0398 5CE0     		b	.L47
 768              	.L24:
 219:main.c        ****                     currentState = STOPCAR;
 769              		.loc 1 219 0
 770 039a 3221     		movs	r1, #50
 771 039c 3220     		movs	r0, #50
 772 039e FFF7FEFF 		bl	controlWheels
 220:main.c        ****                 }
 773              		.loc 1 220 0
 774 03a2 2E4B     		ldr	r3, .L52+4
 775 03a4 0A22     		movs	r2, #10
 776 03a6 1A70     		strb	r2, [r3]
 777              		.loc 1 223 0
 778 03a8 54E0     		b	.L47
 779              	.L46:
 184:main.c        ****                     case(FORWARD):
 780              		.loc 1 184 0
 781 03aa 00BF     		nop
 782              	.L35:
 783              		.loc 1 223 0 discriminator 4
 784 03ac 52E0     		b	.L47
 785              	.L9:
 224:main.c        ****             case (TURNING):
 225:main.c        ****                              
 226:main.c        ****                 switch(currentInstruction.direction){
 786              		.loc 1 226 0
 787 03ae BB78     		ldrb	r3, [r7, #2]	@ zero_extendqisi2
 788 03b0 032B     		cmp	r3, #3
 789 03b2 02D0     		beq	.L37
 790 03b4 042B     		cmp	r3, #4
 791 03b6 20D0     		beq	.L38
ARM GAS  C:\Users\sela847\AppData\Local\Temp\ccMzjcTW.s 			page 20


 227:main.c        ****                     LED_GREEN_Write(0);
 228:main.c        ****                     LED_BLUE_Write(0);
 229:main.c        ****                     LED_Write(1);
 230:main.c        ****                     case(LEFT):
 231:main.c        ****                        controlWheels(MEDIUM_REVERSE, MEDIUM_FORWARD);
 232:main.c        ****                         
 233:main.c        ****                         if (!Q2_Read() && !intersect){
 234:main.c        ****                             controlWheels(STOP, STOP);
 235:main.c        ****                             noSensor = 1;
 236:main.c        ****                             Timer_Sensor_Start();
 237:main.c        ****                             currentState = DRIVING;
 238:main.c        ****                         
 239:main.c        ****                         }
 240:main.c        ****                         
 241:main.c        ****                         if (Q2_Read()){                            
 242:main.c        ****                             intersect = 0;
 243:main.c        ****                         }
 244:main.c        **** 
 245:main.c        ****                         break; 
 246:main.c        ****                     case(RIGHT):
 247:main.c        ****                         controlWheels(MEDIUM_FORWARD, MEDIUM_REVERSE);
 248:main.c        ****                         
 249:main.c        ****                         if (!Q2_Read() && !intersect){
 250:main.c        ****                             controlWheels(STOP, STOP);
 251:main.c        ****                             noSensor = 1;
 252:main.c        ****                             Timer_Sensor_Start();
 253:main.c        ****                             currentState = DRIVING;
 254:main.c        ****                         
 255:main.c        ****                         }
 256:main.c        ****                         
 257:main.c        ****                         if (Q2_Read()){                            
 258:main.c        ****                             intersect = 0;
 259:main.c        ****                         }
 260:main.c        **** 
 261:main.c        ****                         break; 
 262:main.c        ****                 }
 263:main.c        ****                
 264:main.c        ****                 break;
 792              		.loc 1 264 0
 793 03b8 4DE0     		b	.L5
 794              	.L37:
 231:main.c        ****                         
 795              		.loc 1 231 0
 796 03ba 4221     		movs	r1, #66
 797 03bc 2320     		movs	r0, #35
 798 03be FFF7FEFF 		bl	controlWheels
 233:main.c        ****                             controlWheels(STOP, STOP);
 799              		.loc 1 233 0
 800 03c2 FFF7FEFF 		bl	Q2_Read
 801 03c6 0346     		mov	r3, r0
 802 03c8 002B     		cmp	r3, #0
 803 03ca 0ED1     		bne	.L39
 233:main.c        ****                             controlWheels(STOP, STOP);
 804              		.loc 1 233 0 is_stmt 0 discriminator 1
 805 03cc FB7B     		ldrb	r3, [r7, #15]	@ zero_extendqisi2
 806 03ce 002B     		cmp	r3, #0
 807 03d0 0BD1     		bne	.L39
ARM GAS  C:\Users\sela847\AppData\Local\Temp\ccMzjcTW.s 			page 21


 234:main.c        ****                             noSensor = 1;
 808              		.loc 1 234 0 is_stmt 1
 809 03d2 3221     		movs	r1, #50
 810 03d4 3220     		movs	r0, #50
 811 03d6 FFF7FEFF 		bl	controlWheels
 235:main.c        ****                             Timer_Sensor_Start();
 812              		.loc 1 235 0
 813 03da 214B     		ldr	r3, .L52+8
 814 03dc 0122     		movs	r2, #1
 815 03de 1A60     		str	r2, [r3]
 236:main.c        ****                             currentState = DRIVING;
 816              		.loc 1 236 0
 817 03e0 FFF7FEFF 		bl	Timer_Sensor_Start
 237:main.c        ****                         
 818              		.loc 1 237 0
 819 03e4 1D4B     		ldr	r3, .L52+4
 820 03e6 0422     		movs	r2, #4
 821 03e8 1A70     		strb	r2, [r3]
 822              	.L39:
 241:main.c        ****                             intersect = 0;
 823              		.loc 1 241 0
 824 03ea FFF7FEFF 		bl	Q2_Read
 825 03ee 0346     		mov	r3, r0
 826 03f0 002B     		cmp	r3, #0
 827 03f2 22D0     		beq	.L48
 242:main.c        ****                         }
 828              		.loc 1 242 0
 829 03f4 0023     		movs	r3, #0
 830 03f6 FB73     		strb	r3, [r7, #15]
 245:main.c        ****                     case(RIGHT):
 831              		.loc 1 245 0
 832 03f8 1FE0     		b	.L48
 833              	.L38:
 247:main.c        ****                         
 834              		.loc 1 247 0
 835 03fa 2321     		movs	r1, #35
 836 03fc 4220     		movs	r0, #66
 837 03fe FFF7FEFF 		bl	controlWheels
 249:main.c        ****                             controlWheels(STOP, STOP);
 838              		.loc 1 249 0
 839 0402 FFF7FEFF 		bl	Q2_Read
 840 0406 0346     		mov	r3, r0
 841 0408 002B     		cmp	r3, #0
 842 040a 0ED1     		bne	.L41
 249:main.c        ****                             controlWheels(STOP, STOP);
 843              		.loc 1 249 0 is_stmt 0 discriminator 1
 844 040c FB7B     		ldrb	r3, [r7, #15]	@ zero_extendqisi2
 845 040e 002B     		cmp	r3, #0
 846 0410 0BD1     		bne	.L41
 250:main.c        ****                             noSensor = 1;
 847              		.loc 1 250 0 is_stmt 1
 848 0412 3221     		movs	r1, #50
 849 0414 3220     		movs	r0, #50
 850 0416 FFF7FEFF 		bl	controlWheels
 251:main.c        ****                             Timer_Sensor_Start();
 851              		.loc 1 251 0
 852 041a 114B     		ldr	r3, .L52+8
ARM GAS  C:\Users\sela847\AppData\Local\Temp\ccMzjcTW.s 			page 22


 853 041c 0122     		movs	r2, #1
 854 041e 1A60     		str	r2, [r3]
 252:main.c        ****                             currentState = DRIVING;
 855              		.loc 1 252 0
 856 0420 FFF7FEFF 		bl	Timer_Sensor_Start
 253:main.c        ****                         
 857              		.loc 1 253 0
 858 0424 0D4B     		ldr	r3, .L52+4
 859 0426 0422     		movs	r2, #4
 860 0428 1A70     		strb	r2, [r3]
 861              	.L41:
 257:main.c        ****                             intersect = 0;
 862              		.loc 1 257 0
 863 042a FFF7FEFF 		bl	Q2_Read
 864 042e 0346     		mov	r3, r0
 865 0430 002B     		cmp	r3, #0
 866 0432 04D0     		beq	.L49
 258:main.c        ****                         }
 867              		.loc 1 258 0
 868 0434 0023     		movs	r3, #0
 869 0436 FB73     		strb	r3, [r7, #15]
 261:main.c        ****                 }
 870              		.loc 1 261 0
 871 0438 01E0     		b	.L49
 872              	.L48:
 245:main.c        ****                     case(RIGHT):
 873              		.loc 1 245 0
 874 043a 00BF     		nop
 875 043c 0BE0     		b	.L5
 876              	.L49:
 261:main.c        ****                 }
 877              		.loc 1 261 0
 878 043e 00BF     		nop
 879              		.loc 1 264 0
 880 0440 09E0     		b	.L5
 881              	.L11:
 265:main.c        ****             case (STOPCAR):
 266:main.c        ****                 controlWheels(STOP,STOP);
 882              		.loc 1 266 0
 883 0442 3221     		movs	r1, #50
 884 0444 3220     		movs	r0, #50
 885 0446 FFF7FEFF 		bl	controlWheels
 267:main.c        ****                 break;
 886              		.loc 1 267 0
 887 044a 04E0     		b	.L5
 888              	.L44:
 121:main.c        ****                 
 889              		.loc 1 121 0
 890 044c 00BF     		nop
 891 044e 06E6     		b	.L43
 892              	.L45:
 152:main.c        ****                     
 893              		.loc 1 152 0
 894 0450 00BF     		nop
 895 0452 04E6     		b	.L43
 896              	.L47:
 223:main.c        ****             case (TURNING):
ARM GAS  C:\Users\sela847\AppData\Local\Temp\ccMzjcTW.s 			page 23


 897              		.loc 1 223 0
 898 0454 00BF     		nop
 899              	.L5:
 268:main.c        ****                     
 269:main.c        ****         }
 270:main.c        ****            
 271:main.c        ****     }
 900              		.loc 1 271 0 discriminator 8
 901 0456 02E6     		b	.L43
 902              	.L53:
 903              		.align	2
 904              	.L52:
 905 0458 00000000 		.word	firstEntry
 906 045c 00000000 		.word	currentState
 907 0460 00000000 		.word	noSensor
 908              		.cfi_endproc
 909              	.LFE65:
 910              		.size	main, .-main
 911              		.section	.text.usbPutString,"ax",%progbits
 912              		.align	2
 913              		.global	usbPutString
 914              		.thumb
 915              		.thumb_func
 916              		.type	usbPutString, %function
 917              	usbPutString:
 918              	.LFB66:
 272:main.c        ****             
 273:main.c        ****         
 274:main.c        ****     
 275:main.c        **** }//End main
 276:main.c        **** 
 277:main.c        **** 
 278:main.c        **** 
 279:main.c        **** //* ========================================
 280:main.c        **** void usbPutString(char *s)
 281:main.c        **** {
 919              		.loc 1 281 0
 920              		.cfi_startproc
 921              		@ args = 0, pretend = 0, frame = 8
 922              		@ frame_needed = 1, uses_anonymous_args = 0
 923 0000 80B5     		push	{r7, lr}
 924              		.cfi_def_cfa_offset 8
 925              		.cfi_offset 7, -8
 926              		.cfi_offset 14, -4
 927 0002 82B0     		sub	sp, sp, #8
 928              		.cfi_def_cfa_offset 16
 929 0004 00AF     		add	r7, sp, #0
 930              		.cfi_def_cfa_register 7
 931 0006 7860     		str	r0, [r7, #4]
 282:main.c        **** // !! Assumes that *s is a string with allocated space >=64 chars     
 283:main.c        **** //  Since USB implementation retricts data packets to 64 chars, this function truncates the
 284:main.c        **** //  length to 62 char (63rd char is a '!')
 285:main.c        **** 
 286:main.c        **** #ifdef USE_USB     
 287:main.c        ****     while (USBUART_CDCIsReady() == 0);
 932              		.loc 1 287 0
 933 0008 00BF     		nop
ARM GAS  C:\Users\sela847\AppData\Local\Temp\ccMzjcTW.s 			page 24


 934              	.L55:
 935              		.loc 1 287 0 is_stmt 0 discriminator 1
 936 000a FFF7FEFF 		bl	USBUART_CDCIsReady
 937 000e 0346     		mov	r3, r0
 938 0010 002B     		cmp	r3, #0
 939 0012 FAD0     		beq	.L55
 288:main.c        ****     s[63]='\0';
 940              		.loc 1 288 0 is_stmt 1
 941 0014 7B68     		ldr	r3, [r7, #4]
 942 0016 3F33     		adds	r3, r3, #63
 943 0018 0022     		movs	r2, #0
 944 001a 1A70     		strb	r2, [r3]
 289:main.c        ****     s[62]='!';
 945              		.loc 1 289 0
 946 001c 7B68     		ldr	r3, [r7, #4]
 947 001e 3E33     		adds	r3, r3, #62
 948 0020 2122     		movs	r2, #33
 949 0022 1A70     		strb	r2, [r3]
 290:main.c        ****     USBUART_PutData((uint8*)s,strlen(s));
 950              		.loc 1 290 0
 951 0024 7868     		ldr	r0, [r7, #4]
 952 0026 FFF7FEFF 		bl	strlen
 953 002a 0346     		mov	r3, r0
 954 002c 9BB2     		uxth	r3, r3
 955 002e 1946     		mov	r1, r3
 956 0030 7868     		ldr	r0, [r7, #4]
 957 0032 FFF7FEFF 		bl	USBUART_PutData
 291:main.c        **** #endif
 292:main.c        **** }
 958              		.loc 1 292 0
 959 0036 00BF     		nop
 960 0038 0837     		adds	r7, r7, #8
 961              		.cfi_def_cfa_offset 8
 962 003a BD46     		mov	sp, r7
 963              		.cfi_def_cfa_register 13
 964              		@ sp needed
 965 003c 80BD     		pop	{r7, pc}
 966              		.cfi_endproc
 967              	.LFE66:
 968              		.size	usbPutString, .-usbPutString
 969 003e 00BF     		.section	.text.usbPutChar,"ax",%progbits
 970              		.align	2
 971              		.global	usbPutChar
 972              		.thumb
 973              		.thumb_func
 974              		.type	usbPutChar, %function
 975              	usbPutChar:
 976              	.LFB67:
 293:main.c        **** //* ========================================
 294:main.c        **** void usbPutChar(char c)
 295:main.c        **** {
 977              		.loc 1 295 0
 978              		.cfi_startproc
 979              		@ args = 0, pretend = 0, frame = 8
 980              		@ frame_needed = 1, uses_anonymous_args = 0
 981 0000 80B5     		push	{r7, lr}
 982              		.cfi_def_cfa_offset 8
ARM GAS  C:\Users\sela847\AppData\Local\Temp\ccMzjcTW.s 			page 25


 983              		.cfi_offset 7, -8
 984              		.cfi_offset 14, -4
 985 0002 82B0     		sub	sp, sp, #8
 986              		.cfi_def_cfa_offset 16
 987 0004 00AF     		add	r7, sp, #0
 988              		.cfi_def_cfa_register 7
 989 0006 0346     		mov	r3, r0
 990 0008 FB71     		strb	r3, [r7, #7]
 296:main.c        **** #ifdef USE_USB     
 297:main.c        ****     while (USBUART_CDCIsReady() == 0);
 991              		.loc 1 297 0
 992 000a 00BF     		nop
 993              	.L57:
 994              		.loc 1 297 0 is_stmt 0 discriminator 1
 995 000c FFF7FEFF 		bl	USBUART_CDCIsReady
 996 0010 0346     		mov	r3, r0
 997 0012 002B     		cmp	r3, #0
 998 0014 FAD0     		beq	.L57
 298:main.c        ****     USBUART_PutChar(c);
 999              		.loc 1 298 0 is_stmt 1
 1000 0016 FB79     		ldrb	r3, [r7, #7]	@ zero_extendqisi2
 1001 0018 1846     		mov	r0, r3
 1002 001a FFF7FEFF 		bl	USBUART_PutChar
 299:main.c        **** #endif    
 300:main.c        **** }
 1003              		.loc 1 300 0
 1004 001e 00BF     		nop
 1005 0020 0837     		adds	r7, r7, #8
 1006              		.cfi_def_cfa_offset 8
 1007 0022 BD46     		mov	sp, r7
 1008              		.cfi_def_cfa_register 13
 1009              		@ sp needed
 1010 0024 80BD     		pop	{r7, pc}
 1011              		.cfi_endproc
 1012              	.LFE67:
 1013              		.size	usbPutChar, .-usbPutChar
 1014 0026 00BF     		.text
 1015              	.Letext0:
 1016              		.file 2 "c:\\program files (x86)\\cypress\\psoc creator\\4.2\\psoc creator\\import\\gnu\\arm\\5.4.
 1017              		.file 3 "c:\\program files (x86)\\cypress\\psoc creator\\4.2\\psoc creator\\import\\gnu\\arm\\5.4.
 1018              		.file 4 "Generated_Source\\PSoC5/cytypes.h"
 1019              		.file 5 "vars.h"
 1020              		.file 6 "Generated_Source\\PSoC5/core_cm3.h"
 1021              		.section	.debug_info,"",%progbits
 1022              	.Ldebug_info0:
 1023 0000 A5040000 		.4byte	0x4a5
 1024 0004 0400     		.2byte	0x4
 1025 0006 00000000 		.4byte	.Ldebug_abbrev0
 1026 000a 04       		.byte	0x4
 1027 000b 01       		.uleb128 0x1
 1028 000c 5E000000 		.4byte	.LASF76
 1029 0010 0C       		.byte	0xc
 1030 0011 45030000 		.4byte	.LASF77
 1031 0015 DF020000 		.4byte	.LASF78
 1032 0019 00000000 		.4byte	.Ldebug_ranges0+0
 1033 001d 00000000 		.4byte	0
 1034 0021 00000000 		.4byte	.Ldebug_line0
ARM GAS  C:\Users\sela847\AppData\Local\Temp\ccMzjcTW.s 			page 26


 1035 0025 02       		.uleb128 0x2
 1036 0026 01       		.byte	0x1
 1037 0027 06       		.byte	0x6
 1038 0028 1A020000 		.4byte	.LASF0
 1039 002c 03       		.uleb128 0x3
 1040 002d A7010000 		.4byte	.LASF4
 1041 0031 02       		.byte	0x2
 1042 0032 1D       		.byte	0x1d
 1043 0033 37000000 		.4byte	0x37
 1044 0037 02       		.uleb128 0x2
 1045 0038 01       		.byte	0x1
 1046 0039 08       		.byte	0x8
 1047 003a F4010000 		.4byte	.LASF1
 1048 003e 02       		.uleb128 0x2
 1049 003f 02       		.byte	0x2
 1050 0040 05       		.byte	0x5
 1051 0041 34000000 		.4byte	.LASF2
 1052 0045 02       		.uleb128 0x2
 1053 0046 02       		.byte	0x2
 1054 0047 07       		.byte	0x7
 1055 0048 76020000 		.4byte	.LASF3
 1056 004c 03       		.uleb128 0x3
 1057 004d 9A030000 		.4byte	.LASF5
 1058 0051 02       		.byte	0x2
 1059 0052 3F       		.byte	0x3f
 1060 0053 57000000 		.4byte	0x57
 1061 0057 02       		.uleb128 0x2
 1062 0058 04       		.byte	0x4
 1063 0059 05       		.byte	0x5
 1064 005a 9E010000 		.4byte	.LASF6
 1065 005e 02       		.uleb128 0x2
 1066 005f 04       		.byte	0x4
 1067 0060 07       		.byte	0x7
 1068 0061 4C030000 		.4byte	.LASF7
 1069 0065 02       		.uleb128 0x2
 1070 0066 08       		.byte	0x8
 1071 0067 05       		.byte	0x5
 1072 0068 47010000 		.4byte	.LASF8
 1073 006c 02       		.uleb128 0x2
 1074 006d 08       		.byte	0x8
 1075 006e 07       		.byte	0x7
 1076 006f 26020000 		.4byte	.LASF9
 1077 0073 04       		.uleb128 0x4
 1078 0074 04       		.byte	0x4
 1079 0075 05       		.byte	0x5
 1080 0076 696E7400 		.ascii	"int\000"
 1081 007a 02       		.uleb128 0x2
 1082 007b 04       		.byte	0x4
 1083 007c 07       		.byte	0x7
 1084 007d 43020000 		.4byte	.LASF10
 1085 0081 02       		.uleb128 0x2
 1086 0082 08       		.byte	0x8
 1087 0083 04       		.byte	0x4
 1088 0084 DF010000 		.4byte	.LASF11
 1089 0088 02       		.uleb128 0x2
 1090 0089 04       		.byte	0x4
 1091 008a 07       		.byte	0x7
ARM GAS  C:\Users\sela847\AppData\Local\Temp\ccMzjcTW.s 			page 27


 1092 008b 4B000000 		.4byte	.LASF12
 1093 008f 05       		.uleb128 0x5
 1094 0090 04       		.byte	0x4
 1095 0091 95000000 		.4byte	0x95
 1096 0095 02       		.uleb128 0x2
 1097 0096 01       		.byte	0x1
 1098 0097 08       		.byte	0x8
 1099 0098 93020000 		.4byte	.LASF13
 1100 009c 03       		.uleb128 0x3
 1101 009d A4030000 		.4byte	.LASF14
 1102 00a1 03       		.byte	0x3
 1103 00a2 18       		.byte	0x18
 1104 00a3 2C000000 		.4byte	0x2c
 1105 00a7 03       		.uleb128 0x3
 1106 00a8 A3020000 		.4byte	.LASF15
 1107 00ac 03       		.byte	0x3
 1108 00ad 2C       		.byte	0x2c
 1109 00ae 4C000000 		.4byte	0x4c
 1110 00b2 06       		.uleb128 0x6
 1111 00b3 0E010000 		.4byte	.LASF16
 1112 00b7 04       		.byte	0x4
 1113 00b8 E701     		.2byte	0x1e7
 1114 00ba 37000000 		.4byte	0x37
 1115 00be 06       		.uleb128 0x6
 1116 00bf FB000000 		.4byte	.LASF17
 1117 00c3 04       		.byte	0x4
 1118 00c4 E801     		.2byte	0x1e8
 1119 00c6 45000000 		.4byte	0x45
 1120 00ca 06       		.uleb128 0x6
 1121 00cb 62010000 		.4byte	.LASF18
 1122 00cf 04       		.byte	0x4
 1123 00d0 EA01     		.2byte	0x1ea
 1124 00d2 25000000 		.4byte	0x25
 1125 00d6 06       		.uleb128 0x6
 1126 00d7 08010000 		.4byte	.LASF19
 1127 00db 04       		.byte	0x4
 1128 00dc EB01     		.2byte	0x1eb
 1129 00de 3E000000 		.4byte	0x3e
 1130 00e2 02       		.uleb128 0x2
 1131 00e3 04       		.byte	0x4
 1132 00e4 04       		.byte	0x4
 1133 00e5 41010000 		.4byte	.LASF20
 1134 00e9 02       		.uleb128 0x2
 1135 00ea 08       		.byte	0x8
 1136 00eb 04       		.byte	0x4
 1137 00ec 68030000 		.4byte	.LASF21
 1138 00f0 07       		.uleb128 0x7
 1139 00f1 89020000 		.4byte	.LASF39
 1140 00f5 20       		.byte	0x20
 1141 00f6 05       		.byte	0x5
 1142 00f7 29       		.byte	0x29
 1143 00f8 C9010000 		.4byte	0x1c9
 1144 00fc 08       		.uleb128 0x8
 1145 00fd 1E040000 		.4byte	.LASF22
 1146 0101 05       		.byte	0x5
 1147 0102 2A       		.byte	0x2a
 1148 0103 CA000000 		.4byte	0xca
ARM GAS  C:\Users\sela847\AppData\Local\Temp\ccMzjcTW.s 			page 28


 1149 0107 00       		.byte	0
 1150 0108 08       		.uleb128 0x8
 1151 0109 02010000 		.4byte	.LASF23
 1152 010d 05       		.byte	0x5
 1153 010e 2B       		.byte	0x2b
 1154 010f B2000000 		.4byte	0xb2
 1155 0113 01       		.byte	0x1
 1156 0114 08       		.uleb128 0x8
 1157 0115 98020000 		.4byte	.LASF24
 1158 0119 05       		.byte	0x5
 1159 011a 2C       		.byte	0x2c
 1160 011b D6000000 		.4byte	0xd6
 1161 011f 02       		.byte	0x2
 1162 0120 08       		.uleb128 0x8
 1163 0121 E5030000 		.4byte	.LASF25
 1164 0125 05       		.byte	0x5
 1165 0126 2D       		.byte	0x2d
 1166 0127 D6000000 		.4byte	0xd6
 1167 012b 04       		.byte	0x4
 1168 012c 08       		.uleb128 0x8
 1169 012d 23040000 		.4byte	.LASF26
 1170 0131 05       		.byte	0x5
 1171 0132 2E       		.byte	0x2e
 1172 0133 D6000000 		.4byte	0xd6
 1173 0137 06       		.byte	0x6
 1174 0138 08       		.uleb128 0x8
 1175 0139 D7020000 		.4byte	.LASF27
 1176 013d 05       		.byte	0x5
 1177 013e 2F       		.byte	0x2f
 1178 013f D6000000 		.4byte	0xd6
 1179 0143 08       		.byte	0x8
 1180 0144 08       		.uleb128 0x8
 1181 0145 AC030000 		.4byte	.LASF28
 1182 0149 05       		.byte	0x5
 1183 014a 30       		.byte	0x30
 1184 014b D6000000 		.4byte	0xd6
 1185 014f 0A       		.byte	0xa
 1186 0150 08       		.uleb128 0x8
 1187 0151 02020000 		.4byte	.LASF29
 1188 0155 05       		.byte	0x5
 1189 0156 31       		.byte	0x31
 1190 0157 D6000000 		.4byte	0xd6
 1191 015b 0C       		.byte	0xc
 1192 015c 08       		.uleb128 0x8
 1193 015d 87010000 		.4byte	.LASF30
 1194 0161 05       		.byte	0x5
 1195 0162 32       		.byte	0x32
 1196 0163 D6000000 		.4byte	0xd6
 1197 0167 0E       		.byte	0xe
 1198 0168 08       		.uleb128 0x8
 1199 0169 68020000 		.4byte	.LASF31
 1200 016d 05       		.byte	0x5
 1201 016e 33       		.byte	0x33
 1202 016f D6000000 		.4byte	0xd6
 1203 0173 10       		.byte	0x10
 1204 0174 08       		.uleb128 0x8
 1205 0175 AB020000 		.4byte	.LASF32
ARM GAS  C:\Users\sela847\AppData\Local\Temp\ccMzjcTW.s 			page 29


 1206 0179 05       		.byte	0x5
 1207 017a 34       		.byte	0x34
 1208 017b D6000000 		.4byte	0xd6
 1209 017f 12       		.byte	0x12
 1210 0180 08       		.uleb128 0x8
 1211 0181 C0020000 		.4byte	.LASF33
 1212 0185 05       		.byte	0x5
 1213 0186 35       		.byte	0x35
 1214 0187 D6000000 		.4byte	0xd6
 1215 018b 14       		.byte	0x14
 1216 018c 08       		.uleb128 0x8
 1217 018d 14010000 		.4byte	.LASF34
 1218 0191 05       		.byte	0x5
 1219 0192 36       		.byte	0x36
 1220 0193 D6000000 		.4byte	0xd6
 1221 0197 16       		.byte	0x16
 1222 0198 08       		.uleb128 0x8
 1223 0199 2C000000 		.4byte	.LASF35
 1224 019d 05       		.byte	0x5
 1225 019e 37       		.byte	0x37
 1226 019f D6000000 		.4byte	0xd6
 1227 01a3 18       		.byte	0x18
 1228 01a4 08       		.uleb128 0x8
 1229 01a5 7F010000 		.4byte	.LASF36
 1230 01a9 05       		.byte	0x5
 1231 01aa 38       		.byte	0x38
 1232 01ab D6000000 		.4byte	0xd6
 1233 01af 1A       		.byte	0x1a
 1234 01b0 08       		.uleb128 0x8
 1235 01b1 5F020000 		.4byte	.LASF37
 1236 01b5 05       		.byte	0x5
 1237 01b6 39       		.byte	0x39
 1238 01b7 D6000000 		.4byte	0xd6
 1239 01bb 1C       		.byte	0x1c
 1240 01bc 08       		.uleb128 0x8
 1241 01bd B3020000 		.4byte	.LASF38
 1242 01c1 05       		.byte	0x5
 1243 01c2 3A       		.byte	0x3a
 1244 01c3 D6000000 		.4byte	0xd6
 1245 01c7 1E       		.byte	0x1e
 1246 01c8 00       		.byte	0
 1247 01c9 07       		.uleb128 0x7
 1248 01ca 3D020000 		.4byte	.LASF40
 1249 01ce 07       		.byte	0x7
 1250 01cf 01       		.byte	0x1
 1251 01d0 23       		.byte	0x23
 1252 01d1 26020000 		.4byte	0x226
 1253 01d5 09       		.uleb128 0x9
 1254 01d6 7800     		.ascii	"x\000"
 1255 01d8 01       		.byte	0x1
 1256 01d9 24       		.byte	0x24
 1257 01da 9C000000 		.4byte	0x9c
 1258 01de 00       		.byte	0
 1259 01df 09       		.uleb128 0x9
 1260 01e0 7900     		.ascii	"y\000"
 1261 01e2 01       		.byte	0x1
 1262 01e3 24       		.byte	0x24
ARM GAS  C:\Users\sela847\AppData\Local\Temp\ccMzjcTW.s 			page 30


 1263 01e4 9C000000 		.4byte	0x9c
 1264 01e8 01       		.byte	0x1
 1265 01e9 08       		.uleb128 0x8
 1266 01ea EC000000 		.4byte	.LASF41
 1267 01ee 01       		.byte	0x1
 1268 01ef 24       		.byte	0x24
 1269 01f0 9C000000 		.4byte	0x9c
 1270 01f4 02       		.byte	0x2
 1271 01f5 08       		.uleb128 0x8
 1272 01f6 89030000 		.4byte	.LASF42
 1273 01fa 01       		.byte	0x1
 1274 01fb 24       		.byte	0x24
 1275 01fc 9C000000 		.4byte	0x9c
 1276 0200 03       		.byte	0x3
 1277 0201 08       		.uleb128 0x8
 1278 0202 94010000 		.4byte	.LASF43
 1279 0206 01       		.byte	0x1
 1280 0207 24       		.byte	0x24
 1281 0208 9C000000 		.4byte	0x9c
 1282 020c 04       		.byte	0x4
 1283 020d 08       		.uleb128 0x8
 1284 020e 14040000 		.4byte	.LASF44
 1285 0212 01       		.byte	0x1
 1286 0213 24       		.byte	0x24
 1287 0214 9C000000 		.4byte	0x9c
 1288 0218 05       		.byte	0x5
 1289 0219 08       		.uleb128 0x8
 1290 021a 70020000 		.4byte	.LASF45
 1291 021e 01       		.byte	0x1
 1292 021f 24       		.byte	0x24
 1293 0220 9C000000 		.4byte	0x9c
 1294 0224 06       		.byte	0x6
 1295 0225 00       		.byte	0
 1296 0226 03       		.uleb128 0x3
 1297 0227 3D020000 		.4byte	.LASF40
 1298 022b 01       		.byte	0x1
 1299 022c 25       		.byte	0x25
 1300 022d C9010000 		.4byte	0x1c9
 1301 0231 0A       		.uleb128 0xa
 1302 0232 6F030000 		.4byte	.LASF79
 1303 0236 01       		.byte	0x1
 1304 0237 31       		.byte	0x31
 1305 0238 00000000 		.4byte	.LFB64
 1306 023c 28000000 		.4byte	.LFE64-.LFB64
 1307 0240 01       		.uleb128 0x1
 1308 0241 9C       		.byte	0x9c
 1309 0242 0B       		.uleb128 0xb
 1310 0243 F6000000 		.4byte	.LASF50
 1311 0247 01       		.byte	0x1
 1312 0248 39       		.byte	0x39
 1313 0249 73000000 		.4byte	0x73
 1314 024d 00000000 		.4byte	.LFB65
 1315 0251 64040000 		.4byte	.LFE65-.LFB65
 1316 0255 01       		.uleb128 0x1
 1317 0256 9C       		.byte	0x9c
 1318 0257 94020000 		.4byte	0x294
 1319 025b 0C       		.uleb128 0xc
ARM GAS  C:\Users\sela847\AppData\Local\Temp\ccMzjcTW.s 			page 31


 1320 025c F0030000 		.4byte	.LASF46
 1321 0260 01       		.byte	0x1
 1322 0261 4A       		.byte	0x4a
 1323 0262 9C000000 		.4byte	0x9c
 1324 0266 02       		.uleb128 0x2
 1325 0267 91       		.byte	0x91
 1326 0268 77       		.sleb128 -9
 1327 0269 0C       		.uleb128 0xc
 1328 026a 07040000 		.4byte	.LASF47
 1329 026e 01       		.byte	0x1
 1330 026f 4F       		.byte	0x4f
 1331 0270 9C000000 		.4byte	0x9c
 1332 0274 02       		.uleb128 0x2
 1333 0275 91       		.byte	0x91
 1334 0276 76       		.sleb128 -10
 1335 0277 0C       		.uleb128 0xc
 1336 0278 2E010000 		.4byte	.LASF48
 1337 027c 01       		.byte	0x1
 1338 027d 51       		.byte	0x51
 1339 027e 26020000 		.4byte	0x226
 1340 0282 02       		.uleb128 0x2
 1341 0283 91       		.byte	0x91
 1342 0284 68       		.sleb128 -24
 1343 0285 0C       		.uleb128 0xc
 1344 0286 EB010000 		.4byte	.LASF49
 1345 028a 01       		.byte	0x1
 1346 028b 57       		.byte	0x57
 1347 028c 73000000 		.4byte	0x73
 1348 0290 02       		.uleb128 0x2
 1349 0291 91       		.byte	0x91
 1350 0292 70       		.sleb128 -16
 1351 0293 00       		.byte	0
 1352 0294 0D       		.uleb128 0xd
 1353 0295 55010000 		.4byte	.LASF51
 1354 0299 01       		.byte	0x1
 1355 029a 1801     		.2byte	0x118
 1356 029c 00000000 		.4byte	.LFB66
 1357 02a0 3E000000 		.4byte	.LFE66-.LFB66
 1358 02a4 01       		.uleb128 0x1
 1359 02a5 9C       		.byte	0x9c
 1360 02a6 B8020000 		.4byte	0x2b8
 1361 02aa 0E       		.uleb128 0xe
 1362 02ab 7300     		.ascii	"s\000"
 1363 02ad 01       		.byte	0x1
 1364 02ae 1801     		.2byte	0x118
 1365 02b0 8F000000 		.4byte	0x8f
 1366 02b4 02       		.uleb128 0x2
 1367 02b5 91       		.byte	0x91
 1368 02b6 74       		.sleb128 -12
 1369 02b7 00       		.byte	0
 1370 02b8 0D       		.uleb128 0xd
 1371 02b9 00000000 		.4byte	.LASF52
 1372 02bd 01       		.byte	0x1
 1373 02be 2601     		.2byte	0x126
 1374 02c0 00000000 		.4byte	.LFB67
 1375 02c4 26000000 		.4byte	.LFE67-.LFB67
 1376 02c8 01       		.uleb128 0x1
ARM GAS  C:\Users\sela847\AppData\Local\Temp\ccMzjcTW.s 			page 32


 1377 02c9 9C       		.byte	0x9c
 1378 02ca DC020000 		.4byte	0x2dc
 1379 02ce 0E       		.uleb128 0xe
 1380 02cf 6300     		.ascii	"c\000"
 1381 02d1 01       		.byte	0x1
 1382 02d2 2601     		.2byte	0x126
 1383 02d4 95000000 		.4byte	0x95
 1384 02d8 02       		.uleb128 0x2
 1385 02d9 91       		.byte	0x91
 1386 02da 77       		.sleb128 -9
 1387 02db 00       		.byte	0
 1388 02dc 0F       		.uleb128 0xf
 1389 02dd 26020000 		.4byte	0x226
 1390 02e1 EC020000 		.4byte	0x2ec
 1391 02e5 10       		.uleb128 0x10
 1392 02e6 88000000 		.4byte	0x88
 1393 02ea 7F       		.byte	0x7f
 1394 02eb 00       		.byte	0
 1395 02ec 0C       		.uleb128 0xc
 1396 02ed 5E030000 		.4byte	.LASF53
 1397 02f1 01       		.byte	0x1
 1398 02f2 2C       		.byte	0x2c
 1399 02f3 DC020000 		.4byte	0x2dc
 1400 02f7 05       		.uleb128 0x5
 1401 02f8 03       		.byte	0x3
 1402 02f9 44000000 		.4byte	pathArray
 1403 02fd 11       		.uleb128 0x11
 1404 02fe FA030000 		.4byte	.LASF54
 1405 0302 06       		.byte	0x6
 1406 0303 1207     		.2byte	0x712
 1407 0305 09030000 		.4byte	0x309
 1408 0309 12       		.uleb128 0x12
 1409 030a A7000000 		.4byte	0xa7
 1410 030e 13       		.uleb128 0x13
 1411 030f 747300   		.ascii	"ts\000"
 1412 0312 05       		.byte	0x5
 1413 0313 10       		.byte	0x10
 1414 0314 B2000000 		.4byte	0xb2
 1415 0318 05       		.uleb128 0x5
 1416 0319 03       		.byte	0x3
 1417 031a 00000000 		.4byte	ts
 1418 031e 14       		.uleb128 0x14
 1419 031f 0B000000 		.4byte	.LASF55
 1420 0323 05       		.byte	0x5
 1421 0324 11       		.byte	0x11
 1422 0325 BE000000 		.4byte	0xbe
 1423 0329 05       		.uleb128 0x5
 1424 032a 03       		.byte	0x3
 1425 032b 00000000 		.4byte	ts_enc
 1426 032f 14       		.uleb128 0x14
 1427 0330 BF030000 		.4byte	.LASF56
 1428 0334 05       		.byte	0x5
 1429 0335 12       		.byte	0x12
 1430 0336 BE000000 		.4byte	0xbe
 1431 033a 05       		.uleb128 0x5
 1432 033b 03       		.byte	0x3
 1433 033c 00000000 		.4byte	ts_update
ARM GAS  C:\Users\sela847\AppData\Local\Temp\ccMzjcTW.s 			page 33


 1434 0340 14       		.uleb128 0x14
 1435 0341 80030000 		.4byte	.LASF57
 1436 0345 05       		.byte	0x5
 1437 0346 13       		.byte	0x13
 1438 0347 BE000000 		.4byte	0xbe
 1439 034b 05       		.uleb128 0x5
 1440 034c 03       		.byte	0x3
 1441 034d 00000000 		.4byte	ts_speed
 1442 0351 14       		.uleb128 0x14
 1443 0352 B4030000 		.4byte	.LASF58
 1444 0356 05       		.byte	0x5
 1445 0357 14       		.byte	0x14
 1446 0358 BE000000 		.4byte	0xbe
 1447 035c 05       		.uleb128 0x5
 1448 035d 03       		.byte	0x3
 1449 035e 00000000 		.4byte	ts_display
 1450 0362 14       		.uleb128 0x14
 1451 0363 8E030000 		.4byte	.LASF59
 1452 0367 05       		.byte	0x5
 1453 0368 16       		.byte	0x16
 1454 0369 B2000000 		.4byte	0xb2
 1455 036d 05       		.uleb128 0x5
 1456 036e 03       		.byte	0x3
 1457 036f 00000000 		.4byte	flag_ts_enc
 1458 0373 14       		.uleb128 0x14
 1459 0374 70010000 		.4byte	.LASF60
 1460 0378 05       		.byte	0x5
 1461 0379 17       		.byte	0x17
 1462 037a B2000000 		.4byte	0xb2
 1463 037e 05       		.uleb128 0x5
 1464 037f 03       		.byte	0x3
 1465 0380 00000000 		.4byte	flag_ts_update
 1466 0384 14       		.uleb128 0x14
 1467 0385 1E000000 		.4byte	.LASF61
 1468 0389 05       		.byte	0x5
 1469 038a 18       		.byte	0x18
 1470 038b B2000000 		.4byte	0xb2
 1471 038f 05       		.uleb128 0x5
 1472 0390 03       		.byte	0x3
 1473 0391 00000000 		.4byte	flag_ts_speed
 1474 0395 14       		.uleb128 0x14
 1475 0396 B6010000 		.4byte	.LASF62
 1476 039a 05       		.byte	0x5
 1477 039b 19       		.byte	0x19
 1478 039c B2000000 		.4byte	0xb2
 1479 03a0 05       		.uleb128 0x5
 1480 03a1 03       		.byte	0x3
 1481 03a2 00000000 		.4byte	flag_ts_display
 1482 03a6 14       		.uleb128 0x14
 1483 03a7 C6010000 		.4byte	.LASF63
 1484 03ab 05       		.byte	0x5
 1485 03ac 1C       		.byte	0x1c
 1486 03ad B2000000 		.4byte	0xb2
 1487 03b1 05       		.uleb128 0x5
 1488 03b2 03       		.byte	0x3
 1489 03b3 00000000 		.4byte	flag_rx
 1490 03b7 14       		.uleb128 0x14
ARM GAS  C:\Users\sela847\AppData\Local\Temp\ccMzjcTW.s 			page 34


 1491 03b8 12000000 		.4byte	.LASF64
 1492 03bc 05       		.byte	0x5
 1493 03bd 1D       		.byte	0x1d
 1494 03be B2000000 		.4byte	0xb2
 1495 03c2 05       		.uleb128 0x5
 1496 03c3 03       		.byte	0x3
 1497 03c4 00000000 		.4byte	flag_packet
 1498 03c8 14       		.uleb128 0x14
 1499 03c9 50020000 		.4byte	.LASF65
 1500 03cd 05       		.byte	0x5
 1501 03ce 1E       		.byte	0x1e
 1502 03cf B2000000 		.4byte	0xb2
 1503 03d3 05       		.uleb128 0x5
 1504 03d4 03       		.byte	0x3
 1505 03d5 00000000 		.4byte	flag_KB_string
 1506 03d9 14       		.uleb128 0x14
 1507 03da 0B020000 		.4byte	.LASF66
 1508 03de 05       		.byte	0x5
 1509 03df 20       		.byte	0x20
 1510 03e0 B2000000 		.4byte	0xb2
 1511 03e4 05       		.uleb128 0x5
 1512 03e5 03       		.byte	0x3
 1513 03e6 00000000 		.4byte	dataready_flag
 1514 03ea 14       		.uleb128 0x14
 1515 03eb C9030000 		.4byte	.LASF67
 1516 03ef 05       		.byte	0x5
 1517 03f0 22       		.byte	0x22
 1518 03f1 B2000000 		.4byte	0xb2
 1519 03f5 05       		.uleb128 0x5
 1520 03f6 03       		.byte	0x3
 1521 03f7 00000000 		.4byte	flag_rf_transmission_active
 1522 03fb 0F       		.uleb128 0xf
 1523 03fc 95000000 		.4byte	0x95
 1524 0400 0B040000 		.4byte	0x40b
 1525 0404 10       		.uleb128 0x10
 1526 0405 88000000 		.4byte	0x88
 1527 0409 3F       		.byte	0x3f
 1528 040a 00       		.byte	0
 1529 040b 14       		.uleb128 0x14
 1530 040c C9020000 		.4byte	.LASF68
 1531 0410 05       		.byte	0x5
 1532 0411 25       		.byte	0x25
 1533 0412 FB030000 		.4byte	0x3fb
 1534 0416 05       		.uleb128 0x5
 1535 0417 03       		.byte	0x3
 1536 0418 00000000 		.4byte	displaystring
 1537 041c 14       		.uleb128 0x14
 1538 041d B1010000 		.4byte	.LASF69
 1539 0421 05       		.byte	0x5
 1540 0422 26       		.byte	0x26
 1541 0423 FB030000 		.4byte	0x3fb
 1542 0427 05       		.uleb128 0x5
 1543 0428 03       		.byte	0x3
 1544 0429 00000000 		.4byte	line
 1545 042d 14       		.uleb128 0x14
 1546 042e D9010000 		.4byte	.LASF70
 1547 0432 05       		.byte	0x5
ARM GAS  C:\Users\sela847\AppData\Local\Temp\ccMzjcTW.s 			page 35


 1548 0433 26       		.byte	0x26
 1549 0434 FB030000 		.4byte	0x3fb
 1550 0438 05       		.uleb128 0x5
 1551 0439 03       		.byte	0x3
 1552 043a 00000000 		.4byte	entry
 1553 043e 0F       		.uleb128 0xf
 1554 043f B2000000 		.4byte	0xb2
 1555 0443 4E040000 		.4byte	0x44e
 1556 0447 10       		.uleb128 0x10
 1557 0448 88000000 		.4byte	0x88
 1558 044c 3F       		.byte	0x3f
 1559 044d 00       		.byte	0
 1560 044e 14       		.uleb128 0x14
 1561 044f 54000000 		.4byte	.LASF71
 1562 0453 05       		.byte	0x5
 1563 0454 27       		.byte	0x27
 1564 0455 3E040000 		.4byte	0x43e
 1565 0459 05       		.uleb128 0x5
 1566 045a 03       		.byte	0x3
 1567 045b 00000000 		.4byte	usbBuffer
 1568 045f 14       		.uleb128 0x14
 1569 0460 3E000000 		.4byte	.LASF72
 1570 0464 05       		.byte	0x5
 1571 0465 3C       		.byte	0x3c
 1572 0466 F0000000 		.4byte	0xf0
 1573 046a 05       		.uleb128 0x5
 1574 046b 03       		.byte	0x3
 1575 046c 00000000 		.4byte	system_state
 1576 0470 14       		.uleb128 0x14
 1577 0471 21010000 		.4byte	.LASF73
 1578 0475 01       		.byte	0x1
 1579 0476 2D       		.byte	0x2d
 1580 0477 9C000000 		.4byte	0x9c
 1581 047b 05       		.uleb128 0x5
 1582 047c 03       		.byte	0x3
 1583 047d 00000000 		.4byte	currentState
 1584 0481 14       		.uleb128 0x14
 1585 0482 CE010000 		.4byte	.LASF74
 1586 0486 01       		.byte	0x1
 1587 0487 2E       		.byte	0x2e
 1588 0488 9C000000 		.4byte	0x9c
 1589 048c 05       		.uleb128 0x5
 1590 048d 03       		.byte	0x3
 1591 048e 00000000 		.4byte	firstEntry
 1592 0492 14       		.uleb128 0x14
 1593 0493 67010000 		.4byte	.LASF75
 1594 0497 01       		.byte	0x1
 1595 0498 2F       		.byte	0x2f
 1596 0499 A3040000 		.4byte	0x4a3
 1597 049d 05       		.uleb128 0x5
 1598 049e 03       		.byte	0x3
 1599 049f 00000000 		.4byte	noSensor
 1600 04a3 12       		.uleb128 0x12
 1601 04a4 73000000 		.4byte	0x73
 1602 04a8 00       		.byte	0
 1603              		.section	.debug_abbrev,"",%progbits
 1604              	.Ldebug_abbrev0:
ARM GAS  C:\Users\sela847\AppData\Local\Temp\ccMzjcTW.s 			page 36


 1605 0000 01       		.uleb128 0x1
 1606 0001 11       		.uleb128 0x11
 1607 0002 01       		.byte	0x1
 1608 0003 25       		.uleb128 0x25
 1609 0004 0E       		.uleb128 0xe
 1610 0005 13       		.uleb128 0x13
 1611 0006 0B       		.uleb128 0xb
 1612 0007 03       		.uleb128 0x3
 1613 0008 0E       		.uleb128 0xe
 1614 0009 1B       		.uleb128 0x1b
 1615 000a 0E       		.uleb128 0xe
 1616 000b 55       		.uleb128 0x55
 1617 000c 17       		.uleb128 0x17
 1618 000d 11       		.uleb128 0x11
 1619 000e 01       		.uleb128 0x1
 1620 000f 10       		.uleb128 0x10
 1621 0010 17       		.uleb128 0x17
 1622 0011 00       		.byte	0
 1623 0012 00       		.byte	0
 1624 0013 02       		.uleb128 0x2
 1625 0014 24       		.uleb128 0x24
 1626 0015 00       		.byte	0
 1627 0016 0B       		.uleb128 0xb
 1628 0017 0B       		.uleb128 0xb
 1629 0018 3E       		.uleb128 0x3e
 1630 0019 0B       		.uleb128 0xb
 1631 001a 03       		.uleb128 0x3
 1632 001b 0E       		.uleb128 0xe
 1633 001c 00       		.byte	0
 1634 001d 00       		.byte	0
 1635 001e 03       		.uleb128 0x3
 1636 001f 16       		.uleb128 0x16
 1637 0020 00       		.byte	0
 1638 0021 03       		.uleb128 0x3
 1639 0022 0E       		.uleb128 0xe
 1640 0023 3A       		.uleb128 0x3a
 1641 0024 0B       		.uleb128 0xb
 1642 0025 3B       		.uleb128 0x3b
 1643 0026 0B       		.uleb128 0xb
 1644 0027 49       		.uleb128 0x49
 1645 0028 13       		.uleb128 0x13
 1646 0029 00       		.byte	0
 1647 002a 00       		.byte	0
 1648 002b 04       		.uleb128 0x4
 1649 002c 24       		.uleb128 0x24
 1650 002d 00       		.byte	0
 1651 002e 0B       		.uleb128 0xb
 1652 002f 0B       		.uleb128 0xb
 1653 0030 3E       		.uleb128 0x3e
 1654 0031 0B       		.uleb128 0xb
 1655 0032 03       		.uleb128 0x3
 1656 0033 08       		.uleb128 0x8
 1657 0034 00       		.byte	0
 1658 0035 00       		.byte	0
 1659 0036 05       		.uleb128 0x5
 1660 0037 0F       		.uleb128 0xf
 1661 0038 00       		.byte	0
ARM GAS  C:\Users\sela847\AppData\Local\Temp\ccMzjcTW.s 			page 37


 1662 0039 0B       		.uleb128 0xb
 1663 003a 0B       		.uleb128 0xb
 1664 003b 49       		.uleb128 0x49
 1665 003c 13       		.uleb128 0x13
 1666 003d 00       		.byte	0
 1667 003e 00       		.byte	0
 1668 003f 06       		.uleb128 0x6
 1669 0040 16       		.uleb128 0x16
 1670 0041 00       		.byte	0
 1671 0042 03       		.uleb128 0x3
 1672 0043 0E       		.uleb128 0xe
 1673 0044 3A       		.uleb128 0x3a
 1674 0045 0B       		.uleb128 0xb
 1675 0046 3B       		.uleb128 0x3b
 1676 0047 05       		.uleb128 0x5
 1677 0048 49       		.uleb128 0x49
 1678 0049 13       		.uleb128 0x13
 1679 004a 00       		.byte	0
 1680 004b 00       		.byte	0
 1681 004c 07       		.uleb128 0x7
 1682 004d 13       		.uleb128 0x13
 1683 004e 01       		.byte	0x1
 1684 004f 03       		.uleb128 0x3
 1685 0050 0E       		.uleb128 0xe
 1686 0051 0B       		.uleb128 0xb
 1687 0052 0B       		.uleb128 0xb
 1688 0053 3A       		.uleb128 0x3a
 1689 0054 0B       		.uleb128 0xb
 1690 0055 3B       		.uleb128 0x3b
 1691 0056 0B       		.uleb128 0xb
 1692 0057 01       		.uleb128 0x1
 1693 0058 13       		.uleb128 0x13
 1694 0059 00       		.byte	0
 1695 005a 00       		.byte	0
 1696 005b 08       		.uleb128 0x8
 1697 005c 0D       		.uleb128 0xd
 1698 005d 00       		.byte	0
 1699 005e 03       		.uleb128 0x3
 1700 005f 0E       		.uleb128 0xe
 1701 0060 3A       		.uleb128 0x3a
 1702 0061 0B       		.uleb128 0xb
 1703 0062 3B       		.uleb128 0x3b
 1704 0063 0B       		.uleb128 0xb
 1705 0064 49       		.uleb128 0x49
 1706 0065 13       		.uleb128 0x13
 1707 0066 38       		.uleb128 0x38
 1708 0067 0B       		.uleb128 0xb
 1709 0068 00       		.byte	0
 1710 0069 00       		.byte	0
 1711 006a 09       		.uleb128 0x9
 1712 006b 0D       		.uleb128 0xd
 1713 006c 00       		.byte	0
 1714 006d 03       		.uleb128 0x3
 1715 006e 08       		.uleb128 0x8
 1716 006f 3A       		.uleb128 0x3a
 1717 0070 0B       		.uleb128 0xb
 1718 0071 3B       		.uleb128 0x3b
ARM GAS  C:\Users\sela847\AppData\Local\Temp\ccMzjcTW.s 			page 38


 1719 0072 0B       		.uleb128 0xb
 1720 0073 49       		.uleb128 0x49
 1721 0074 13       		.uleb128 0x13
 1722 0075 38       		.uleb128 0x38
 1723 0076 0B       		.uleb128 0xb
 1724 0077 00       		.byte	0
 1725 0078 00       		.byte	0
 1726 0079 0A       		.uleb128 0xa
 1727 007a 2E       		.uleb128 0x2e
 1728 007b 00       		.byte	0
 1729 007c 3F       		.uleb128 0x3f
 1730 007d 19       		.uleb128 0x19
 1731 007e 03       		.uleb128 0x3
 1732 007f 0E       		.uleb128 0xe
 1733 0080 3A       		.uleb128 0x3a
 1734 0081 0B       		.uleb128 0xb
 1735 0082 3B       		.uleb128 0x3b
 1736 0083 0B       		.uleb128 0xb
 1737 0084 27       		.uleb128 0x27
 1738 0085 19       		.uleb128 0x19
 1739 0086 11       		.uleb128 0x11
 1740 0087 01       		.uleb128 0x1
 1741 0088 12       		.uleb128 0x12
 1742 0089 06       		.uleb128 0x6
 1743 008a 40       		.uleb128 0x40
 1744 008b 18       		.uleb128 0x18
 1745 008c 9642     		.uleb128 0x2116
 1746 008e 19       		.uleb128 0x19
 1747 008f 00       		.byte	0
 1748 0090 00       		.byte	0
 1749 0091 0B       		.uleb128 0xb
 1750 0092 2E       		.uleb128 0x2e
 1751 0093 01       		.byte	0x1
 1752 0094 3F       		.uleb128 0x3f
 1753 0095 19       		.uleb128 0x19
 1754 0096 03       		.uleb128 0x3
 1755 0097 0E       		.uleb128 0xe
 1756 0098 3A       		.uleb128 0x3a
 1757 0099 0B       		.uleb128 0xb
 1758 009a 3B       		.uleb128 0x3b
 1759 009b 0B       		.uleb128 0xb
 1760 009c 49       		.uleb128 0x49
 1761 009d 13       		.uleb128 0x13
 1762 009e 11       		.uleb128 0x11
 1763 009f 01       		.uleb128 0x1
 1764 00a0 12       		.uleb128 0x12
 1765 00a1 06       		.uleb128 0x6
 1766 00a2 40       		.uleb128 0x40
 1767 00a3 18       		.uleb128 0x18
 1768 00a4 9642     		.uleb128 0x2116
 1769 00a6 19       		.uleb128 0x19
 1770 00a7 01       		.uleb128 0x1
 1771 00a8 13       		.uleb128 0x13
 1772 00a9 00       		.byte	0
 1773 00aa 00       		.byte	0
 1774 00ab 0C       		.uleb128 0xc
 1775 00ac 34       		.uleb128 0x34
ARM GAS  C:\Users\sela847\AppData\Local\Temp\ccMzjcTW.s 			page 39


 1776 00ad 00       		.byte	0
 1777 00ae 03       		.uleb128 0x3
 1778 00af 0E       		.uleb128 0xe
 1779 00b0 3A       		.uleb128 0x3a
 1780 00b1 0B       		.uleb128 0xb
 1781 00b2 3B       		.uleb128 0x3b
 1782 00b3 0B       		.uleb128 0xb
 1783 00b4 49       		.uleb128 0x49
 1784 00b5 13       		.uleb128 0x13
 1785 00b6 02       		.uleb128 0x2
 1786 00b7 18       		.uleb128 0x18
 1787 00b8 00       		.byte	0
 1788 00b9 00       		.byte	0
 1789 00ba 0D       		.uleb128 0xd
 1790 00bb 2E       		.uleb128 0x2e
 1791 00bc 01       		.byte	0x1
 1792 00bd 3F       		.uleb128 0x3f
 1793 00be 19       		.uleb128 0x19
 1794 00bf 03       		.uleb128 0x3
 1795 00c0 0E       		.uleb128 0xe
 1796 00c1 3A       		.uleb128 0x3a
 1797 00c2 0B       		.uleb128 0xb
 1798 00c3 3B       		.uleb128 0x3b
 1799 00c4 05       		.uleb128 0x5
 1800 00c5 27       		.uleb128 0x27
 1801 00c6 19       		.uleb128 0x19
 1802 00c7 11       		.uleb128 0x11
 1803 00c8 01       		.uleb128 0x1
 1804 00c9 12       		.uleb128 0x12
 1805 00ca 06       		.uleb128 0x6
 1806 00cb 40       		.uleb128 0x40
 1807 00cc 18       		.uleb128 0x18
 1808 00cd 9642     		.uleb128 0x2116
 1809 00cf 19       		.uleb128 0x19
 1810 00d0 01       		.uleb128 0x1
 1811 00d1 13       		.uleb128 0x13
 1812 00d2 00       		.byte	0
 1813 00d3 00       		.byte	0
 1814 00d4 0E       		.uleb128 0xe
 1815 00d5 05       		.uleb128 0x5
 1816 00d6 00       		.byte	0
 1817 00d7 03       		.uleb128 0x3
 1818 00d8 08       		.uleb128 0x8
 1819 00d9 3A       		.uleb128 0x3a
 1820 00da 0B       		.uleb128 0xb
 1821 00db 3B       		.uleb128 0x3b
 1822 00dc 05       		.uleb128 0x5
 1823 00dd 49       		.uleb128 0x49
 1824 00de 13       		.uleb128 0x13
 1825 00df 02       		.uleb128 0x2
 1826 00e0 18       		.uleb128 0x18
 1827 00e1 00       		.byte	0
 1828 00e2 00       		.byte	0
 1829 00e3 0F       		.uleb128 0xf
 1830 00e4 01       		.uleb128 0x1
 1831 00e5 01       		.byte	0x1
 1832 00e6 49       		.uleb128 0x49
ARM GAS  C:\Users\sela847\AppData\Local\Temp\ccMzjcTW.s 			page 40


 1833 00e7 13       		.uleb128 0x13
 1834 00e8 01       		.uleb128 0x1
 1835 00e9 13       		.uleb128 0x13
 1836 00ea 00       		.byte	0
 1837 00eb 00       		.byte	0
 1838 00ec 10       		.uleb128 0x10
 1839 00ed 21       		.uleb128 0x21
 1840 00ee 00       		.byte	0
 1841 00ef 49       		.uleb128 0x49
 1842 00f0 13       		.uleb128 0x13
 1843 00f1 2F       		.uleb128 0x2f
 1844 00f2 0B       		.uleb128 0xb
 1845 00f3 00       		.byte	0
 1846 00f4 00       		.byte	0
 1847 00f5 11       		.uleb128 0x11
 1848 00f6 34       		.uleb128 0x34
 1849 00f7 00       		.byte	0
 1850 00f8 03       		.uleb128 0x3
 1851 00f9 0E       		.uleb128 0xe
 1852 00fa 3A       		.uleb128 0x3a
 1853 00fb 0B       		.uleb128 0xb
 1854 00fc 3B       		.uleb128 0x3b
 1855 00fd 05       		.uleb128 0x5
 1856 00fe 49       		.uleb128 0x49
 1857 00ff 13       		.uleb128 0x13
 1858 0100 3F       		.uleb128 0x3f
 1859 0101 19       		.uleb128 0x19
 1860 0102 3C       		.uleb128 0x3c
 1861 0103 19       		.uleb128 0x19
 1862 0104 00       		.byte	0
 1863 0105 00       		.byte	0
 1864 0106 12       		.uleb128 0x12
 1865 0107 35       		.uleb128 0x35
 1866 0108 00       		.byte	0
 1867 0109 49       		.uleb128 0x49
 1868 010a 13       		.uleb128 0x13
 1869 010b 00       		.byte	0
 1870 010c 00       		.byte	0
 1871 010d 13       		.uleb128 0x13
 1872 010e 34       		.uleb128 0x34
 1873 010f 00       		.byte	0
 1874 0110 03       		.uleb128 0x3
 1875 0111 08       		.uleb128 0x8
 1876 0112 3A       		.uleb128 0x3a
 1877 0113 0B       		.uleb128 0xb
 1878 0114 3B       		.uleb128 0x3b
 1879 0115 0B       		.uleb128 0xb
 1880 0116 49       		.uleb128 0x49
 1881 0117 13       		.uleb128 0x13
 1882 0118 3F       		.uleb128 0x3f
 1883 0119 19       		.uleb128 0x19
 1884 011a 02       		.uleb128 0x2
 1885 011b 18       		.uleb128 0x18
 1886 011c 00       		.byte	0
 1887 011d 00       		.byte	0
 1888 011e 14       		.uleb128 0x14
 1889 011f 34       		.uleb128 0x34
ARM GAS  C:\Users\sela847\AppData\Local\Temp\ccMzjcTW.s 			page 41


 1890 0120 00       		.byte	0
 1891 0121 03       		.uleb128 0x3
 1892 0122 0E       		.uleb128 0xe
 1893 0123 3A       		.uleb128 0x3a
 1894 0124 0B       		.uleb128 0xb
 1895 0125 3B       		.uleb128 0x3b
 1896 0126 0B       		.uleb128 0xb
 1897 0127 49       		.uleb128 0x49
 1898 0128 13       		.uleb128 0x13
 1899 0129 3F       		.uleb128 0x3f
 1900 012a 19       		.uleb128 0x19
 1901 012b 02       		.uleb128 0x2
 1902 012c 18       		.uleb128 0x18
 1903 012d 00       		.byte	0
 1904 012e 00       		.byte	0
 1905 012f 00       		.byte	0
 1906              		.section	.debug_aranges,"",%progbits
 1907 0000 34000000 		.4byte	0x34
 1908 0004 0200     		.2byte	0x2
 1909 0006 00000000 		.4byte	.Ldebug_info0
 1910 000a 04       		.byte	0x4
 1911 000b 00       		.byte	0
 1912 000c 0000     		.2byte	0
 1913 000e 0000     		.2byte	0
 1914 0010 00000000 		.4byte	.LFB64
 1915 0014 28000000 		.4byte	.LFE64-.LFB64
 1916 0018 00000000 		.4byte	.LFB65
 1917 001c 64040000 		.4byte	.LFE65-.LFB65
 1918 0020 00000000 		.4byte	.LFB66
 1919 0024 3E000000 		.4byte	.LFE66-.LFB66
 1920 0028 00000000 		.4byte	.LFB67
 1921 002c 26000000 		.4byte	.LFE67-.LFB67
 1922 0030 00000000 		.4byte	0
 1923 0034 00000000 		.4byte	0
 1924              		.section	.debug_ranges,"",%progbits
 1925              	.Ldebug_ranges0:
 1926 0000 00000000 		.4byte	.LFB64
 1927 0004 28000000 		.4byte	.LFE64
 1928 0008 00000000 		.4byte	.LFB65
 1929 000c 64040000 		.4byte	.LFE65
 1930 0010 00000000 		.4byte	.LFB66
 1931 0014 3E000000 		.4byte	.LFE66
 1932 0018 00000000 		.4byte	.LFB67
 1933 001c 26000000 		.4byte	.LFE67
 1934 0020 00000000 		.4byte	0
 1935 0024 00000000 		.4byte	0
 1936              		.section	.debug_line,"",%progbits
 1937              	.Ldebug_line0:
 1938 0000 EB020000 		.section	.debug_str,"MS",%progbits,1
 1938      02005601 
 1938      00000201 
 1938      FB0E0D00 
 1938      01010101 
 1939              	.LASF52:
 1940 0000 75736250 		.ascii	"usbPutChar\000"
 1940      75744368 
 1940      617200
ARM GAS  C:\Users\sela847\AppData\Local\Temp\ccMzjcTW.s 			page 42


 1941              	.LASF55:
 1942 000b 74735F65 		.ascii	"ts_enc\000"
 1942      6E6300
 1943              	.LASF64:
 1944 0012 666C6167 		.ascii	"flag_packet\000"
 1944      5F706163 
 1944      6B657400 
 1945              	.LASF61:
 1946 001e 666C6167 		.ascii	"flag_ts_speed\000"
 1946      5F74735F 
 1946      73706565 
 1946      6400
 1947              	.LASF35:
 1948 002c 67325F78 		.ascii	"g2_xpos\000"
 1948      706F7300 
 1949              	.LASF2:
 1950 0034 73686F72 		.ascii	"short int\000"
 1950      7420696E 
 1950      7400
 1951              	.LASF72:
 1952 003e 73797374 		.ascii	"system_state\000"
 1952      656D5F73 
 1952      74617465 
 1952      00
 1953              	.LASF12:
 1954 004b 73697A65 		.ascii	"sizetype\000"
 1954      74797065 
 1954      00
 1955              	.LASF71:
 1956 0054 75736242 		.ascii	"usbBuffer\000"
 1956      75666665 
 1956      7200
 1957              	.LASF76:
 1958 005e 474E5520 		.ascii	"GNU C11 5.4.1 20160609 (release) [ARM/embedded-5-br"
 1958      43313120 
 1958      352E342E 
 1958      31203230 
 1958      31363036 
 1959 0091 616E6368 		.ascii	"anch revision 237715] -mcpu=cortex-m3 -mthumb -g -O"
 1959      20726576 
 1959      6973696F 
 1959      6E203233 
 1959      37373135 
 1960 00c4 30202D66 		.ascii	"0 -ffunction-sections -ffat-lto-objects\000"
 1960      66756E63 
 1960      74696F6E 
 1960      2D736563 
 1960      74696F6E 
 1961              	.LASF41:
 1962 00ec 64697265 		.ascii	"direction\000"
 1962      6374696F 
 1962      6E00
 1963              	.LASF50:
 1964 00f6 6D61696E 		.ascii	"main\000"
 1964      00
 1965              	.LASF17:
 1966 00fb 75696E74 		.ascii	"uint16\000"
ARM GAS  C:\Users\sela847\AppData\Local\Temp\ccMzjcTW.s 			page 43


 1966      313600
 1967              	.LASF23:
 1968 0102 696E6465 		.ascii	"index\000"
 1968      7800
 1969              	.LASF19:
 1970 0108 696E7431 		.ascii	"int16\000"
 1970      3600
 1971              	.LASF16:
 1972 010e 75696E74 		.ascii	"uint8\000"
 1972      3800
 1973              	.LASF34:
 1974 0114 67315F64 		.ascii	"g1_direction\000"
 1974      69726563 
 1974      74696F6E 
 1974      00
 1975              	.LASF73:
 1976 0121 63757272 		.ascii	"currentState\000"
 1976      656E7453 
 1976      74617465 
 1976      00
 1977              	.LASF48:
 1978 012e 63757272 		.ascii	"currentInstruction\000"
 1978      656E7449 
 1978      6E737472 
 1978      75637469 
 1978      6F6E00
 1979              	.LASF20:
 1980 0141 666C6F61 		.ascii	"float\000"
 1980      7400
 1981              	.LASF8:
 1982 0147 6C6F6E67 		.ascii	"long long int\000"
 1982      206C6F6E 
 1982      6720696E 
 1982      7400
 1983              	.LASF51:
 1984 0155 75736250 		.ascii	"usbPutString\000"
 1984      75745374 
 1984      72696E67 
 1984      00
 1985              	.LASF18:
 1986 0162 696E7438 		.ascii	"int8\000"
 1986      00
 1987              	.LASF75:
 1988 0167 6E6F5365 		.ascii	"noSensor\000"
 1988      6E736F72 
 1988      00
 1989              	.LASF60:
 1990 0170 666C6167 		.ascii	"flag_ts_update\000"
 1990      5F74735F 
 1990      75706461 
 1990      746500
 1991              	.LASF36:
 1992 017f 67325F79 		.ascii	"g2_ypos\000"
 1992      706F7300 
 1993              	.LASF30:
 1994 0187 67305F64 		.ascii	"g0_direction\000"
 1994      69726563 
ARM GAS  C:\Users\sela847\AppData\Local\Temp\ccMzjcTW.s 			page 44


 1994      74696F6E 
 1994      00
 1995              	.LASF43:
 1996 0194 66696E61 		.ascii	"finalTurn\000"
 1996      6C547572 
 1996      6E00
 1997              	.LASF6:
 1998 019e 6C6F6E67 		.ascii	"long int\000"
 1998      20696E74 
 1998      00
 1999              	.LASF4:
 2000 01a7 5F5F7569 		.ascii	"__uint8_t\000"
 2000      6E74385F 
 2000      7400
 2001              	.LASF69:
 2002 01b1 6C696E65 		.ascii	"line\000"
 2002      00
 2003              	.LASF62:
 2004 01b6 666C6167 		.ascii	"flag_ts_display\000"
 2004      5F74735F 
 2004      64697370 
 2004      6C617900 
 2005              	.LASF63:
 2006 01c6 666C6167 		.ascii	"flag_rx\000"
 2006      5F727800 
 2007              	.LASF74:
 2008 01ce 66697273 		.ascii	"firstEntry\000"
 2008      74456E74 
 2008      727900
 2009              	.LASF70:
 2010 01d9 656E7472 		.ascii	"entry\000"
 2010      7900
 2011              	.LASF11:
 2012 01df 6C6F6E67 		.ascii	"long double\000"
 2012      20646F75 
 2012      626C6500 
 2013              	.LASF49:
 2014 01eb 65646765 		.ascii	"edgeFlag\000"
 2014      466C6167 
 2014      00
 2015              	.LASF1:
 2016 01f4 756E7369 		.ascii	"unsigned char\000"
 2016      676E6564 
 2016      20636861 
 2016      7200
 2017              	.LASF29:
 2018 0202 67305F73 		.ascii	"g0_speed\000"
 2018      70656564 
 2018      00
 2019              	.LASF66:
 2020 020b 64617461 		.ascii	"dataready_flag\000"
 2020      72656164 
 2020      795F666C 
 2020      616700
 2021              	.LASF0:
 2022 021a 7369676E 		.ascii	"signed char\000"
 2022      65642063 
ARM GAS  C:\Users\sela847\AppData\Local\Temp\ccMzjcTW.s 			page 45


 2022      68617200 
 2023              	.LASF9:
 2024 0226 6C6F6E67 		.ascii	"long long unsigned int\000"
 2024      206C6F6E 
 2024      6720756E 
 2024      7369676E 
 2024      65642069 
 2025              	.LASF40:
 2026 023d 506F696E 		.ascii	"Point\000"
 2026      7400
 2027              	.LASF10:
 2028 0243 756E7369 		.ascii	"unsigned int\000"
 2028      676E6564 
 2028      20696E74 
 2028      00
 2029              	.LASF65:
 2030 0250 666C6167 		.ascii	"flag_KB_string\000"
 2030      5F4B425F 
 2030      73747269 
 2030      6E6700
 2031              	.LASF37:
 2032 025f 67325F73 		.ascii	"g2_speed\000"
 2032      70656564 
 2032      00
 2033              	.LASF31:
 2034 0268 67315F78 		.ascii	"g1_xpos\000"
 2034      706F7300 
 2035              	.LASF45:
 2036 0270 73746570 		.ascii	"steps\000"
 2036      7300
 2037              	.LASF3:
 2038 0276 73686F72 		.ascii	"short unsigned int\000"
 2038      7420756E 
 2038      7369676E 
 2038      65642069 
 2038      6E7400
 2039              	.LASF39:
 2040 0289 64617461 		.ascii	"data_main\000"
 2040      5F6D6169 
 2040      6E00
 2041              	.LASF13:
 2042 0293 63686172 		.ascii	"char\000"
 2042      00
 2043              	.LASF24:
 2044 0298 726F626F 		.ascii	"robot_xpos\000"
 2044      745F7870 
 2044      6F7300
 2045              	.LASF15:
 2046 02a3 696E7433 		.ascii	"int32_t\000"
 2046      325F7400 
 2047              	.LASF32:
 2048 02ab 67315F79 		.ascii	"g1_ypos\000"
 2048      706F7300 
 2049              	.LASF38:
 2050 02b3 67325F64 		.ascii	"g2_direction\000"
 2050      69726563 
 2050      74696F6E 
ARM GAS  C:\Users\sela847\AppData\Local\Temp\ccMzjcTW.s 			page 46


 2050      00
 2051              	.LASF33:
 2052 02c0 67315F73 		.ascii	"g1_speed\000"
 2052      70656564 
 2052      00
 2053              	.LASF68:
 2054 02c9 64697370 		.ascii	"displaystring\000"
 2054      6C617973 
 2054      7472696E 
 2054      6700
 2055              	.LASF27:
 2056 02d7 67305F78 		.ascii	"g0_xpos\000"
 2056      706F7300 
 2057              	.LASF78:
 2058 02df 483A5C44 		.ascii	"H:\\Documents\\12_Cypress_LineFollowingRobot\\Final"
 2058      6F63756D 
 2058      656E7473 
 2058      5C31325F 
 2058      43797072 
 2059 030f 5F696D70 		.ascii	"_implementation\\Team12_PsoC_FinalImplementation.cy"
 2059      6C656D65 
 2059      6E746174 
 2059      696F6E5C 
 2059      5465616D 
 2060 0341 64736E00 		.ascii	"dsn\000"
 2061              	.LASF77:
 2062 0345 6D61696E 		.ascii	"main.c\000"
 2062      2E6300
 2063              	.LASF7:
 2064 034c 6C6F6E67 		.ascii	"long unsigned int\000"
 2064      20756E73 
 2064      69676E65 
 2064      6420696E 
 2064      7400
 2065              	.LASF53:
 2066 035e 70617468 		.ascii	"pathArray\000"
 2066      41727261 
 2066      7900
 2067              	.LASF21:
 2068 0368 646F7562 		.ascii	"double\000"
 2068      6C6500
 2069              	.LASF79:
 2070 036f 53656E73 		.ascii	"Sensor_Timer_Isr\000"
 2070      6F725F54 
 2070      696D6572 
 2070      5F497372 
 2070      00
 2071              	.LASF57:
 2072 0380 74735F73 		.ascii	"ts_speed\000"
 2072      70656564 
 2072      00
 2073              	.LASF42:
 2074 0389 6E6F6465 		.ascii	"node\000"
 2074      00
 2075              	.LASF59:
 2076 038e 666C6167 		.ascii	"flag_ts_enc\000"
 2076      5F74735F 
ARM GAS  C:\Users\sela847\AppData\Local\Temp\ccMzjcTW.s 			page 47


 2076      656E6300 
 2077              	.LASF5:
 2078 039a 5F5F696E 		.ascii	"__int32_t\000"
 2078      7433325F 
 2078      7400
 2079              	.LASF14:
 2080 03a4 75696E74 		.ascii	"uint8_t\000"
 2080      385F7400 
 2081              	.LASF28:
 2082 03ac 67305F79 		.ascii	"g0_ypos\000"
 2082      706F7300 
 2083              	.LASF58:
 2084 03b4 74735F64 		.ascii	"ts_display\000"
 2084      6973706C 
 2084      617900
 2085              	.LASF56:
 2086 03bf 74735F75 		.ascii	"ts_update\000"
 2086      70646174 
 2086      6500
 2087              	.LASF67:
 2088 03c9 666C6167 		.ascii	"flag_rf_transmission_active\000"
 2088      5F72665F 
 2088      7472616E 
 2088      736D6973 
 2088      73696F6E 
 2089              	.LASF25:
 2090 03e5 726F626F 		.ascii	"robot_ypos\000"
 2090      745F7970 
 2090      6F7300
 2091              	.LASF46:
 2092 03f0 696E7465 		.ascii	"intersect\000"
 2092      72736563 
 2092      7400
 2093              	.LASF54:
 2094 03fa 49544D5F 		.ascii	"ITM_RxBuffer\000"
 2094      52784275 
 2094      66666572 
 2094      00
 2095              	.LASF47:
 2096 0407 696E7374 		.ascii	"instructions\000"
 2096      72756374 
 2096      696F6E73 
 2096      00
 2097              	.LASF44:
 2098 0414 666F6F64 		.ascii	"foodPoint\000"
 2098      506F696E 
 2098      7400
 2099              	.LASF22:
 2100 041e 72737369 		.ascii	"rssi\000"
 2100      00
 2101              	.LASF26:
 2102 0423 726F626F 		.ascii	"robot_orientation\000"
 2102      745F6F72 
 2102      69656E74 
 2102      6174696F 
 2102      6E00
 2103              		.ident	"GCC: (GNU Tools for ARM Embedded Processors) 5.4.1 20160609 (release) [ARM/embedded-5-bran
ARM GAS  C:\Users\sela847\AppData\Local\Temp\ccMzjcTW.s 			page 48


