ARM GAS  C:\Users\sela847\AppData\Local\Temp\ccMzjcTW.s 			page 1


   1              		.syntax unified
   2              		.cpu cortex-m3
   3              		.fpu softvfp
   4              		.eabi_attribute 20, 1
   5              		.eabi_attribute 21, 1
   6              		.eabi_attribute 23, 3
   7              		.eabi_attribute 24, 1
   8              		.eabi_attribute 25, 1
   9              		.eabi_attribute 26, 1
  10              		.eabi_attribute 30, 6
  11              		.eabi_attribute 34, 1
  12              		.eabi_attribute 18, 4
  13              		.thumb
  14              		.syntax unified
  15              		.file	"main.c"
  16              		.text
  17              	.Ltext0:
  18              		.cfi_sections	.debug_frame
  19              		.global	ts
  20              		.bss
  21              		.type	ts, %object
  22              		.size	ts, 1
  23              	ts:
  24 0000 00       		.space	1
  25              		.global	ts_enc
  26 0001 00       		.align	1
  27              		.type	ts_enc, %object
  28              		.size	ts_enc, 2
  29              	ts_enc:
  30 0002 0000     		.space	2
  31              		.global	ts_update
  32              		.align	1
  33              		.type	ts_update, %object
  34              		.size	ts_update, 2
  35              	ts_update:
  36 0004 0000     		.space	2
  37              		.global	ts_speed
  38              		.align	1
  39              		.type	ts_speed, %object
  40              		.size	ts_speed, 2
  41              	ts_speed:
  42 0006 0000     		.space	2
  43              		.global	ts_display
  44              		.align	1
  45              		.type	ts_display, %object
  46              		.size	ts_display, 2
  47              	ts_display:
  48 0008 0000     		.space	2
  49              		.global	flag_ts_enc
  50              		.type	flag_ts_enc, %object
  51              		.size	flag_ts_enc, 1
  52              	flag_ts_enc:
  53 000a 00       		.space	1
  54              		.global	flag_ts_update
  55              		.type	flag_ts_update, %object
  56              		.size	flag_ts_update, 1
  57              	flag_ts_update:
ARM GAS  C:\Users\sela847\AppData\Local\Temp\ccMzjcTW.s 			page 2


  58 000b 00       		.space	1
  59              		.global	flag_ts_speed
  60              		.type	flag_ts_speed, %object
  61              		.size	flag_ts_speed, 1
  62              	flag_ts_speed:
  63 000c 00       		.space	1
  64              		.global	flag_ts_display
  65              		.type	flag_ts_display, %object
  66              		.size	flag_ts_display, 1
  67              	flag_ts_display:
  68 000d 00       		.space	1
  69              		.global	flag_rx
  70              		.type	flag_rx, %object
  71              		.size	flag_rx, 1
  72              	flag_rx:
  73 000e 00       		.space	1
  74              		.global	flag_packet
  75              		.type	flag_packet, %object
  76              		.size	flag_packet, 1
  77              	flag_packet:
  78 000f 00       		.space	1
  79              		.global	flag_KB_string
  80              		.type	flag_KB_string, %object
  81              		.size	flag_KB_string, 1
  82              	flag_KB_string:
  83 0010 00       		.space	1
  84              		.global	dataready_flag
  85              		.type	dataready_flag, %object
  86              		.size	dataready_flag, 1
  87              	dataready_flag:
  88 0011 00       		.space	1
  89              		.global	flag_rf_transmission_active
  90              		.data
  91              		.type	flag_rf_transmission_active, %object
  92              		.size	flag_rf_transmission_active, 1
  93              	flag_rf_transmission_active:
  94 0000 0A       		.byte	10
  95              		.global	displaystring
  96 0001 000000   		.align	2
  97              		.type	displaystring, %object
  98              		.size	displaystring, 64
  99              	displaystring:
 100 0004 43533330 		.ascii	"CS301 2016\012\000"
 100      31203230 
 100      31360A00 
 101 0010 00000000 		.space	52
 101      00000000 
 101      00000000 
 101      00000000 
 101      00000000 
 102              		.comm	line,64,4
 103              		.comm	entry,64,4
 104              		.comm	usbBuffer,64,4
 105              		.comm	system_state,32,4
 106              		.align	2
 107              		.type	pathArray, %object
 108              		.size	pathArray, 896
ARM GAS  C:\Users\sela847\AppData\Local\Temp\ccMzjcTW.s 			page 3


 109              	pathArray:
 110 0044 01       		.byte	1
 111 0045 01       		.byte	1
 112 0046 01       		.byte	1
 113 0047 01       		.byte	1
 114 0048 00       		.byte	0
 115 0049 00       		.byte	0
 116 004a 00       		.byte	0
 117 004b 01       		.byte	1
 118 004c 01       		.byte	1
 119 004d 01       		.byte	1
 120 004e 01       		.byte	1
 121 004f 00       		.byte	0
 122 0050 00       		.byte	0
 123 0051 00       		.byte	0
 124 0052 01       		.byte	1
 125 0053 03       		.byte	3
 126 0054 03       		.byte	3
 127 0055 01       		.byte	1
 128 0056 00       		.byte	0
 129 0057 00       		.byte	0
 130 0058 00       		.byte	0
 131 0059 01       		.byte	1
 132 005a 03       		.byte	3
 133 005b 03       		.byte	3
 134 005c 01       		.byte	1
 135 005d 00       		.byte	0
 136 005e 00       		.byte	0
 137 005f 00       		.byte	0
 138 0060 01       		.byte	1
 139 0061 03       		.byte	3
 140 0062 04       		.byte	4
 141 0063 01       		.byte	1
 142 0064 00       		.byte	0
 143 0065 00       		.byte	0
 144 0066 00       		.byte	0
 145 0067 01       		.byte	1
 146 0068 03       		.byte	3
 147 0069 03       		.byte	3
 148 006a 01       		.byte	1
 149 006b 00       		.byte	0
 150 006c 00       		.byte	0
 151 006d 00       		.byte	0
 152 006e 01       		.byte	1
 153 006f 03       		.byte	3
 154 0070 03       		.byte	3
 155 0071 01       		.byte	1
 156 0072 00       		.byte	0
 157 0073 00       		.byte	0
 158 0074 00       		.byte	0
 159 0075 01       		.byte	1
 160 0076 03       		.byte	3
 161 0077 04       		.byte	4
 162 0078 01       		.byte	1
 163 0079 01       		.byte	1
 164 007a 00       		.byte	0
 165 007b 00       		.byte	0
ARM GAS  C:\Users\sela847\AppData\Local\Temp\ccMzjcTW.s 			page 4


 166 007c 01       		.byte	1
 167 007d 03       		.byte	3
 168 007e 03       		.byte	3
 169 007f 01       		.byte	1
 170 0080 00       		.byte	0
 171 0081 01       		.byte	1
 172 0082 00       		.byte	0
 173 0083 00000000 		.space	833
 173      00000000 
 173      00000000 
 173      00000000 
 173      00000000 
 174              		.global	currentState
 175              		.type	currentState, %object
 176              		.size	currentState, 1
 177              	currentState:
 178 03c4 04       		.byte	4
 179              		.global	firstEntry
 180              		.bss
 181              		.type	firstEntry, %object
 182              		.size	firstEntry, 1
 183              	firstEntry:
 184 0012 00       		.space	1
 185              		.global	noSensor
 186 0013 00       		.align	2
 187              		.type	noSensor, %object
 188              		.size	noSensor, 4
 189              	noSensor:
 190 0014 00000000 		.space	4
 191              		.section	.text.Sensor_Timer_Isr,"ax",%progbits
 192              		.align	2
 193              		.global	Sensor_Timer_Isr
 194              		.thumb
 195              		.thumb_func
 196              		.type	Sensor_Timer_Isr, %function
 197              	Sensor_Timer_Isr:
 198              	.LFB64:
 199              		.file 1 "main.c"
   1:main.c        **** /* ========================================
   2:main.c        ****  * Fully working code: 
   3:main.c        ****  * PWM      : 
   4:main.c        ****  * Encoder  : 
   5:main.c        ****  * ADC      :
   6:main.c        ****  * USB      : port displays speed and position.
   7:main.c        ****  * CMD: "PW xx"
   8:main.c        ****  * Copyright Univ of Auckland, 2016
   9:main.c        ****  * All Rights Reserved
  10:main.c        ****  * UNPUBLISHED, LICENSED SOFTWARE.
  11:main.c        ****  *
  12:main.c        ****  * CONFIDENTIAL AND PROPRIETARY INFORMATION
  13:main.c        ****  * WHICH IS THE PROPERTY OF Univ of Auckland.
  14:main.c        ****  *
  15:main.c        ****  * ========================================
  16:main.c        **** */
  17:main.c        **** #include <stdio.h>
  18:main.c        **** #include <string.h>
  19:main.c        **** #include <stdlib.h>
ARM GAS  C:\Users\sela847\AppData\Local\Temp\ccMzjcTW.s 			page 5


  20:main.c        **** #include <project.h>
  21:main.c        **** //* ========================================
  22:main.c        **** #include "defines.h"
  23:main.c        **** #include "vars.h"
  24:main.c        **** //* ========================================
  25:main.c        **** //* ==== Our functionsality Includes =======
  26:main.c        **** #include "movement.h"
  27:main.c        **** #include "states.h"
  28:main.c        **** 
  29:main.c        **** //*=========================================
  30:main.c        **** void usbPutString(char *s);
  31:main.c        **** void usbPutChar(char c);
  32:main.c        **** void handle_usb();
  33:main.c        **** //* ========================================
  34:main.c        **** # define MAX_PATH_SIZE 128
  35:main.c        **** typedef struct Point {
  36:main.c        ****     uint8_t x,y,direction,node,finalTurn,foodPoint,steps  ;
  37:main.c        **** } Point;
  38:main.c        **** 
  39:main.c        **** #define FORWARD    1
  40:main.c        **** #define BACKWARD  2
  41:main.c        **** #define LEFT  3
  42:main.c        **** #define RIGHT 4
  43:main.c        **** 
  44:main.c        **** static Point pathArray[MAX_PATH_SIZE] = {{1,1,FORWARD,1,0,0,0},{1,1,FORWARD,1,0,0,0},{1,3,LEFT,1,0,
  45:main.c        **** uint8_t currentState = DRIVING;
  46:main.c        **** uint8_t firstEntry = 0;
  47:main.c        **** volatile int noSensor = 0;
  48:main.c        **** 
  49:main.c        **** CY_ISR(Sensor_Timer_Isr){
 200              		.loc 1 49 0
 201              		.cfi_startproc
 202              		@ args = 0, pretend = 0, frame = 0
 203              		@ frame_needed = 1, uses_anonymous_args = 0
 204 0000 80B5     		push	{r7, lr}
 205              		.cfi_def_cfa_offset 8
 206              		.cfi_offset 7, -8
 207              		.cfi_offset 14, -4
 208 0002 00AF     		add	r7, sp, #0
 209              		.cfi_def_cfa_register 7
  50:main.c        ****     noSensor = 0;
 210              		.loc 1 50 0
 211 0004 074B     		ldr	r3, .L2
 212 0006 0022     		movs	r2, #0
 213 0008 1A60     		str	r2, [r3]
  51:main.c        ****     Timer_Sensor_Stop();
 214              		.loc 1 51 0
 215 000a FFF7FEFF 		bl	Timer_Sensor_Stop
  52:main.c        ****     LED_GREEN_Write(0);
 216              		.loc 1 52 0
 217 000e 0020     		movs	r0, #0
 218 0010 FFF7FEFF 		bl	LED_GREEN_Write
  53:main.c        ****     LED_BLUE_Write(0);
 219              		.loc 1 53 0
 220 0014 0020     		movs	r0, #0
 221 0016 FFF7FEFF 		bl	LED_BLUE_Write
  54:main.c        ****     LED_Write(1);
ARM GAS  C:\Users\sela847\AppData\Local\Temp\ccMzjcTW.s 			page 6


 222              		.loc 1 54 0
 223 001a 0120     		movs	r0, #1
 224 001c FFF7FEFF 		bl	LED_Write
  55:main.c        **** }
 225              		.loc 1 55 0
 226 0020 00BF     		nop
 227 0022 80BD     		pop	{r7, pc}
 228              	.L3:
 229              		.align	2
 230              	.L2:
 231 0024 00000000 		.word	noSensor
 232              		.cfi_endproc
 233              	.LFE64:
 234              		.size	Sensor_Timer_Isr, .-Sensor_Timer_Isr
 235              		.section	.text.main,"ax",%progbits
 236              		.align	2
 237              		.global	main
 238              		.thumb
 239              		.thumb_func
 240              		.type	main, %function
 241              	main:
 242              	.LFB65:
  56:main.c        **** 
  57:main.c        **** int main(){
 243              		.loc 1 57 0
 244              		.cfi_startproc
 245              		@ args = 0, pretend = 0, frame = 16
 246              		@ frame_needed = 1, uses_anonymous_args = 0
 247 0000 80B5     		push	{r7, lr}
 248              		.cfi_def_cfa_offset 8
 249              		.cfi_offset 7, -8
 250              		.cfi_offset 14, -4
 251 0002 84B0     		sub	sp, sp, #16
 252              		.cfi_def_cfa_offset 24
 253 0004 00AF     		add	r7, sp, #0
 254              		.cfi_def_cfa_register 7
  58:main.c        ****     
  59:main.c        **** // --------------------------------    
  60:main.c        **** // ----- INITIALIZATIONS ----------
  61:main.c        ****         CYGlobalIntEnable;   
 255              		.loc 1 61 0
 256              		.syntax unified
 257              	@ 61 "main.c" 1
 258 0006 62B6     		CPSIE   i
 259              	@ 0 "" 2
  62:main.c        ****     
  63:main.c        ****     M2_INV_Write(1);
 260              		.loc 1 63 0
 261              		.thumb
 262              		.syntax unified
 263 0008 0120     		movs	r0, #1
 264 000a FFF7FEFF 		bl	M2_INV_Write
  64:main.c        ****     //PWM_1_WritePeriod(255);
  65:main.c        ****     
  66:main.c        ****     //PWM1
  67:main.c        ****     PWM_1_Start();
 265              		.loc 1 67 0
ARM GAS  C:\Users\sela847\AppData\Local\Temp\ccMzjcTW.s 			page 7


 266 000e FFF7FEFF 		bl	PWM_1_Start
  68:main.c        ****     //PWM2
  69:main.c        ****     PWM_2_Start();   
 267              		.loc 1 69 0
 268 0012 FFF7FEFF 		bl	PWM_2_Start
  70:main.c        ****     
  71:main.c        ****     controlWheels(STOP, STOP);
 269              		.loc 1 71 0
 270 0016 3221     		movs	r1, #50
 271 0018 3220     		movs	r0, #50
 272 001a FFF7FEFF 		bl	controlWheels
  72:main.c        ****     currentState = DRIVING;
 273              		.loc 1 72 0
 274 001e B84B     		ldr	r3, .L50
 275 0020 0422     		movs	r2, #4
 276 0022 1A70     		strb	r2, [r3]
  73:main.c        ****     
  74:main.c        ****     uint8_t intersect = 0;
 277              		.loc 1 74 0
 278 0024 0023     		movs	r3, #0
 279 0026 FB73     		strb	r3, [r7, #15]
  75:main.c        ****     //#ifdef USE_USB
  76:main.c        ****     //    USBUART_Start(0, USBUART_5V_OPERATION);
  77:main.c        ****     //#endif
  78:main.c        ****     // instuction index
  79:main.c        ****     uint8_t instructions = 0;
 280              		.loc 1 79 0
 281 0028 0023     		movs	r3, #0
 282 002a BB73     		strb	r3, [r7, #14]
  80:main.c        ****     // current instuction
  81:main.c        ****     Point currentInstruction = pathArray[instructions++];
 283              		.loc 1 81 0
 284 002c BB7B     		ldrb	r3, [r7, #14]	@ zero_extendqisi2
 285 002e 5A1C     		adds	r2, r3, #1
 286 0030 BA73     		strb	r2, [r7, #14]
 287 0032 1946     		mov	r1, r3
 288 0034 B34A     		ldr	r2, .L50+4
 289 0036 0B46     		mov	r3, r1
 290 0038 DB00     		lsls	r3, r3, #3
 291 003a 5B1A     		subs	r3, r3, r1
 292 003c 1A44     		add	r2, r2, r3
 293 003e 3B46     		mov	r3, r7
 294 0040 1068     		ldr	r0, [r2]	@ unaligned
 295 0042 1860     		str	r0, [r3]	@ unaligned
 296 0044 9188     		ldrh	r1, [r2, #4]	@ unaligned
 297 0046 9279     		ldrb	r2, [r2, #6]
 298 0048 9980     		strh	r1, [r3, #4]	@ unaligned
 299 004a 9A71     		strb	r2, [r3, #6]
  82:main.c        ****     
  83:main.c        ****     Sensor_isr_StartEx(Sensor_Timer_Isr);
 300              		.loc 1 83 0
 301 004c AE48     		ldr	r0, .L50+8
 302 004e FFF7FEFF 		bl	Sensor_isr_StartEx
  84:main.c        ****     
  85:main.c        ****     
  86:main.c        ****     
  87:main.c        ****     int edgeFlag = 0;
ARM GAS  C:\Users\sela847\AppData\Local\Temp\ccMzjcTW.s 			page 8


 303              		.loc 1 87 0
 304 0052 0023     		movs	r3, #0
 305 0054 BB60     		str	r3, [r7, #8]
  88:main.c        ****     
  89:main.c        **** 
  90:main.c        ****     CyDelay(1000);
 306              		.loc 1 90 0
 307 0056 4FF47A70 		mov	r0, #1000
 308 005a FFF7FEFF 		bl	CyDelay
 309              	.L43:
  91:main.c        ****     for(;;){
  92:main.c        ****         
  93:main.c        ****              
  94:main.c        ****         switch(currentState){
 310              		.loc 1 94 0
 311 005e A84B     		ldr	r3, .L50
 312 0060 1B78     		ldrb	r3, [r3]	@ zero_extendqisi2
 313 0062 033B     		subs	r3, r3, #3
 314 0064 072B     		cmp	r3, #7
 315 0066 FAD8     		bhi	.L43
 316 0068 01A2     		adr	r2, .L7
 317 006a 52F823F0 		ldr	pc, [r2, r3, lsl #2]
 318 006e 00BF     		.p2align 2
 319              	.L7:
 320 0070 49010000 		.word	.L6+1
 321 0074 91000000 		.word	.L8+1
 322 0078 AF030000 		.word	.L9+1
 323 007c 13020000 		.word	.L10+1
 324 0080 5F000000 		.word	.L43+1
 325 0084 5F000000 		.word	.L43+1
 326 0088 5F000000 		.word	.L43+1
 327 008c 43040000 		.word	.L11+1
 328              		.p2align 1
 329              	.L8:
  95:main.c        ****             case (DRIVING):
  96:main.c        ****                 LED_GREEN_Write(1);
 330              		.loc 1 96 0
 331 0090 0120     		movs	r0, #1
 332 0092 FFF7FEFF 		bl	LED_GREEN_Write
  97:main.c        ****                 LED_BLUE_Write(0);
 333              		.loc 1 97 0
 334 0096 0020     		movs	r0, #0
 335 0098 FFF7FEFF 		bl	LED_BLUE_Write
  98:main.c        ****                 LED_Write(0);
 336              		.loc 1 98 0
 337 009c 0020     		movs	r0, #0
 338 009e FFF7FEFF 		bl	LED_Write
  99:main.c        ****                 
 100:main.c        ****                 controlWheels(MEDIUM_FORWARD_L, MEDIUM_FORWARD);
 339              		.loc 1 100 0
 340 00a2 4221     		movs	r1, #66
 341 00a4 4120     		movs	r0, #65
 342 00a6 FFF7FEFF 		bl	controlWheels
 101:main.c        ****                 //controlWheels(TEST_FORWARD_L,TEST_FORWARD);
 102:main.c        ****                 // if all the frot sensors are off the line
 103:main.c        ****                 // if either of left or right middle sensors detects the line
 104:main.c        ****                 /*
ARM GAS  C:\Users\sela847\AppData\Local\Temp\ccMzjcTW.s 			page 9


 105:main.c        ****                 if ((Q1_Read() && Q3_Read()) && (!Q5_Read() || !Q4_Read()) && !noSensor){
 106:main.c        ****                     firstEntry = 1;
 107:main.c        ****                     currentState = PREPARETURN;
 108:main.c        ****                     currentInstruction = pathArray[instructions++];
 109:main.c        ****                 }*/
 110:main.c        ****                 if ((!Q5_Read() || !Q4_Read()) && !noSensor) {
 343              		.loc 1 110 0
 344 00aa FFF7FEFF 		bl	Q5_Read
 345 00ae 0346     		mov	r3, r0
 346 00b0 002B     		cmp	r3, #0
 347 00b2 04D0     		beq	.L12
 348              		.loc 1 110 0 is_stmt 0 discriminator 2
 349 00b4 FFF7FEFF 		bl	Q4_Read
 350 00b8 0346     		mov	r3, r0
 351 00ba 002B     		cmp	r3, #0
 352 00bc 1AD1     		bne	.L13
 353              	.L12:
 354              		.loc 1 110 0 discriminator 3
 355 00be 934B     		ldr	r3, .L50+12
 356 00c0 1B68     		ldr	r3, [r3]
 357 00c2 002B     		cmp	r3, #0
 358 00c4 16D1     		bne	.L13
 111:main.c        ****                     currentState = PREPARETURN;
 359              		.loc 1 111 0 is_stmt 1
 360 00c6 8E4B     		ldr	r3, .L50
 361 00c8 0622     		movs	r2, #6
 362 00ca 1A70     		strb	r2, [r3]
 112:main.c        ****                     firstEntry = 1;
 363              		.loc 1 112 0
 364 00cc 904B     		ldr	r3, .L50+16
 365 00ce 0122     		movs	r2, #1
 366 00d0 1A70     		strb	r2, [r3]
 113:main.c        ****                     currentInstruction = pathArray[instructions++];
 367              		.loc 1 113 0
 368 00d2 BB7B     		ldrb	r3, [r7, #14]	@ zero_extendqisi2
 369 00d4 5A1C     		adds	r2, r3, #1
 370 00d6 BA73     		strb	r2, [r7, #14]
 371 00d8 1946     		mov	r1, r3
 372 00da 8A4A     		ldr	r2, .L50+4
 373 00dc 0B46     		mov	r3, r1
 374 00de DB00     		lsls	r3, r3, #3
 375 00e0 5B1A     		subs	r3, r3, r1
 376 00e2 1A44     		add	r2, r2, r3
 377 00e4 3B46     		mov	r3, r7
 378 00e6 1068     		ldr	r0, [r2]	@ unaligned
 379 00e8 1860     		str	r0, [r3]	@ unaligned
 380 00ea 9188     		ldrh	r1, [r2, #4]	@ unaligned
 381 00ec 9279     		ldrb	r2, [r2, #6]
 382 00ee 9980     		strh	r1, [r3, #4]	@ unaligned
 383 00f0 9A71     		strb	r2, [r3, #6]
 114:main.c        ****                 }
 115:main.c        ****                 // if all the front sensors are not off the line
 116:main.c        ****                 // if either side of the sensor is off the line
 117:main.c        ****                 else if (!(Q1_Read() && Q2_Read() && Q3_Read()) && ((Q1_Read() && Q2_Read()) || (Q2
 118:main.c        ****                     currentState = CALIBRATING;
 119:main.c        ****                 }
 120:main.c        **** 
ARM GAS  C:\Users\sela847\AppData\Local\Temp\ccMzjcTW.s 			page 10


 121:main.c        ****                 break;
 384              		.loc 1 121 0
 385 00f2 ABE1     		b	.L44
 386              	.L13:
 117:main.c        ****                     currentState = CALIBRATING;
 387              		.loc 1 117 0
 388 00f4 FFF7FEFF 		bl	Q1_Read
 389 00f8 0346     		mov	r3, r0
 390 00fa 002B     		cmp	r3, #0
 391 00fc 0AD0     		beq	.L15
 117:main.c        ****                     currentState = CALIBRATING;
 392              		.loc 1 117 0 is_stmt 0 discriminator 2
 393 00fe FFF7FEFF 		bl	Q2_Read
 394 0102 0346     		mov	r3, r0
 395 0104 002B     		cmp	r3, #0
 396 0106 05D0     		beq	.L15
 117:main.c        ****                     currentState = CALIBRATING;
 397              		.loc 1 117 0 discriminator 4
 398 0108 FFF7FEFF 		bl	Q3_Read
 399 010c 0346     		mov	r3, r0
 400 010e 002B     		cmp	r3, #0
 401 0110 40F09C81 		bne	.L44
 402              	.L15:
 117:main.c        ****                     currentState = CALIBRATING;
 403              		.loc 1 117 0 discriminator 5
 404 0114 FFF7FEFF 		bl	Q1_Read
 405 0118 0346     		mov	r3, r0
 406 011a 002B     		cmp	r3, #0
 407 011c 04D0     		beq	.L16
 117:main.c        ****                     currentState = CALIBRATING;
 408              		.loc 1 117 0 discriminator 6
 409 011e FFF7FEFF 		bl	Q2_Read
 410 0122 0346     		mov	r3, r0
 411 0124 002B     		cmp	r3, #0
 412 0126 0BD1     		bne	.L17
 413              	.L16:
 117:main.c        ****                     currentState = CALIBRATING;
 414              		.loc 1 117 0 discriminator 8
 415 0128 FFF7FEFF 		bl	Q2_Read
 416 012c 0346     		mov	r3, r0
 417 012e 002B     		cmp	r3, #0
 418 0130 00F08C81 		beq	.L44
 117:main.c        ****                     currentState = CALIBRATING;
 419              		.loc 1 117 0 discriminator 9
 420 0134 FFF7FEFF 		bl	Q3_Read
 421 0138 0346     		mov	r3, r0
 422 013a 002B     		cmp	r3, #0
 423 013c 00F08681 		beq	.L44
 424              	.L17:
 118:main.c        ****                 }
 425              		.loc 1 118 0 is_stmt 1
 426 0140 6F4B     		ldr	r3, .L50
 427 0142 0322     		movs	r2, #3
 428 0144 1A70     		strb	r2, [r3]
 429              		.loc 1 121 0
 430 0146 81E1     		b	.L44
 431              	.L6:
ARM GAS  C:\Users\sela847\AppData\Local\Temp\ccMzjcTW.s 			page 11


 122:main.c        ****                 
 123:main.c        ****             case (CALIBRATING):
 124:main.c        ****                 LED_GREEN_Write(0);
 432              		.loc 1 124 0
 433 0148 0020     		movs	r0, #0
 434 014a FFF7FEFF 		bl	LED_GREEN_Write
 125:main.c        ****                 LED_BLUE_Write(1);
 435              		.loc 1 125 0
 436 014e 0120     		movs	r0, #1
 437 0150 FFF7FEFF 		bl	LED_BLUE_Write
 126:main.c        ****                 LED_Write(0);
 438              		.loc 1 126 0
 439 0154 0020     		movs	r0, #0
 440 0156 FFF7FEFF 		bl	LED_Write
 127:main.c        ****                 controlWheels(64, MEDIUM_FORWARD);
 441              		.loc 1 127 0
 442 015a 4221     		movs	r1, #66
 443 015c 4020     		movs	r0, #64
 444 015e FFF7FEFF 		bl	controlWheels
 128:main.c        ****                                
 129:main.c        ****                     // if the front wheels are all of the line, we must drive before turning
 130:main.c        ****                     if (Q1_Read() && Q2_Read() && Q3_Read()){
 445              		.loc 1 130 0
 446 0162 FFF7FEFF 		bl	Q1_Read
 447 0166 0346     		mov	r3, r0
 448 0168 002B     		cmp	r3, #0
 449 016a 0CD0     		beq	.L18
 450              		.loc 1 130 0 is_stmt 0 discriminator 1
 451 016c FFF7FEFF 		bl	Q2_Read
 452 0170 0346     		mov	r3, r0
 453 0172 002B     		cmp	r3, #0
 454 0174 07D0     		beq	.L18
 455              		.loc 1 130 0 discriminator 2
 456 0176 FFF7FEFF 		bl	Q3_Read
 457 017a 0346     		mov	r3, r0
 458 017c 002B     		cmp	r3, #0
 459 017e 02D0     		beq	.L18
 131:main.c        ****                         currentState = DRIVING;
 460              		.loc 1 131 0 is_stmt 1
 461 0180 5F4B     		ldr	r3, .L50
 462 0182 0422     		movs	r2, #4
 463 0184 1A70     		strb	r2, [r3]
 464              	.L18:
 132:main.c        ****                     }
 133:main.c        ****                     // right correction
 134:main.c        ****                     if (!Q3_Read()){
 465              		.loc 1 134 0
 466 0186 FFF7FEFF 		bl	Q3_Read
 467 018a 0346     		mov	r3, r0
 468 018c 002B     		cmp	r3, #0
 469 018e 03D1     		bne	.L19
 135:main.c        ****                         controlWheels(MEDIUM_FORWARD, SLOW_FORWARD);
 470              		.loc 1 135 0
 471 0190 3721     		movs	r1, #55
 472 0192 4220     		movs	r0, #66
 473 0194 FFF7FEFF 		bl	controlWheels
 474              	.L19:
ARM GAS  C:\Users\sela847\AppData\Local\Temp\ccMzjcTW.s 			page 12


 136:main.c        ****                     }
 137:main.c        ****                     // left correction
 138:main.c        ****                     if (!Q1_Read()){
 475              		.loc 1 138 0
 476 0198 FFF7FEFF 		bl	Q1_Read
 477 019c 0346     		mov	r3, r0
 478 019e 002B     		cmp	r3, #0
 479 01a0 03D1     		bne	.L20
 139:main.c        ****                         controlWheels(SLOW_FORWARD, MEDIUM_FORWARD);  
 480              		.loc 1 139 0
 481 01a2 4221     		movs	r1, #66
 482 01a4 3720     		movs	r0, #55
 483 01a6 FFF7FEFF 		bl	controlWheels
 484              	.L20:
 140:main.c        ****                     }
 141:main.c        ****                     if (!Q1_Read() && !Q3_Read()){
 485              		.loc 1 141 0
 486 01aa FFF7FEFF 		bl	Q1_Read
 487 01ae 0346     		mov	r3, r0
 488 01b0 002B     		cmp	r3, #0
 489 01b2 07D1     		bne	.L21
 490              		.loc 1 141 0 is_stmt 0 discriminator 1
 491 01b4 FFF7FEFF 		bl	Q3_Read
 492 01b8 0346     		mov	r3, r0
 493 01ba 002B     		cmp	r3, #0
 494 01bc 02D1     		bne	.L21
 142:main.c        ****                         currentState = DRIVING;
 495              		.loc 1 142 0 is_stmt 1
 496 01be 504B     		ldr	r3, .L50
 497 01c0 0422     		movs	r2, #4
 498 01c2 1A70     		strb	r2, [r3]
 499              	.L21:
 143:main.c        ****                         
 144:main.c        ****                     }
 145:main.c        ****                    
 146:main.c        ****                     if ((!Q5_Read() || !Q4_Read()) && !noSensor) {
 500              		.loc 1 146 0
 501 01c4 FFF7FEFF 		bl	Q5_Read
 502 01c8 0346     		mov	r3, r0
 503 01ca 002B     		cmp	r3, #0
 504 01cc 05D0     		beq	.L22
 505              		.loc 1 146 0 is_stmt 0 discriminator 2
 506 01ce FFF7FEFF 		bl	Q4_Read
 507 01d2 0346     		mov	r3, r0
 508 01d4 002B     		cmp	r3, #0
 509 01d6 40F03B81 		bne	.L45
 510              	.L22:
 511              		.loc 1 146 0 discriminator 3
 512 01da 4C4B     		ldr	r3, .L50+12
 513 01dc 1B68     		ldr	r3, [r3]
 514 01de 002B     		cmp	r3, #0
 515 01e0 40F03681 		bne	.L45
 147:main.c        ****                         currentState = PREPARETURN;
 516              		.loc 1 147 0 is_stmt 1
 517 01e4 464B     		ldr	r3, .L50
 518 01e6 0622     		movs	r2, #6
 519 01e8 1A70     		strb	r2, [r3]
ARM GAS  C:\Users\sela847\AppData\Local\Temp\ccMzjcTW.s 			page 13


 148:main.c        ****                         firstEntry = 1;
 520              		.loc 1 148 0
 521 01ea 494B     		ldr	r3, .L50+16
 522 01ec 0122     		movs	r2, #1
 523 01ee 1A70     		strb	r2, [r3]
 149:main.c        ****                         currentInstruction = pathArray[instructions++];
 524              		.loc 1 149 0
 525 01f0 BB7B     		ldrb	r3, [r7, #14]	@ zero_extendqisi2
 526 01f2 5A1C     		adds	r2, r3, #1
 527 01f4 BA73     		strb	r2, [r7, #14]
 528 01f6 1946     		mov	r1, r3
 529 01f8 424A     		ldr	r2, .L50+4
 530 01fa 0B46     		mov	r3, r1
 531 01fc DB00     		lsls	r3, r3, #3
 532 01fe 5B1A     		subs	r3, r3, r1
 533 0200 1A44     		add	r2, r2, r3
 534 0202 3B46     		mov	r3, r7
 535 0204 1068     		ldr	r0, [r2]	@ unaligned
 536 0206 1860     		str	r0, [r3]	@ unaligned
 537 0208 9188     		ldrh	r1, [r2, #4]	@ unaligned
 538 020a 9279     		ldrb	r2, [r2, #6]
 539 020c 9980     		strh	r1, [r3, #4]	@ unaligned
 540 020e 9A71     		strb	r2, [r3, #6]
 150:main.c        ****                     }
 151:main.c        ****                  
 152:main.c        ****                 break; 
 541              		.loc 1 152 0
 542 0210 1EE1     		b	.L45
 543              	.L10:
 153:main.c        ****                     
 154:main.c        ****             case(PREPARETURN):
 155:main.c        ****                 LED_GREEN_Write(0);
 544              		.loc 1 155 0
 545 0212 0020     		movs	r0, #0
 546 0214 FFF7FEFF 		bl	LED_GREEN_Write
 156:main.c        ****                 LED_BLUE_Write(0);
 547              		.loc 1 156 0
 548 0218 0020     		movs	r0, #0
 549 021a FFF7FEFF 		bl	LED_BLUE_Write
 157:main.c        ****                 LED_Write(1);
 550              		.loc 1 157 0
 551 021e 0120     		movs	r0, #1
 552 0220 FFF7FEFF 		bl	LED_Write
 158:main.c        ****                 if(!currentInstruction.foodPoint) {
 553              		.loc 1 158 0
 554 0224 7B79     		ldrb	r3, [r7, #5]	@ zero_extendqisi2
 555 0226 002B     		cmp	r3, #0
 556 0228 40F0B780 		bne	.L24
 159:main.c        ****                     switch(currentInstruction.direction) {
 557              		.loc 1 159 0
 558 022c BB78     		ldrb	r3, [r7, #2]	@ zero_extendqisi2
 559 022e 032B     		cmp	r3, #3
 560 0230 04D0     		beq	.L26
 561 0232 042B     		cmp	r3, #4
 562 0234 6ED0     		beq	.L27
 563 0236 012B     		cmp	r3, #1
 564 0238 45D0     		beq	.L28
ARM GAS  C:\Users\sela847\AppData\Local\Temp\ccMzjcTW.s 			page 14


 160:main.c        ****                     case(LEFT):
 161:main.c        ****                         controlWheels(MEDIUM_REVERSE, MEDIUM_FORWARD);
 162:main.c        ****                          //Working Mostly
 163:main.c        ****                         if ((firstEntry == 1 && Q2_Read() && Q1_Read() && Q3_Read())) { // i.e noth
 164:main.c        ****                             intersect = 1;
 165:main.c        ****                             controlWheels(STOP,STOP);
 166:main.c        ****                             currentState = TURNING;
 167:main.c        ****                         }
 168:main.c        ****                         firstEntry = 0;
 169:main.c        ****                         
 170:main.c        ****                         
 171:main.c        ****                         
 172:main.c        ****                         if (!Q3_Read()) {
 173:main.c        ****                             edgeFlag = 1;   
 174:main.c        ****                             
 175:main.c        ****                         }
 176:main.c        ****                         if(Q2_Read() && Q3_Read() && edgeFlag == 1){
 177:main.c        ****                             intersect = 1;
 178:main.c        ****                             edgeFlag = 0;
 179:main.c        ****                             controlWheels(STOP,STOP);
 180:main.c        ****                             currentState = TURNING;
 181:main.c        ****                         }
 182:main.c        ****                       
 183:main.c        ****                         
 184:main.c        ****                         break;                 
 185:main.c        ****                     case(FORWARD):
 186:main.c        ****                         controlWheels(MEDIUM_FORWARD, MEDIUM_FORWARD);
 187:main.c        ****                         CyDelay(400);    // REVIEW MAYBE //
 188:main.c        ****                         if (Q5_Read() && Q4_Read()){
 189:main.c        ****                             controlWheels(MEDIUM_FORWARD, MEDIUM_FORWARD);
 190:main.c        ****                             currentState = DRIVING;
 191:main.c        ****                         }
 192:main.c        ****                         firstEntry = 0;
 193:main.c        ****                     
 194:main.c        ****                         break;
 195:main.c        ****                     case(RIGHT):
 196:main.c        ****                         controlWheels(MEDIUM_FORWARD, MEDIUM_REVERSE);
 197:main.c        ****                          //Working Mostly
 198:main.c        ****                         if ((firstEntry == 1 && Q2_Read() && Q1_Read() && Q3_Read())) { // i.e noth
 199:main.c        ****                             intersect = 1;
 200:main.c        ****                             controlWheels(STOP,STOP);
 201:main.c        ****                             currentState = TURNING;
 202:main.c        ****                         }
 203:main.c        ****                         firstEntry = 0;
 204:main.c        ****                         
 205:main.c        ****                         
 206:main.c        ****                         
 207:main.c        ****                         if (!Q1_Read()) {
 208:main.c        ****                             edgeFlag = 1;   
 209:main.c        ****                             
 210:main.c        ****                         }
 211:main.c        ****                         if(Q2_Read() && Q1_Read() && edgeFlag == 1){
 212:main.c        ****                             intersect = 1;
 213:main.c        ****                             edgeFlag = 0;
 214:main.c        ****                             controlWheels(STOP,STOP);
 215:main.c        ****                             currentState = TURNING;
 216:main.c        ****                         }
ARM GAS  C:\Users\sela847\AppData\Local\Temp\ccMzjcTW.s 			page 15


 217:main.c        ****                     }
 218:main.c        ****                 } else {
 219:main.c        ****                     controlWheels(STOP,STOP);
 220:main.c        ****                     currentState = STOPCAR;
 221:main.c        ****                 }
 222:main.c        ****                 
 223:main.c        ****                     break;
 565              		.loc 1 223 0
 566 023a 0BE1     		b	.L47
 567              	.L26:
 161:main.c        ****                          //Working Mostly
 568              		.loc 1 161 0
 569 023c 4221     		movs	r1, #66
 570 023e 2320     		movs	r0, #35
 571 0240 FFF7FEFF 		bl	controlWheels
 163:main.c        ****                             intersect = 1;
 572              		.loc 1 163 0
 573 0244 324B     		ldr	r3, .L50+16
 574 0246 1B78     		ldrb	r3, [r3]	@ zero_extendqisi2
 575 0248 012B     		cmp	r3, #1
 576 024a 17D1     		bne	.L29
 163:main.c        ****                             intersect = 1;
 577              		.loc 1 163 0 is_stmt 0 discriminator 1
 578 024c FFF7FEFF 		bl	Q2_Read
 579 0250 0346     		mov	r3, r0
 580 0252 002B     		cmp	r3, #0
 581 0254 12D0     		beq	.L29
 163:main.c        ****                             intersect = 1;
 582              		.loc 1 163 0 discriminator 2
 583 0256 FFF7FEFF 		bl	Q1_Read
 584 025a 0346     		mov	r3, r0
 585 025c 002B     		cmp	r3, #0
 586 025e 0DD0     		beq	.L29
 163:main.c        ****                             intersect = 1;
 587              		.loc 1 163 0 discriminator 3
 588 0260 FFF7FEFF 		bl	Q3_Read
 589 0264 0346     		mov	r3, r0
 590 0266 002B     		cmp	r3, #0
 591 0268 08D0     		beq	.L29
 164:main.c        ****                             controlWheels(STOP,STOP);
 592              		.loc 1 164 0 is_stmt 1
 593 026a 0123     		movs	r3, #1
 594 026c FB73     		strb	r3, [r7, #15]
 165:main.c        ****                             currentState = TURNING;
 595              		.loc 1 165 0
 596 026e 3221     		movs	r1, #50
 597 0270 3220     		movs	r0, #50
 598 0272 FFF7FEFF 		bl	controlWheels
 166:main.c        ****                         }
 599              		.loc 1 166 0
 600 0276 224B     		ldr	r3, .L50
 601 0278 0522     		movs	r2, #5
 602 027a 1A70     		strb	r2, [r3]
 603              	.L29:
 168:main.c        ****                         
 604              		.loc 1 168 0
 605 027c 244B     		ldr	r3, .L50+16
ARM GAS  C:\Users\sela847\AppData\Local\Temp\ccMzjcTW.s 			page 16


 606 027e 0022     		movs	r2, #0
 607 0280 1A70     		strb	r2, [r3]
 172:main.c        ****                             edgeFlag = 1;   
 608              		.loc 1 172 0
 609 0282 FFF7FEFF 		bl	Q3_Read
 610 0286 0346     		mov	r3, r0
 611 0288 002B     		cmp	r3, #0
 612 028a 01D1     		bne	.L30
 173:main.c        ****                             
 613              		.loc 1 173 0
 614 028c 0123     		movs	r3, #1
 615 028e BB60     		str	r3, [r7, #8]
 616              	.L30:
 176:main.c        ****                             intersect = 1;
 617              		.loc 1 176 0
 618 0290 FFF7FEFF 		bl	Q2_Read
 619 0294 0346     		mov	r3, r0
 620 0296 002B     		cmp	r3, #0
 621 0298 00F08780 		beq	.L46
 176:main.c        ****                             intersect = 1;
 622              		.loc 1 176 0 is_stmt 0 discriminator 1
 623 029c FFF7FEFF 		bl	Q3_Read
 624 02a0 0346     		mov	r3, r0
 625 02a2 002B     		cmp	r3, #0
 626 02a4 00F08180 		beq	.L46
 176:main.c        ****                             intersect = 1;
 627              		.loc 1 176 0 discriminator 2
 628 02a8 BB68     		ldr	r3, [r7, #8]
 629 02aa 012B     		cmp	r3, #1
 630 02ac 7DD1     		bne	.L46
 177:main.c        ****                             edgeFlag = 0;
 631              		.loc 1 177 0 is_stmt 1
 632 02ae 0123     		movs	r3, #1
 633 02b0 FB73     		strb	r3, [r7, #15]
 178:main.c        ****                             controlWheels(STOP,STOP);
 634              		.loc 1 178 0
 635 02b2 0023     		movs	r3, #0
 636 02b4 BB60     		str	r3, [r7, #8]
 179:main.c        ****                             currentState = TURNING;
 637              		.loc 1 179 0
 638 02b6 3221     		movs	r1, #50
 639 02b8 3220     		movs	r0, #50
 640 02ba FFF7FEFF 		bl	controlWheels
 180:main.c        ****                         }
 641              		.loc 1 180 0
 642 02be 104B     		ldr	r3, .L50
 643 02c0 0522     		movs	r2, #5
 644 02c2 1A70     		strb	r2, [r3]
 184:main.c        ****                     case(FORWARD):
 645              		.loc 1 184 0
 646 02c4 71E0     		b	.L46
 647              	.L28:
 186:main.c        ****                         CyDelay(400);    // REVIEW MAYBE //
 648              		.loc 1 186 0
 649 02c6 4221     		movs	r1, #66
 650 02c8 4220     		movs	r0, #66
 651 02ca FFF7FEFF 		bl	controlWheels
ARM GAS  C:\Users\sela847\AppData\Local\Temp\ccMzjcTW.s 			page 17


 187:main.c        ****                         if (Q5_Read() && Q4_Read()){
 652              		.loc 1 187 0
 653 02ce 4FF4C870 		mov	r0, #400
 654 02d2 FFF7FEFF 		bl	CyDelay
 188:main.c        ****                             controlWheels(MEDIUM_FORWARD, MEDIUM_FORWARD);
 655              		.loc 1 188 0
 656 02d6 FFF7FEFF 		bl	Q5_Read
 657 02da 0346     		mov	r3, r0
 658 02dc 002B     		cmp	r3, #0
 659 02de 0BD0     		beq	.L32
 188:main.c        ****                             controlWheels(MEDIUM_FORWARD, MEDIUM_FORWARD);
 660              		.loc 1 188 0 is_stmt 0 discriminator 1
 661 02e0 FFF7FEFF 		bl	Q4_Read
 662 02e4 0346     		mov	r3, r0
 663 02e6 002B     		cmp	r3, #0
 664 02e8 06D0     		beq	.L32
 189:main.c        ****                             currentState = DRIVING;
 665              		.loc 1 189 0 is_stmt 1
 666 02ea 4221     		movs	r1, #66
 667 02ec 4220     		movs	r0, #66
 668 02ee FFF7FEFF 		bl	controlWheels
 190:main.c        ****                         }
 669              		.loc 1 190 0
 670 02f2 034B     		ldr	r3, .L50
 671 02f4 0422     		movs	r2, #4
 672 02f6 1A70     		strb	r2, [r3]
 673              	.L32:
 192:main.c        ****                     
 674              		.loc 1 192 0
 675 02f8 054B     		ldr	r3, .L50+16
 676 02fa 0022     		movs	r2, #0
 677 02fc 1A70     		strb	r2, [r3]
 194:main.c        ****                     case(RIGHT):
 678              		.loc 1 194 0
 679 02fe 55E0     		b	.L35
 680              	.L51:
 681              		.align	2
 682              	.L50:
 683 0300 00000000 		.word	currentState
 684 0304 44000000 		.word	pathArray
 685 0308 00000000 		.word	Sensor_Timer_Isr
 686 030c 00000000 		.word	noSensor
 687 0310 00000000 		.word	firstEntry
 688              	.L27:
 196:main.c        ****                          //Working Mostly
 689              		.loc 1 196 0
 690 0314 2321     		movs	r1, #35
 691 0316 4220     		movs	r0, #66
 692 0318 FFF7FEFF 		bl	controlWheels
 198:main.c        ****                             intersect = 1;
 693              		.loc 1 198 0
 694 031c 4E4B     		ldr	r3, .L52
 695 031e 1B78     		ldrb	r3, [r3]	@ zero_extendqisi2
 696 0320 012B     		cmp	r3, #1
 697 0322 17D1     		bne	.L33
 198:main.c        ****                             intersect = 1;
 698              		.loc 1 198 0 is_stmt 0 discriminator 1
ARM GAS  C:\Users\sela847\AppData\Local\Temp\ccMzjcTW.s 			page 18


 699 0324 FFF7FEFF 		bl	Q2_Read
 700 0328 0346     		mov	r3, r0
 701 032a 002B     		cmp	r3, #0
 702 032c 12D0     		beq	.L33
 198:main.c        ****                             intersect = 1;
 703              		.loc 1 198 0 discriminator 2
 704 032e FFF7FEFF 		bl	Q1_Read
 705 0332 0346     		mov	r3, r0
 706 0334 002B     		cmp	r3, #0
 707 0336 0DD0     		beq	.L33
 198:main.c        ****                             intersect = 1;
 708              		.loc 1 198 0 discriminator 3
 709 0338 FFF7FEFF 		bl	Q3_Read
 710 033c 0346     		mov	r3, r0
 711 033e 002B     		cmp	r3, #0
 712 0340 08D0     		beq	.L33
 199:main.c        ****                             controlWheels(STOP,STOP);
 713              		.loc 1 199 0 is_stmt 1
 714 0342 0123     		movs	r3, #1
 715 0344 FB73     		strb	r3, [r7, #15]
 200:main.c        ****                             currentState = TURNING;
 716              		.loc 1 200 0
 717 0346 3221     		movs	r1, #50
 718 0348 3220     		movs	r0, #50
 719 034a FFF7FEFF 		bl	controlWheels
 201:main.c        ****                         }
 720              		.loc 1 201 0
 721 034e 434B     		ldr	r3, .L52+4
 722 0350 0522     		movs	r2, #5
 723 0352 1A70     		strb	r2, [r3]
 724              	.L33:
 203:main.c        ****                         
 725              		.loc 1 203 0
 726 0354 404B     		ldr	r3, .L52
 727 0356 0022     		movs	r2, #0
 728 0358 1A70     		strb	r2, [r3]
 207:main.c        ****                             edgeFlag = 1;   
 729              		.loc 1 207 0
 730 035a FFF7FEFF 		bl	Q1_Read
 731 035e 0346     		mov	r3, r0
 732 0360 002B     		cmp	r3, #0
 733 0362 01D1     		bne	.L34
 208:main.c        ****                             
 734              		.loc 1 208 0
 735 0364 0123     		movs	r3, #1
 736 0366 BB60     		str	r3, [r7, #8]
 737              	.L34:
 211:main.c        ****                             intersect = 1;
 738              		.loc 1 211 0
 739 0368 FFF7FEFF 		bl	Q2_Read
 740 036c 0346     		mov	r3, r0
 741 036e 002B     		cmp	r3, #0
 742 0370 70D0     		beq	.L47
 211:main.c        ****                             intersect = 1;
 743              		.loc 1 211 0 is_stmt 0 discriminator 1
 744 0372 FFF7FEFF 		bl	Q1_Read
 745 0376 0346     		mov	r3, r0
ARM GAS  C:\Users\sela847\AppData\Local\Temp\ccMzjcTW.s 			page 19


 746 0378 002B     		cmp	r3, #0
 747 037a 6BD0     		beq	.L47
 211:main.c        ****                             intersect = 1;
 748              		.loc 1 211 0 discriminator 2
 749 037c BB68     		ldr	r3, [r7, #8]
 750 037e 012B     		cmp	r3, #1
 751 0380 68D1     		bne	.L47
 212:main.c        ****                             edgeFlag = 0;
 752              		.loc 1 212 0 is_stmt 1
 753 0382 0123     		movs	r3, #1
 754 0384 FB73     		strb	r3, [r7, #15]
 213:main.c        ****                             controlWheels(STOP,STOP);
 755              		.loc 1 213 0
 756 0386 0023     		movs	r3, #0
 757 0388 BB60     		str	r3, [r7, #8]
 214:main.c        ****                             currentState = TURNING;
 758              		.loc 1 214 0
 759 038a 3221     		movs	r1, #50
 760 038c 3220     		movs	r0, #50
 761 038e FFF7FEFF 		bl	controlWheels
 215:main.c        ****                         }
 762              		.loc 1 215 0
 763 0392 324B     		ldr	r3, .L52+4
 764 0394 0522     		movs	r2, #5
 765 0396 1A70     		strb	r2, [r3]
 766              		.loc 1 223 0
 767 0398 5CE0     		b	.L47
 768              	.L24:
 219:main.c        ****                     currentState = STOPCAR;
 769              		.loc 1 219 0
 770 039a 3221     		movs	r1, #50
 771 039c 3220     		movs	r0, #50
 772 039e FFF7FEFF 		bl	controlWheels
 220:main.c        ****                 }
 773              		.loc 1 220 0
 774 03a2 2E4B     		ldr	r3, .L52+4
 775 03a4 0A22     		movs	r2, #10
 776 03a6 1A70     		strb	r2, [r3]
 777              		.loc 1 223 0
 778 03a8 54E0     		b	.L47
 779              	.L46:
 184:main.c        ****                     case(FORWARD):
 780              		.loc 1 184 0
 781 03aa 00BF     		nop
 782              	.L35:
 783              		.loc 1 223 0 discriminator 4
 784 03ac 52E0     		b	.L47
 785              	.L9:
 224:main.c        ****             case (TURNING):
 225:main.c        ****                              
 226:main.c        ****                 switch(currentInstruction.direction){
 786              		.loc 1 226 0
 787 03ae BB78     		ldrb	r3, [r7, #2]	@ zero_extendqisi2
 788 03b0 032B     		cmp	r3, #3
 789 03b2 02D0     		beq	.L37
 790 03b4 042B     		cmp	r3, #4
 791 03b6 20D0     		beq	.L38
ARM GAS  C:\Users\sela847\AppData\Local\Temp\ccMzjcTW.s 			page 20


 227:main.c        ****                     LED_GREEN_Write(0);
 228:main.c        ****                     LED_BLUE_Write(0);
 229:main.c        ****                     LED_Write(1);
 230:main.c        ****                     case(LEFT):
 231:main.c        ****                        controlWheels(MEDIUM_REVERSE, MEDIUM_FORWARD);
 232:main.c        ****                         
 233:main.c        ****                         if (!Q2_Read() && !intersect){
 234:main.c        ****                             controlWheels(STOP, STOP);
 235:main.c        ****                             noSensor = 1;
 236:main.c        ****                             Timer_Sensor_Start();
 237:main.c        ****                             currentState = DRIVING;
 238:main.c        ****                         
 239:main.c        ****                         }
 240:main.c        ****                         
 241:main.c        ****                         if (Q2_Read()){                            
 242:main.c        ****                             intersect = 0;
 243:main.c        ****                         }
 244:main.c        **** 
 245:main.c        ****                         break; 
 246:main.c        ****                     case(RIGHT):
 247:main.c        ****                         controlWheels(MEDIUM_FORWARD, MEDIUM_REVERSE);
 248:main.c        ****                         
 249:main.c        ****                         if (!Q2_Read() && !intersect){
 250:main.c        ****                             controlWheels(STOP, STOP);
 251:main.c        ****                             noSensor = 1;
 252:main.c        ****                             Timer_Sensor_Start();
 253:main.c        ****                             currentState = DRIVING;
 254:main.c        ****                         
 255:main.c        ****                         }
 256:main.c        ****                         
 257:main.c        ****                         if (Q2_Read()){                            
 258:main.c        ****                             intersect = 0;
 259:main.c        ****                         }
 260:main.c        **** 
 261:main.c        ****                         break; 
 262:main.c        ****                 }
 263:main.c        ****                
 264:main.c        ****                 break;
 792              		.loc 1 264 0
 793 03b8 4DE0     		b	.L5
 794              	.L37:
 231:main.c        ****                         
 795              		.loc 1 231 0
 796 03ba 4221     		movs	r1, #66
 797 03bc 2320     		movs	r0, #35
 798 03be FFF7FEFF 		bl	controlWheels
 233:main.c        ****                             controlWheels(STOP, STOP);
 799              		.loc 1 233 0
 800 03c2 FFF7FEFF 		bl	Q2_Read
 801 03c6 0346     		mov	r3, r0
 802 03c8 002B     		cmp	r3, #0
 803 03ca 0ED1     		bne	.L39
 233:main.c        ****                             controlWheels(STOP, STOP);
 804              		.loc 1 233 0 is_stmt 0 discriminator 1
 805 03cc FB7B     		ldrb	r3, [r7, #15]	@ zero_extendqisi2
 806 03ce 002B     		cmp	r3, #0
 807 03d0 0BD1     		bne	.L39
ARM GAS  C:\Users\sela847\AppData\Local\Temp\ccMzjcTW.s 			page 21


 234:main.c        ****                             noSensor = 1;
 808              		.loc 1 234 0 is_stmt 1
 809 03d2 3221     		movs	r1, #50
 810 03d4 3220     		movs	r0, #50
 811 03d6 FFF7FEFF 		bl	controlWheels
 235:main.c        ****                             Timer_Sensor_Start();
 812              		.loc 1 235 0
 813 03da 214B     		ldr	r3, .L52+8
 814 03dc 0122     		movs	r2, #1
 815 03de 1A60     		str	r2, [r3]
 236:main.c        ****                             currentState = DRIVING;
 816              		.loc 1 236 0
 817 03e0 FFF7FEFF 		bl	Timer_Sensor_Start
 237:main.c        ****                         
 818              		.loc 1 237 0
 819 03e4 1D4B     		ldr	r3, .L52+4
 820 03e6 0422     		movs	r2, #4
 821 03e8 1A70     		strb	r2, [r3]
 822              	.L39:
 241:main.c        ****                             intersect = 0;
 823              		.loc 1 241 0
 824 03ea FFF7FEFF 		bl	Q2_Read
 825 03ee 0346     		mov	r3, r0
 826 03f0 002B     		cmp	r3, #0
 827 03f2 22D0     		beq	.L48
 242:main.c        ****                         }
 828              		.loc 1 242 0
 829 03f4 0023     		movs	r3, #0
 830 03f6 FB73     		strb	r3, [r7, #15]
 245:main.c        ****                     case(RIGHT):
 831              		.loc 1 245 0
 832 03f8 1FE0     		b	.L48
 833              	.L38:
 247:main.c        ****                         
 834              		.loc 1 247 0
 835 03fa 2321     		movs	r1, #35
 836 03fc 4220     		movs	r0, #66
 837 03fe FFF7FEFF 		bl	controlWheels
 249:main.c        ****                             controlWheels(STOP, STOP);
 838              		.loc 1 249 0
 839 0402 FFF7FEFF 		bl	Q2_Read
 840 0406 0346     		mov	r3, r0
 841 0408 002B     		cmp	r3, #0
 842 040a 0ED1     		bne	.L41
 249:main.c        ****                             controlWheels(STOP, STOP);
 843              		.loc 1 249 0 is_stmt 0 discriminator 1
 844 040c FB7B     		ldrb	r3, [r7, #15]	@ zero_extendqisi2
 845 040e 002B     		cmp	r3, #0
 846 0410 0BD1     		bne	.L41
 250:main.c        ****                             noSensor = 1;
 847              		.loc 1 250 0 is_stmt 1
 848 0412 3221     		movs	r1, #50
 849 0414 3220     		movs	r0, #50
 850 0416 FFF7FEFF 		bl	controlWheels
 251:main.c        ****                             Timer_Sensor_Start();
 851              		.loc 1 251 0
 852 041a 114B     		ldr	r3, .L52+8
ARM GAS  C:\Users\sela847\AppData\Local\Temp\ccMzjcTW.s 			page 22


 853 041c 0122     		movs	r2, #1
 854 041e 1A60     		str	r2, [r3]
 252:main.c        ****                             currentState = DRIVING;
 855              		.loc 1 252 0
 856 0420 FFF7FEFF 		bl	Timer_Sensor_Start
 253:main.c        ****                         
 857              		.loc 1 253 0
 858 0424 0D4B     		ldr	r3, .L52+4
 859 0426 0422     		movs	r2, #4
 860 0428 1A70     		strb	r2, [r3]
 861              	.L41:
 257:main.c        ****                             intersect = 0;
 862              		.loc 1 257 0
 863 042a FFF7FEFF 		bl	Q2_Read
 864 042e 0346     		mov	r3, r0
 865 0430 002B     		cmp	r3, #0
 866 0432 04D0     		beq	.L49
 258:main.c        ****                         }
 867              		.loc 1 258 0
 868 0434 0023     		movs	r3, #0
 869 0436 FB73     		strb	r3, [r7, #15]
 261:main.c        ****                 }
 870              		.loc 1 261 0
 871 0438 01E0     		b	.L49
 872              	.L48:
 245:main.c        ****                     case(RIGHT):
 873              		.loc 1 245 0
 874 043a 00BF     		nop
 875 043c 0BE0     		b	.L5
 876              	.L49:
 261:main.c        ****                 }
 877              		.loc 1 261 0
 878 043e 00BF     		nop
 879              		.loc 1 264 0
 880 0440 09E0     		b	.L5
 881              	.L11:
 265:main.c        ****             case (STOPCAR):
 266:main.c        ****                 controlWheels(STOP,STOP);
 882              		.loc 1 266 0
 883 0442 3221     		movs	r1, #50
 884 0444 3220     		movs	r0, #50
 885 0446 FFF7FEFF 		bl	controlWheels
 267:main.c        ****                 break;
 886              		.loc 1 267 0
 887 044a 04E0     		b	.L5
 888              	.L44:
 121:main.c        ****                 
 889              		.loc 1 121 0
 890 044c 00BF     		nop
 891 044e 06E6     		b	.L43
 892              	.L45:
 152:main.c        ****                     
 893              		.loc 1 152 0
 894 0450 00BF     		nop
 895 0452 04E6     		b	.L43
 896              	.L47:
 223:main.c        ****             case (TURNING):
ARM GAS  C:\Users\sela847\AppData\Local\Temp\ccMzjcTW.s 			page 23


 897              		.loc 1 223 0
 898 0454 00BF     		nop
 899              	.L5:
 268:main.c        ****                     
 269:main.c        ****         }
 270:main.c        ****            
 271:main.c        ****     }
 900              		.loc 1 271 0 discriminator 8
 901 0456 02E6     		b	.L43
 902              	.L53:
 903              		.align	2
 904              	.L52:
 905 0458 00000000 		.word	firstEntry
 906 045c 00000000 		.word	currentState
 907 0460 00000000 		.word	noSensor
 908              		.cfi_endproc
 909              	.LFE65:
 910              		.size	main, .-main
 911              		.section	.text.usbPutString,"ax",%progbits
 912              		.align	2
 913              		.global	usbPutString
 914              		.thumb
 915              		.thumb_func
 916              		.type	usbPutString, %function
 917              	usbPutString:
 918              	.LFB66:
 272:main.c        ****             
 273:main.c        ****         
 274:main.c        ****     
 275:main.c        **** }//End main
 276:main.c        **** 
 277:main.c        **** 
 278:main.c        **** 
 279:main.c        **** //* ========================================
 280:main.c        **** void usbPutString(char *s)
 281:main.c        **** {
 919              		.loc 1 281 0
 920              		.cfi_startproc
 921              		@ args = 0, pretend = 0, frame = 8
 922              		@ frame_needed = 1, uses_anonymous_args = 0
 923 0000 80B5     		push	{r7, lr}
 924              		.cfi_def_cfa_offset 8
 925              		.cfi_offset 7, -8
 926              		.cfi_offset 14, -4
 927 0002 82B0     		sub	sp, sp, #8
 928              		.cfi_def_cfa_offset 16
 929 0004 00AF     		add	r7, sp, #0
 930              		.cfi_def_cfa_register 7
 931 0006 7860     		str	r0, [r7, #4]
 282:main.c        **** // !! Assumes that *s is a string with allocated space >=64 chars     
 283:main.c        **** //  Since USB implementation retricts data packets to 64 chars, this function truncates the
 284:main.c        **** //  length to 62 char (63rd char is a '!')
 285:main.c        **** 
 286:main.c        **** #ifdef USE_USB     
 287:main.c        ****     while (USBUART_CDCIsReady() == 0);
 932              		.loc 1 287 0
 933 0008 00BF     		nop
ARM GAS  C:\Users\sela847\AppData\Local\Temp\ccMzjcTW.s 			page 24


 934              	.L55:
 935              		.loc 1 287 0 is_stmt 0 discriminator 1
 936 000a FFF7FEFF 		bl	USBUART_CDCIsReady
 937 000e 0346     		mov	r3, r0
 938 0010 002B     		cmp	r3, #0
 939 0012 FAD0     		beq	.L55
 288:main.c        ****     s[63]='\0';
 940              		.loc 1 288 0 is_stmt 1
 941 0014 7B68     		ldr	r3, [r7, #4]
 942 0016 3F33     		adds	r3, r3, #63
 943 0018 0022     		movs	r2, #0
 944 001a 1A70     		strb	r2, [r3]
 289:main.c        ****     s[62]='!';
 945              		.loc 1 289 0
 946 001c 7B68     		ldr	r3, [r7, #4]
 947 001e 3E33     		adds	r3, r3, #62
 948 0020 2122     		movs	r2, #33
 949 0022 1A70     		strb	r2, [r3]
 290:main.c        ****     USBUART_PutData((uint8*)s,strlen(s));
 950              		.loc 1 290 0
 951 0024 7868     		ldr	r0, [r7, #4]
 952 0026 FFF7FEFF 		bl	strlen
 953 002a 0346     		mov	r3, r0
 954 002c 9BB2     		uxth	r3, r3
 955 002e 1946     		mov	r1, r3
 956 0030 7868     		ldr	r0, [r7, #4]
 957 0032 FFF7FEFF 		bl	USBUART_PutData
 291:main.c        **** #endif
 292:main.c        **** }
 958              		.loc 1 292 0
 959 0036 00BF     		nop
 960 0038 0837     		adds	r7, r7, #8
 961              		.cfi_def_cfa_offset 8
 962 003a BD46     		mov	sp, r7
 963              		.cfi_def_cfa_register 13
 964              		@ sp needed
 965 003c 80BD     		pop	{r7, pc}
 966              		.cfi_endproc
 967              	.LFE66:
 968              		.size	usbPutString, .-usbPutString
 969 003e 00BF     		.section	.text.usbPutChar,"ax",%progbits
 970              		.align	2
 971              		.global	usbPutChar
 972              		.thumb
 973              		.thumb_func
 974              		.type	usbPutChar, %function
 975              	usbPutChar:
 976              	.LFB67:
 293:main.c        **** //* ========================================
 294:main.c        **** void usbPutChar(char c)
 295:main.c        **** {
 977              		.loc 1 295 0
 978              		.cfi_startproc
 979              		@ args = 0, pretend = 0, frame = 8
 980              		@ frame_needed = 1, uses_anonymous_args = 0
 981 0000 80B5     		push	{r7, lr}
 982              		.cfi_def_cfa_offset 8
ARM GAS  C:\Users\sela847\AppData\Local\Temp\ccMzjcTW.s 			page 25


 983              		.cfi_offset 7, -8
 984              		.cfi_offset 14, -4
 985 0002 82B0     		sub	sp, sp, #8
 986              		.cfi_def_cfa_offset 16
 987 0004 00AF     		add	r7, sp, #0
 988              		.cfi_def_cfa_register 7
 989 0006 0346     		mov	r3, r0
 990 0008 FB71     		strb	r3, [r7, #7]
 296:main.c        **** #ifdef USE_USB     
 297:main.c        ****     while (USBUART_CDCIsReady() == 0);
 991              		.loc 1 297 0
 992 000a 00BF     		nop
 993              	.L57:
 994              		.loc 1 297 0 is_stmt 0 discriminator 1
 995 000c FFF7FEFF 		bl	USBUART_CDCIsReady
 996 0010 0346     		mov	r3, r0
 997 0012 002B     		cmp	r3, #0
 998 0014 FAD0     		beq	.L57
 298:main.c        ****     USBUART_PutChar(c);
 999              		.loc 1 298 0 is_stmt 1
 1000 0016 FB79     		ldrb	r3, [r7, #7]	@ zero_extendqisi2
 1001 0018 1846     		mov	r0, r3
 1002 001a FFF7FEFF 		bl	USBUART_PutChar
 299:main.c        **** #endif    
 300:main.c        **** }
 1003              		.loc 1 300 0
 1004 001e 00BF     		nop
 1005 0020 0837     		adds	r7, r7, #8
 1006              		.cfi_def_cfa_offset 8
 1007 0022 BD46     		mov	sp, r7
 1008              		.cfi_def_cfa_register 13
 1009              		@ sp needed
 1010 0024 80BD     		pop	{r7, pc}
 1011              		.cfi_endproc
 1012              	.LFE67:
 1013              		.size	usbPutChar, .-usbPutChar
 1014 0026 00BF     		.text
 1015              	.Letext0:
 1016              		.file 2 "c:\\program files (x86)\\cypress\\psoc creator\\4.2\\psoc creator\\import\\gnu\\arm\\5.4.
 1017              		.file 3 "c:\\program files (x86)\\cypress\\psoc creator\\4.2\\psoc creator\\import\\gnu\\arm\\5.4.
 1018              		.file 4 "Generated_Source\\PSoC5/cytypes.h"
 1019              		.file 5 "vars.h"
 1020              		.file 6 "Generated_Source\\PSoC5/core_cm3.h"