ARM GAS  C:\Users\sela847\AppData\Local\Temp\ccySwTds.s 			page 1


   1              		.syntax unified
   2              		.cpu cortex-m3
   3              		.fpu softvfp
   4              		.eabi_attribute 20, 1
   5              		.eabi_attribute 21, 1
   6              		.eabi_attribute 23, 3
   7              		.eabi_attribute 24, 1
   8              		.eabi_attribute 25, 1
   9              		.eabi_attribute 26, 1
  10              		.eabi_attribute 30, 1
  11              		.eabi_attribute 34, 1
  12              		.eabi_attribute 18, 4
  13              		.thumb
  14              		.syntax unified
  15              		.file	"isr_TC.c"
  16              		.text
  17              	.Ltext0:
  18              		.cfi_sections	.debug_frame
  19              		.section	.text.isr_TC_Interrupt,"ax",%progbits
  20              		.align	2
  21              		.global	isr_TC_Interrupt
  22              		.thumb
  23              		.thumb_func
  24              		.type	isr_TC_Interrupt, %function
  25              	isr_TC_Interrupt:
  26              	.LFB66:
  27              		.file 1 "Generated_Source\\PSoC5\\isr_TC.c"
   1:Generated_Source\PSoC5/isr_TC.c **** /*******************************************************************************
   2:Generated_Source\PSoC5/isr_TC.c **** * File Name: isr_TC.c  
   3:Generated_Source\PSoC5/isr_TC.c **** * Version 1.71
   4:Generated_Source\PSoC5/isr_TC.c **** *
   5:Generated_Source\PSoC5/isr_TC.c **** *  Description:
   6:Generated_Source\PSoC5/isr_TC.c **** *   API for controlling the state of an interrupt.
   7:Generated_Source\PSoC5/isr_TC.c **** *
   8:Generated_Source\PSoC5/isr_TC.c **** *
   9:Generated_Source\PSoC5/isr_TC.c **** *  Note:
  10:Generated_Source\PSoC5/isr_TC.c **** *
  11:Generated_Source\PSoC5/isr_TC.c **** ********************************************************************************
  12:Generated_Source\PSoC5/isr_TC.c **** * Copyright 2008-2015, Cypress Semiconductor Corporation.  All rights reserved.
  13:Generated_Source\PSoC5/isr_TC.c **** * You may use this file only in accordance with the license, terms, conditions, 
  14:Generated_Source\PSoC5/isr_TC.c **** * disclaimers, and limitations in the end user license agreement accompanying 
  15:Generated_Source\PSoC5/isr_TC.c **** * the software package with which this file was provided.
  16:Generated_Source\PSoC5/isr_TC.c **** *******************************************************************************/
  17:Generated_Source\PSoC5/isr_TC.c **** 
  18:Generated_Source\PSoC5/isr_TC.c **** 
  19:Generated_Source\PSoC5/isr_TC.c **** #include <cydevice_trm.h>
  20:Generated_Source\PSoC5/isr_TC.c **** #include <CyLib.h>
  21:Generated_Source\PSoC5/isr_TC.c **** #include <isr_TC.h>
  22:Generated_Source\PSoC5/isr_TC.c **** #include "cyapicallbacks.h"
  23:Generated_Source\PSoC5/isr_TC.c **** 
  24:Generated_Source\PSoC5/isr_TC.c **** #if !defined(isr_TC__REMOVED) /* Check for removal by optimization */
  25:Generated_Source\PSoC5/isr_TC.c **** 
  26:Generated_Source\PSoC5/isr_TC.c **** /*******************************************************************************
  27:Generated_Source\PSoC5/isr_TC.c **** *  Place your includes, defines and code here 
  28:Generated_Source\PSoC5/isr_TC.c **** ********************************************************************************/
  29:Generated_Source\PSoC5/isr_TC.c **** /* `#START isr_TC_intc` */
  30:Generated_Source\PSoC5/isr_TC.c **** #include <project.h>
ARM GAS  C:\Users\sela847\AppData\Local\Temp\ccySwTds.s 			page 2


  31:Generated_Source\PSoC5/isr_TC.c **** /* `#END` */
  32:Generated_Source\PSoC5/isr_TC.c **** 
  33:Generated_Source\PSoC5/isr_TC.c **** #ifndef CYINT_IRQ_BASE
  34:Generated_Source\PSoC5/isr_TC.c **** #define CYINT_IRQ_BASE      16
  35:Generated_Source\PSoC5/isr_TC.c **** #endif /* CYINT_IRQ_BASE */
  36:Generated_Source\PSoC5/isr_TC.c **** #ifndef CYINT_VECT_TABLE
  37:Generated_Source\PSoC5/isr_TC.c **** #define CYINT_VECT_TABLE    ((cyisraddress **) CYREG_NVIC_VECT_OFFSET)
  38:Generated_Source\PSoC5/isr_TC.c **** #endif /* CYINT_VECT_TABLE */
  39:Generated_Source\PSoC5/isr_TC.c **** 
  40:Generated_Source\PSoC5/isr_TC.c **** /* Declared in startup, used to set unused interrupts to. */
  41:Generated_Source\PSoC5/isr_TC.c **** CY_ISR_PROTO(IntDefaultHandler);
  42:Generated_Source\PSoC5/isr_TC.c **** 
  43:Generated_Source\PSoC5/isr_TC.c **** 
  44:Generated_Source\PSoC5/isr_TC.c **** /*******************************************************************************
  45:Generated_Source\PSoC5/isr_TC.c **** * Function Name: isr_TC_Start
  46:Generated_Source\PSoC5/isr_TC.c **** ********************************************************************************
  47:Generated_Source\PSoC5/isr_TC.c **** *
  48:Generated_Source\PSoC5/isr_TC.c **** * Summary:
  49:Generated_Source\PSoC5/isr_TC.c **** *  Set up the interrupt and enable it. This function disables the interrupt, 
  50:Generated_Source\PSoC5/isr_TC.c **** *  sets the default interrupt vector, sets the priority from the value in the
  51:Generated_Source\PSoC5/isr_TC.c **** *  Design Wide Resources Interrupt Editor, then enables the interrupt to the 
  52:Generated_Source\PSoC5/isr_TC.c **** *  interrupt controller.
  53:Generated_Source\PSoC5/isr_TC.c **** *
  54:Generated_Source\PSoC5/isr_TC.c **** * Parameters:  
  55:Generated_Source\PSoC5/isr_TC.c **** *   None
  56:Generated_Source\PSoC5/isr_TC.c **** *
  57:Generated_Source\PSoC5/isr_TC.c **** * Return:
  58:Generated_Source\PSoC5/isr_TC.c **** *   None
  59:Generated_Source\PSoC5/isr_TC.c **** *
  60:Generated_Source\PSoC5/isr_TC.c **** *******************************************************************************/
  61:Generated_Source\PSoC5/isr_TC.c **** void isr_TC_Start(void)
  62:Generated_Source\PSoC5/isr_TC.c **** {
  63:Generated_Source\PSoC5/isr_TC.c ****     /* For all we know the interrupt is active. */
  64:Generated_Source\PSoC5/isr_TC.c ****     isr_TC_Disable();
  65:Generated_Source\PSoC5/isr_TC.c **** 
  66:Generated_Source\PSoC5/isr_TC.c ****     /* Set the ISR to point to the isr_TC Interrupt. */
  67:Generated_Source\PSoC5/isr_TC.c ****     isr_TC_SetVector(&isr_TC_Interrupt);
  68:Generated_Source\PSoC5/isr_TC.c **** 
  69:Generated_Source\PSoC5/isr_TC.c ****     /* Set the priority. */
  70:Generated_Source\PSoC5/isr_TC.c ****     isr_TC_SetPriority((uint8)isr_TC_INTC_PRIOR_NUMBER);
  71:Generated_Source\PSoC5/isr_TC.c **** 
  72:Generated_Source\PSoC5/isr_TC.c ****     /* Enable it. */
  73:Generated_Source\PSoC5/isr_TC.c ****     isr_TC_Enable();
  74:Generated_Source\PSoC5/isr_TC.c **** }
  75:Generated_Source\PSoC5/isr_TC.c **** 
  76:Generated_Source\PSoC5/isr_TC.c **** 
  77:Generated_Source\PSoC5/isr_TC.c **** /*******************************************************************************
  78:Generated_Source\PSoC5/isr_TC.c **** * Function Name: isr_TC_StartEx
  79:Generated_Source\PSoC5/isr_TC.c **** ********************************************************************************
  80:Generated_Source\PSoC5/isr_TC.c **** *
  81:Generated_Source\PSoC5/isr_TC.c **** * Summary:
  82:Generated_Source\PSoC5/isr_TC.c **** *  Sets up the interrupt and enables it. This function disables the interrupt,
  83:Generated_Source\PSoC5/isr_TC.c **** *  sets the interrupt vector based on the address passed in, sets the priority 
  84:Generated_Source\PSoC5/isr_TC.c **** *  from the value in the Design Wide Resources Interrupt Editor, then enables 
  85:Generated_Source\PSoC5/isr_TC.c **** *  the interrupt to the interrupt controller.
  86:Generated_Source\PSoC5/isr_TC.c **** *  
  87:Generated_Source\PSoC5/isr_TC.c **** *  When defining ISR functions, the CY_ISR and CY_ISR_PROTO macros should be 
ARM GAS  C:\Users\sela847\AppData\Local\Temp\ccySwTds.s 			page 3


  88:Generated_Source\PSoC5/isr_TC.c **** *  used to provide consistent definition across compilers:
  89:Generated_Source\PSoC5/isr_TC.c **** *  
  90:Generated_Source\PSoC5/isr_TC.c **** *  Function definition example:
  91:Generated_Source\PSoC5/isr_TC.c **** *   CY_ISR(MyISR)
  92:Generated_Source\PSoC5/isr_TC.c **** *   {
  93:Generated_Source\PSoC5/isr_TC.c **** *   }
  94:Generated_Source\PSoC5/isr_TC.c **** *   Function prototype example:
  95:Generated_Source\PSoC5/isr_TC.c **** *   CY_ISR_PROTO(MyISR);
  96:Generated_Source\PSoC5/isr_TC.c **** *
  97:Generated_Source\PSoC5/isr_TC.c **** * Parameters:  
  98:Generated_Source\PSoC5/isr_TC.c **** *   address: Address of the ISR to set in the interrupt vector table.
  99:Generated_Source\PSoC5/isr_TC.c **** *
 100:Generated_Source\PSoC5/isr_TC.c **** * Return:
 101:Generated_Source\PSoC5/isr_TC.c **** *   None
 102:Generated_Source\PSoC5/isr_TC.c **** *
 103:Generated_Source\PSoC5/isr_TC.c **** *******************************************************************************/
 104:Generated_Source\PSoC5/isr_TC.c **** void isr_TC_StartEx(cyisraddress address)
 105:Generated_Source\PSoC5/isr_TC.c **** {
 106:Generated_Source\PSoC5/isr_TC.c ****     /* For all we know the interrupt is active. */
 107:Generated_Source\PSoC5/isr_TC.c ****     isr_TC_Disable();
 108:Generated_Source\PSoC5/isr_TC.c **** 
 109:Generated_Source\PSoC5/isr_TC.c ****     /* Set the ISR to point to the isr_TC Interrupt. */
 110:Generated_Source\PSoC5/isr_TC.c ****     isr_TC_SetVector(address);
 111:Generated_Source\PSoC5/isr_TC.c **** 
 112:Generated_Source\PSoC5/isr_TC.c ****     /* Set the priority. */
 113:Generated_Source\PSoC5/isr_TC.c ****     isr_TC_SetPriority((uint8)isr_TC_INTC_PRIOR_NUMBER);
 114:Generated_Source\PSoC5/isr_TC.c **** 
 115:Generated_Source\PSoC5/isr_TC.c ****     /* Enable it. */
 116:Generated_Source\PSoC5/isr_TC.c ****     isr_TC_Enable();
 117:Generated_Source\PSoC5/isr_TC.c **** }
 118:Generated_Source\PSoC5/isr_TC.c **** 
 119:Generated_Source\PSoC5/isr_TC.c **** 
 120:Generated_Source\PSoC5/isr_TC.c **** /*******************************************************************************
 121:Generated_Source\PSoC5/isr_TC.c **** * Function Name: isr_TC_Stop
 122:Generated_Source\PSoC5/isr_TC.c **** ********************************************************************************
 123:Generated_Source\PSoC5/isr_TC.c **** *
 124:Generated_Source\PSoC5/isr_TC.c **** * Summary:
 125:Generated_Source\PSoC5/isr_TC.c **** *   Disables and removes the interrupt.
 126:Generated_Source\PSoC5/isr_TC.c **** *
 127:Generated_Source\PSoC5/isr_TC.c **** * Parameters:  
 128:Generated_Source\PSoC5/isr_TC.c **** *   None
 129:Generated_Source\PSoC5/isr_TC.c **** *
 130:Generated_Source\PSoC5/isr_TC.c **** * Return:
 131:Generated_Source\PSoC5/isr_TC.c **** *   None
 132:Generated_Source\PSoC5/isr_TC.c **** *
 133:Generated_Source\PSoC5/isr_TC.c **** *******************************************************************************/
 134:Generated_Source\PSoC5/isr_TC.c **** void isr_TC_Stop(void)
 135:Generated_Source\PSoC5/isr_TC.c **** {
 136:Generated_Source\PSoC5/isr_TC.c ****     /* Disable this interrupt. */
 137:Generated_Source\PSoC5/isr_TC.c ****     isr_TC_Disable();
 138:Generated_Source\PSoC5/isr_TC.c **** 
 139:Generated_Source\PSoC5/isr_TC.c ****     /* Set the ISR to point to the passive one. */
 140:Generated_Source\PSoC5/isr_TC.c ****     isr_TC_SetVector(&IntDefaultHandler);
 141:Generated_Source\PSoC5/isr_TC.c **** }
 142:Generated_Source\PSoC5/isr_TC.c **** 
 143:Generated_Source\PSoC5/isr_TC.c **** 
 144:Generated_Source\PSoC5/isr_TC.c **** /*******************************************************************************
ARM GAS  C:\Users\sela847\AppData\Local\Temp\ccySwTds.s 			page 4


 145:Generated_Source\PSoC5/isr_TC.c **** * Function Name: isr_TC_Interrupt
 146:Generated_Source\PSoC5/isr_TC.c **** ********************************************************************************
 147:Generated_Source\PSoC5/isr_TC.c **** *
 148:Generated_Source\PSoC5/isr_TC.c **** * Summary:
 149:Generated_Source\PSoC5/isr_TC.c **** *   The default Interrupt Service Routine for isr_TC.
 150:Generated_Source\PSoC5/isr_TC.c **** *
 151:Generated_Source\PSoC5/isr_TC.c **** *   Add custom code between the coments to keep the next version of this file
 152:Generated_Source\PSoC5/isr_TC.c **** *   from over writting your code.
 153:Generated_Source\PSoC5/isr_TC.c **** *
 154:Generated_Source\PSoC5/isr_TC.c **** * Parameters:  
 155:Generated_Source\PSoC5/isr_TC.c **** *
 156:Generated_Source\PSoC5/isr_TC.c **** * Return:
 157:Generated_Source\PSoC5/isr_TC.c **** *   None
 158:Generated_Source\PSoC5/isr_TC.c **** *
 159:Generated_Source\PSoC5/isr_TC.c **** *******************************************************************************/
 160:Generated_Source\PSoC5/isr_TC.c **** CY_ISR(isr_TC_Interrupt)
 161:Generated_Source\PSoC5/isr_TC.c **** {
  28              		.loc 1 161 0
  29              		.cfi_startproc
  30              		@ args = 0, pretend = 0, frame = 0
  31              		@ frame_needed = 0, uses_anonymous_args = 0
  32              		@ link register save eliminated.
  33 0000 7047     		bx	lr
  34              		.cfi_endproc
  35              	.LFE66:
  36              		.size	isr_TC_Interrupt, .-isr_TC_Interrupt
  37 0002 00BF     		.section	.text.isr_TC_SetVector,"ax",%progbits
  38              		.align	2
  39              		.global	isr_TC_SetVector
  40              		.thumb
  41              		.thumb_func
  42              		.type	isr_TC_SetVector, %function
  43              	isr_TC_SetVector:
  44              	.LFB67:
 162:Generated_Source\PSoC5/isr_TC.c ****     #ifdef isr_TC_INTERRUPT_INTERRUPT_CALLBACK
 163:Generated_Source\PSoC5/isr_TC.c ****         isr_TC_Interrupt_InterruptCallback();
 164:Generated_Source\PSoC5/isr_TC.c ****     #endif /* isr_TC_INTERRUPT_INTERRUPT_CALLBACK */ 
 165:Generated_Source\PSoC5/isr_TC.c **** 
 166:Generated_Source\PSoC5/isr_TC.c ****     /*  Place your Interrupt code here. */
 167:Generated_Source\PSoC5/isr_TC.c ****     /* `#START isr_TC_Interrupt` */
 168:Generated_Source\PSoC5/isr_TC.c **** 
 169:Generated_Source\PSoC5/isr_TC.c ****     /* `#END` */
 170:Generated_Source\PSoC5/isr_TC.c **** }
 171:Generated_Source\PSoC5/isr_TC.c **** 
 172:Generated_Source\PSoC5/isr_TC.c **** 
 173:Generated_Source\PSoC5/isr_TC.c **** /*******************************************************************************
 174:Generated_Source\PSoC5/isr_TC.c **** * Function Name: isr_TC_SetVector
 175:Generated_Source\PSoC5/isr_TC.c **** ********************************************************************************
 176:Generated_Source\PSoC5/isr_TC.c **** *
 177:Generated_Source\PSoC5/isr_TC.c **** * Summary:
 178:Generated_Source\PSoC5/isr_TC.c **** *   Change the ISR vector for the Interrupt. Note calling isr_TC_Start
 179:Generated_Source\PSoC5/isr_TC.c **** *   will override any effect this method would have had. To set the vector 
 180:Generated_Source\PSoC5/isr_TC.c **** *   before the component has been started use isr_TC_StartEx instead.
 181:Generated_Source\PSoC5/isr_TC.c **** * 
 182:Generated_Source\PSoC5/isr_TC.c **** *   When defining ISR functions, the CY_ISR and CY_ISR_PROTO macros should be 
 183:Generated_Source\PSoC5/isr_TC.c **** *   used to provide consistent definition across compilers:
 184:Generated_Source\PSoC5/isr_TC.c **** *
ARM GAS  C:\Users\sela847\AppData\Local\Temp\ccySwTds.s 			page 5


 185:Generated_Source\PSoC5/isr_TC.c **** *   Function definition example:
 186:Generated_Source\PSoC5/isr_TC.c **** *   CY_ISR(MyISR)
 187:Generated_Source\PSoC5/isr_TC.c **** *   {
 188:Generated_Source\PSoC5/isr_TC.c **** *   }
 189:Generated_Source\PSoC5/isr_TC.c **** *
 190:Generated_Source\PSoC5/isr_TC.c **** *   Function prototype example:
 191:Generated_Source\PSoC5/isr_TC.c **** *     CY_ISR_PROTO(MyISR);
 192:Generated_Source\PSoC5/isr_TC.c **** *
 193:Generated_Source\PSoC5/isr_TC.c **** * Parameters:
 194:Generated_Source\PSoC5/isr_TC.c **** *   address: Address of the ISR to set in the interrupt vector table.
 195:Generated_Source\PSoC5/isr_TC.c **** *
 196:Generated_Source\PSoC5/isr_TC.c **** * Return:
 197:Generated_Source\PSoC5/isr_TC.c **** *   None
 198:Generated_Source\PSoC5/isr_TC.c **** *
 199:Generated_Source\PSoC5/isr_TC.c **** *******************************************************************************/
 200:Generated_Source\PSoC5/isr_TC.c **** void isr_TC_SetVector(cyisraddress address)
 201:Generated_Source\PSoC5/isr_TC.c **** {
  45              		.loc 1 201 0
  46              		.cfi_startproc
  47              		@ args = 0, pretend = 0, frame = 0
  48              		@ frame_needed = 0, uses_anonymous_args = 0
  49              		@ link register save eliminated.
  50              	.LVL0:
 202:Generated_Source\PSoC5/isr_TC.c ****     cyisraddress * ramVectorTable;
 203:Generated_Source\PSoC5/isr_TC.c **** 
 204:Generated_Source\PSoC5/isr_TC.c ****     ramVectorTable = (cyisraddress *) *CYINT_VECT_TABLE;
  51              		.loc 1 204 0
  52 0000 024B     		ldr	r3, .L3
  53 0002 1B68     		ldr	r3, [r3]
  54              	.LVL1:
 205:Generated_Source\PSoC5/isr_TC.c **** 
 206:Generated_Source\PSoC5/isr_TC.c ****     ramVectorTable[CYINT_IRQ_BASE + (uint32)isr_TC__INTC_NUMBER] = address;
  55              		.loc 1 206 0
  56 0004 C3F88400 		str	r0, [r3, #132]
  57 0008 7047     		bx	lr
  58              	.L4:
  59 000a 00BF     		.align	2
  60              	.L3:
  61 000c 08ED00E0 		.word	-536810232
  62              		.cfi_endproc
  63              	.LFE67:
  64              		.size	isr_TC_SetVector, .-isr_TC_SetVector
  65              		.section	.text.isr_TC_GetVector,"ax",%progbits
  66              		.align	2
  67              		.global	isr_TC_GetVector
  68              		.thumb
  69              		.thumb_func
  70              		.type	isr_TC_GetVector, %function
  71              	isr_TC_GetVector:
  72              	.LFB68:
 207:Generated_Source\PSoC5/isr_TC.c **** }
 208:Generated_Source\PSoC5/isr_TC.c **** 
 209:Generated_Source\PSoC5/isr_TC.c **** 
 210:Generated_Source\PSoC5/isr_TC.c **** /*******************************************************************************
 211:Generated_Source\PSoC5/isr_TC.c **** * Function Name: isr_TC_GetVector
 212:Generated_Source\PSoC5/isr_TC.c **** ********************************************************************************
 213:Generated_Source\PSoC5/isr_TC.c **** *
ARM GAS  C:\Users\sela847\AppData\Local\Temp\ccySwTds.s 			page 6


 214:Generated_Source\PSoC5/isr_TC.c **** * Summary:
 215:Generated_Source\PSoC5/isr_TC.c **** *   Gets the "address" of the current ISR vector for the Interrupt.
 216:Generated_Source\PSoC5/isr_TC.c **** *
 217:Generated_Source\PSoC5/isr_TC.c **** * Parameters:
 218:Generated_Source\PSoC5/isr_TC.c **** *   None
 219:Generated_Source\PSoC5/isr_TC.c **** *
 220:Generated_Source\PSoC5/isr_TC.c **** * Return:
 221:Generated_Source\PSoC5/isr_TC.c **** *   Address of the ISR in the interrupt vector table.
 222:Generated_Source\PSoC5/isr_TC.c **** *
 223:Generated_Source\PSoC5/isr_TC.c **** *******************************************************************************/
 224:Generated_Source\PSoC5/isr_TC.c **** cyisraddress isr_TC_GetVector(void)
 225:Generated_Source\PSoC5/isr_TC.c **** {
  73              		.loc 1 225 0
  74              		.cfi_startproc
  75              		@ args = 0, pretend = 0, frame = 0
  76              		@ frame_needed = 0, uses_anonymous_args = 0
  77              		@ link register save eliminated.
 226:Generated_Source\PSoC5/isr_TC.c ****     cyisraddress * ramVectorTable;
 227:Generated_Source\PSoC5/isr_TC.c **** 
 228:Generated_Source\PSoC5/isr_TC.c ****     ramVectorTable = (cyisraddress *) *CYINT_VECT_TABLE;
  78              		.loc 1 228 0
  79 0000 024B     		ldr	r3, .L6
  80 0002 1B68     		ldr	r3, [r3]
  81              	.LVL2:
 229:Generated_Source\PSoC5/isr_TC.c **** 
 230:Generated_Source\PSoC5/isr_TC.c ****     return ramVectorTable[CYINT_IRQ_BASE + (uint32)isr_TC__INTC_NUMBER];
 231:Generated_Source\PSoC5/isr_TC.c **** }
  82              		.loc 1 231 0
  83 0004 D3F88400 		ldr	r0, [r3, #132]
  84 0008 7047     		bx	lr
  85              	.L7:
  86 000a 00BF     		.align	2
  87              	.L6:
  88 000c 08ED00E0 		.word	-536810232
  89              		.cfi_endproc
  90              	.LFE68:
  91              		.size	isr_TC_GetVector, .-isr_TC_GetVector
  92              		.section	.text.isr_TC_SetPriority,"ax",%progbits
  93              		.align	2
  94              		.global	isr_TC_SetPriority
  95              		.thumb
  96              		.thumb_func
  97              		.type	isr_TC_SetPriority, %function
  98              	isr_TC_SetPriority:
  99              	.LFB69:
 232:Generated_Source\PSoC5/isr_TC.c **** 
 233:Generated_Source\PSoC5/isr_TC.c **** 
 234:Generated_Source\PSoC5/isr_TC.c **** /*******************************************************************************
 235:Generated_Source\PSoC5/isr_TC.c **** * Function Name: isr_TC_SetPriority
 236:Generated_Source\PSoC5/isr_TC.c **** ********************************************************************************
 237:Generated_Source\PSoC5/isr_TC.c **** *
 238:Generated_Source\PSoC5/isr_TC.c **** * Summary:
 239:Generated_Source\PSoC5/isr_TC.c **** *   Sets the Priority of the Interrupt. 
 240:Generated_Source\PSoC5/isr_TC.c **** *
 241:Generated_Source\PSoC5/isr_TC.c **** *   Note calling isr_TC_Start or isr_TC_StartEx will 
 242:Generated_Source\PSoC5/isr_TC.c **** *   override any effect this API would have had. This API should only be called
 243:Generated_Source\PSoC5/isr_TC.c **** *   after isr_TC_Start or isr_TC_StartEx has been called. 
ARM GAS  C:\Users\sela847\AppData\Local\Temp\ccySwTds.s 			page 7


 244:Generated_Source\PSoC5/isr_TC.c **** *   To set the initial priority for the component, use the Design-Wide Resources
 245:Generated_Source\PSoC5/isr_TC.c **** *   Interrupt Editor.
 246:Generated_Source\PSoC5/isr_TC.c **** *
 247:Generated_Source\PSoC5/isr_TC.c **** *   Note This API has no effect on Non-maskable interrupt NMI).
 248:Generated_Source\PSoC5/isr_TC.c **** *
 249:Generated_Source\PSoC5/isr_TC.c **** * Parameters:
 250:Generated_Source\PSoC5/isr_TC.c **** *   priority: Priority of the interrupt, 0 being the highest priority
 251:Generated_Source\PSoC5/isr_TC.c **** *             PSoC 3 and PSoC 5LP: Priority is from 0 to 7.
 252:Generated_Source\PSoC5/isr_TC.c **** *             PSoC 4: Priority is from 0 to 3.
 253:Generated_Source\PSoC5/isr_TC.c **** *
 254:Generated_Source\PSoC5/isr_TC.c **** * Return:
 255:Generated_Source\PSoC5/isr_TC.c **** *   None
 256:Generated_Source\PSoC5/isr_TC.c **** *
 257:Generated_Source\PSoC5/isr_TC.c **** *******************************************************************************/
 258:Generated_Source\PSoC5/isr_TC.c **** void isr_TC_SetPriority(uint8 priority)
 259:Generated_Source\PSoC5/isr_TC.c **** {
 100              		.loc 1 259 0
 101              		.cfi_startproc
 102              		@ args = 0, pretend = 0, frame = 0
 103              		@ frame_needed = 0, uses_anonymous_args = 0
 104              		@ link register save eliminated.
 105              	.LVL3:
 260:Generated_Source\PSoC5/isr_TC.c ****     *isr_TC_INTC_PRIOR = priority << 5;
 106              		.loc 1 260 0
 107 0000 4001     		lsls	r0, r0, #5
 108              	.LVL4:
 109 0002 C0B2     		uxtb	r0, r0
 110 0004 014B     		ldr	r3, .L9
 111 0006 1870     		strb	r0, [r3]
 112 0008 7047     		bx	lr
 113              	.L10:
 114 000a 00BF     		.align	2
 115              	.L9:
 116 000c 11E400E0 		.word	-536812527
 117              		.cfi_endproc
 118              	.LFE69:
 119              		.size	isr_TC_SetPriority, .-isr_TC_SetPriority
 120              		.section	.text.isr_TC_GetPriority,"ax",%progbits
 121              		.align	2
 122              		.global	isr_TC_GetPriority
 123              		.thumb
 124              		.thumb_func
 125              		.type	isr_TC_GetPriority, %function
 126              	isr_TC_GetPriority:
 127              	.LFB70:
 261:Generated_Source\PSoC5/isr_TC.c **** }
 262:Generated_Source\PSoC5/isr_TC.c **** 
 263:Generated_Source\PSoC5/isr_TC.c **** 
 264:Generated_Source\PSoC5/isr_TC.c **** /*******************************************************************************
 265:Generated_Source\PSoC5/isr_TC.c **** * Function Name: isr_TC_GetPriority
 266:Generated_Source\PSoC5/isr_TC.c **** ********************************************************************************
 267:Generated_Source\PSoC5/isr_TC.c **** *
 268:Generated_Source\PSoC5/isr_TC.c **** * Summary:
 269:Generated_Source\PSoC5/isr_TC.c **** *   Gets the Priority of the Interrupt.
 270:Generated_Source\PSoC5/isr_TC.c **** *
 271:Generated_Source\PSoC5/isr_TC.c **** * Parameters:
 272:Generated_Source\PSoC5/isr_TC.c **** *   None
ARM GAS  C:\Users\sela847\AppData\Local\Temp\ccySwTds.s 			page 8


 273:Generated_Source\PSoC5/isr_TC.c **** *
 274:Generated_Source\PSoC5/isr_TC.c **** * Return:
 275:Generated_Source\PSoC5/isr_TC.c **** *   Priority of the interrupt, 0 being the highest priority
 276:Generated_Source\PSoC5/isr_TC.c **** *    PSoC 3 and PSoC 5LP: Priority is from 0 to 7.
 277:Generated_Source\PSoC5/isr_TC.c **** *    PSoC 4: Priority is from 0 to 3.
 278:Generated_Source\PSoC5/isr_TC.c **** *
 279:Generated_Source\PSoC5/isr_TC.c **** *******************************************************************************/
 280:Generated_Source\PSoC5/isr_TC.c **** uint8 isr_TC_GetPriority(void)
 281:Generated_Source\PSoC5/isr_TC.c **** {
 128              		.loc 1 281 0
 129              		.cfi_startproc
 130              		@ args = 0, pretend = 0, frame = 0
 131              		@ frame_needed = 0, uses_anonymous_args = 0
 132              		@ link register save eliminated.
 282:Generated_Source\PSoC5/isr_TC.c ****     uint8 priority;
 283:Generated_Source\PSoC5/isr_TC.c **** 
 284:Generated_Source\PSoC5/isr_TC.c **** 
 285:Generated_Source\PSoC5/isr_TC.c ****     priority = *isr_TC_INTC_PRIOR >> 5;
 133              		.loc 1 285 0
 134 0000 014B     		ldr	r3, .L12
 135 0002 1878     		ldrb	r0, [r3]	@ zero_extendqisi2
 136              	.LVL5:
 286:Generated_Source\PSoC5/isr_TC.c **** 
 287:Generated_Source\PSoC5/isr_TC.c ****     return priority;
 288:Generated_Source\PSoC5/isr_TC.c **** }
 137              		.loc 1 288 0
 138 0004 4009     		lsrs	r0, r0, #5
 139              	.LVL6:
 140 0006 7047     		bx	lr
 141              	.L13:
 142              		.align	2
 143              	.L12:
 144 0008 11E400E0 		.word	-536812527
 145              		.cfi_endproc
 146              	.LFE70:
 147              		.size	isr_TC_GetPriority, .-isr_TC_GetPriority
 148              		.section	.text.isr_TC_Enable,"ax",%progbits
 149              		.align	2
 150              		.global	isr_TC_Enable
 151              		.thumb
 152              		.thumb_func
 153              		.type	isr_TC_Enable, %function
 154              	isr_TC_Enable:
 155              	.LFB71:
 289:Generated_Source\PSoC5/isr_TC.c **** 
 290:Generated_Source\PSoC5/isr_TC.c **** 
 291:Generated_Source\PSoC5/isr_TC.c **** /*******************************************************************************
 292:Generated_Source\PSoC5/isr_TC.c **** * Function Name: isr_TC_Enable
 293:Generated_Source\PSoC5/isr_TC.c **** ********************************************************************************
 294:Generated_Source\PSoC5/isr_TC.c **** *
 295:Generated_Source\PSoC5/isr_TC.c **** * Summary:
 296:Generated_Source\PSoC5/isr_TC.c **** *   Enables the interrupt to the interrupt controller. Do not call this function
 297:Generated_Source\PSoC5/isr_TC.c **** *   unless ISR_Start() has been called or the functionality of the ISR_Start() 
 298:Generated_Source\PSoC5/isr_TC.c **** *   function, which sets the vector and the priority, has been called.
 299:Generated_Source\PSoC5/isr_TC.c **** *
 300:Generated_Source\PSoC5/isr_TC.c **** * Parameters:
 301:Generated_Source\PSoC5/isr_TC.c **** *   None
ARM GAS  C:\Users\sela847\AppData\Local\Temp\ccySwTds.s 			page 9


 302:Generated_Source\PSoC5/isr_TC.c **** *
 303:Generated_Source\PSoC5/isr_TC.c **** * Return:
 304:Generated_Source\PSoC5/isr_TC.c **** *   None
 305:Generated_Source\PSoC5/isr_TC.c **** *
 306:Generated_Source\PSoC5/isr_TC.c **** *******************************************************************************/
 307:Generated_Source\PSoC5/isr_TC.c **** void isr_TC_Enable(void)
 308:Generated_Source\PSoC5/isr_TC.c **** {
 156              		.loc 1 308 0
 157              		.cfi_startproc
 158              		@ args = 0, pretend = 0, frame = 0
 159              		@ frame_needed = 0, uses_anonymous_args = 0
 160              		@ link register save eliminated.
 309:Generated_Source\PSoC5/isr_TC.c ****     /* Enable the general interrupt. */
 310:Generated_Source\PSoC5/isr_TC.c ****     *isr_TC_INTC_SET_EN = isr_TC__INTC_MASK;
 161              		.loc 1 310 0
 162 0000 4FF40032 		mov	r2, #131072
 163 0004 014B     		ldr	r3, .L15
 164 0006 1A60     		str	r2, [r3]
 165 0008 7047     		bx	lr
 166              	.L16:
 167 000a 00BF     		.align	2
 168              	.L15:
 169 000c 00E100E0 		.word	-536813312
 170              		.cfi_endproc
 171              	.LFE71:
 172              		.size	isr_TC_Enable, .-isr_TC_Enable
 173              		.section	.text.isr_TC_GetState,"ax",%progbits
 174              		.align	2
 175              		.global	isr_TC_GetState
 176              		.thumb
 177              		.thumb_func
 178              		.type	isr_TC_GetState, %function
 179              	isr_TC_GetState:
 180              	.LFB72:
 311:Generated_Source\PSoC5/isr_TC.c **** }
 312:Generated_Source\PSoC5/isr_TC.c **** 
 313:Generated_Source\PSoC5/isr_TC.c **** 
 314:Generated_Source\PSoC5/isr_TC.c **** /*******************************************************************************
 315:Generated_Source\PSoC5/isr_TC.c **** * Function Name: isr_TC_GetState
 316:Generated_Source\PSoC5/isr_TC.c **** ********************************************************************************
 317:Generated_Source\PSoC5/isr_TC.c **** *
 318:Generated_Source\PSoC5/isr_TC.c **** * Summary:
 319:Generated_Source\PSoC5/isr_TC.c **** *   Gets the state (enabled, disabled) of the Interrupt.
 320:Generated_Source\PSoC5/isr_TC.c **** *
 321:Generated_Source\PSoC5/isr_TC.c **** * Parameters:
 322:Generated_Source\PSoC5/isr_TC.c **** *   None
 323:Generated_Source\PSoC5/isr_TC.c **** *
 324:Generated_Source\PSoC5/isr_TC.c **** * Return:
 325:Generated_Source\PSoC5/isr_TC.c **** *   1 if enabled, 0 if disabled.
 326:Generated_Source\PSoC5/isr_TC.c **** *
 327:Generated_Source\PSoC5/isr_TC.c **** *******************************************************************************/
 328:Generated_Source\PSoC5/isr_TC.c **** uint8 isr_TC_GetState(void)
 329:Generated_Source\PSoC5/isr_TC.c **** {
 181              		.loc 1 329 0
 182              		.cfi_startproc
 183              		@ args = 0, pretend = 0, frame = 0
 184              		@ frame_needed = 0, uses_anonymous_args = 0
ARM GAS  C:\Users\sela847\AppData\Local\Temp\ccySwTds.s 			page 10


 185              		@ link register save eliminated.
 330:Generated_Source\PSoC5/isr_TC.c ****     /* Get the state of the general interrupt. */
 331:Generated_Source\PSoC5/isr_TC.c ****     return ((*isr_TC_INTC_SET_EN & (uint32)isr_TC__INTC_MASK) != 0u) ? 1u:0u;
 186              		.loc 1 331 0
 187 0000 044B     		ldr	r3, .L20
 188 0002 1B68     		ldr	r3, [r3]
 189 0004 13F4003F 		tst	r3, #131072
 190 0008 01D0     		beq	.L19
 191 000a 0120     		movs	r0, #1
 192 000c 7047     		bx	lr
 193              	.L19:
 194 000e 0020     		movs	r0, #0
 332:Generated_Source\PSoC5/isr_TC.c **** }
 195              		.loc 1 332 0
 196 0010 7047     		bx	lr
 197              	.L21:
 198 0012 00BF     		.align	2
 199              	.L20:
 200 0014 00E100E0 		.word	-536813312
 201              		.cfi_endproc
 202              	.LFE72:
 203              		.size	isr_TC_GetState, .-isr_TC_GetState
 204              		.section	.text.isr_TC_Disable,"ax",%progbits
 205              		.align	2
 206              		.global	isr_TC_Disable
 207              		.thumb
 208              		.thumb_func
 209              		.type	isr_TC_Disable, %function
 210              	isr_TC_Disable:
 211              	.LFB73:
 333:Generated_Source\PSoC5/isr_TC.c **** 
 334:Generated_Source\PSoC5/isr_TC.c **** 
 335:Generated_Source\PSoC5/isr_TC.c **** /*******************************************************************************
 336:Generated_Source\PSoC5/isr_TC.c **** * Function Name: isr_TC_Disable
 337:Generated_Source\PSoC5/isr_TC.c **** ********************************************************************************
 338:Generated_Source\PSoC5/isr_TC.c **** *
 339:Generated_Source\PSoC5/isr_TC.c **** * Summary:
 340:Generated_Source\PSoC5/isr_TC.c **** *   Disables the Interrupt in the interrupt controller.
 341:Generated_Source\PSoC5/isr_TC.c **** *
 342:Generated_Source\PSoC5/isr_TC.c **** * Parameters:
 343:Generated_Source\PSoC5/isr_TC.c **** *   None
 344:Generated_Source\PSoC5/isr_TC.c **** *
 345:Generated_Source\PSoC5/isr_TC.c **** * Return:
 346:Generated_Source\PSoC5/isr_TC.c **** *   None
 347:Generated_Source\PSoC5/isr_TC.c **** *
 348:Generated_Source\PSoC5/isr_TC.c **** *******************************************************************************/
 349:Generated_Source\PSoC5/isr_TC.c **** void isr_TC_Disable(void)
 350:Generated_Source\PSoC5/isr_TC.c **** {
 212              		.loc 1 350 0
 213              		.cfi_startproc
 214              		@ args = 0, pretend = 0, frame = 0
 215              		@ frame_needed = 0, uses_anonymous_args = 0
 216              		@ link register save eliminated.
 351:Generated_Source\PSoC5/isr_TC.c ****     /* Disable the general interrupt. */
 352:Generated_Source\PSoC5/isr_TC.c ****     *isr_TC_INTC_CLR_EN = isr_TC__INTC_MASK;
 217              		.loc 1 352 0
 218 0000 4FF40032 		mov	r2, #131072
ARM GAS  C:\Users\sela847\AppData\Local\Temp\ccySwTds.s 			page 11


 219 0004 014B     		ldr	r3, .L23
 220 0006 1A60     		str	r2, [r3]
 221 0008 7047     		bx	lr
 222              	.L24:
 223 000a 00BF     		.align	2
 224              	.L23:
 225 000c 80E100E0 		.word	-536813184
 226              		.cfi_endproc
 227              	.LFE73:
 228              		.size	isr_TC_Disable, .-isr_TC_Disable
 229              		.section	.text.isr_TC_Start,"ax",%progbits
 230              		.align	2
 231              		.global	isr_TC_Start
 232              		.thumb
 233              		.thumb_func
 234              		.type	isr_TC_Start, %function
 235              	isr_TC_Start:
 236              	.LFB63:
  62:Generated_Source\PSoC5/isr_TC.c ****     /* For all we know the interrupt is active. */
 237              		.loc 1 62 0
 238              		.cfi_startproc
 239              		@ args = 0, pretend = 0, frame = 0
 240              		@ frame_needed = 0, uses_anonymous_args = 0
 241 0000 08B5     		push	{r3, lr}
 242              		.cfi_def_cfa_offset 8
 243              		.cfi_offset 3, -8
 244              		.cfi_offset 14, -4
  64:Generated_Source\PSoC5/isr_TC.c **** 
 245              		.loc 1 64 0
 246 0002 FFF7FEFF 		bl	isr_TC_Disable
 247              	.LVL7:
  67:Generated_Source\PSoC5/isr_TC.c **** 
 248              		.loc 1 67 0
 249 0006 0448     		ldr	r0, .L27
 250 0008 FFF7FEFF 		bl	isr_TC_SetVector
 251              	.LVL8:
  70:Generated_Source\PSoC5/isr_TC.c **** 
 252              		.loc 1 70 0
 253 000c 0720     		movs	r0, #7
 254 000e FFF7FEFF 		bl	isr_TC_SetPriority
 255              	.LVL9:
  73:Generated_Source\PSoC5/isr_TC.c **** }
 256              		.loc 1 73 0
 257 0012 FFF7FEFF 		bl	isr_TC_Enable
 258              	.LVL10:
 259 0016 08BD     		pop	{r3, pc}
 260              	.L28:
 261              		.align	2
 262              	.L27:
 263 0018 00000000 		.word	isr_TC_Interrupt
 264              		.cfi_endproc
 265              	.LFE63:
 266              		.size	isr_TC_Start, .-isr_TC_Start
 267              		.section	.text.isr_TC_StartEx,"ax",%progbits
 268              		.align	2
 269              		.global	isr_TC_StartEx
 270              		.thumb
ARM GAS  C:\Users\sela847\AppData\Local\Temp\ccySwTds.s 			page 12


 271              		.thumb_func
 272              		.type	isr_TC_StartEx, %function
 273              	isr_TC_StartEx:
 274              	.LFB64:
 105:Generated_Source\PSoC5/isr_TC.c ****     /* For all we know the interrupt is active. */
 275              		.loc 1 105 0
 276              		.cfi_startproc
 277              		@ args = 0, pretend = 0, frame = 0
 278              		@ frame_needed = 0, uses_anonymous_args = 0
 279              	.LVL11:
 280 0000 10B5     		push	{r4, lr}
 281              		.cfi_def_cfa_offset 8
 282              		.cfi_offset 4, -8
 283              		.cfi_offset 14, -4
 284 0002 0446     		mov	r4, r0
 107:Generated_Source\PSoC5/isr_TC.c **** 
 285              		.loc 1 107 0
 286 0004 FFF7FEFF 		bl	isr_TC_Disable
 287              	.LVL12:
 110:Generated_Source\PSoC5/isr_TC.c **** 
 288              		.loc 1 110 0
 289 0008 2046     		mov	r0, r4
 290 000a FFF7FEFF 		bl	isr_TC_SetVector
 291              	.LVL13:
 113:Generated_Source\PSoC5/isr_TC.c **** 
 292              		.loc 1 113 0
 293 000e 0720     		movs	r0, #7
 294 0010 FFF7FEFF 		bl	isr_TC_SetPriority
 295              	.LVL14:
 116:Generated_Source\PSoC5/isr_TC.c **** }
 296              		.loc 1 116 0
 297 0014 FFF7FEFF 		bl	isr_TC_Enable
 298              	.LVL15:
 299 0018 10BD     		pop	{r4, pc}
 300              		.cfi_endproc
 301              	.LFE64:
 302              		.size	isr_TC_StartEx, .-isr_TC_StartEx
 303 001a 00BF     		.section	.text.isr_TC_Stop,"ax",%progbits
 304              		.align	2
 305              		.global	isr_TC_Stop
 306              		.thumb
 307              		.thumb_func
 308              		.type	isr_TC_Stop, %function
 309              	isr_TC_Stop:
 310              	.LFB65:
 135:Generated_Source\PSoC5/isr_TC.c ****     /* Disable this interrupt. */
 311              		.loc 1 135 0
 312              		.cfi_startproc
 313              		@ args = 0, pretend = 0, frame = 0
 314              		@ frame_needed = 0, uses_anonymous_args = 0
 315 0000 08B5     		push	{r3, lr}
 316              		.cfi_def_cfa_offset 8
 317              		.cfi_offset 3, -8
 318              		.cfi_offset 14, -4
 137:Generated_Source\PSoC5/isr_TC.c **** 
 319              		.loc 1 137 0
 320 0002 FFF7FEFF 		bl	isr_TC_Disable
ARM GAS  C:\Users\sela847\AppData\Local\Temp\ccySwTds.s 			page 13


 321              	.LVL16:
 140:Generated_Source\PSoC5/isr_TC.c **** }
 322              		.loc 1 140 0
 323 0006 0248     		ldr	r0, .L33
 324 0008 FFF7FEFF 		bl	isr_TC_SetVector
 325              	.LVL17:
 326 000c 08BD     		pop	{r3, pc}
 327              	.L34:
 328 000e 00BF     		.align	2
 329              	.L33:
 330 0010 00000000 		.word	IntDefaultHandler
 331              		.cfi_endproc
 332              	.LFE65:
 333              		.size	isr_TC_Stop, .-isr_TC_Stop
 334              		.section	.text.isr_TC_SetPending,"ax",%progbits
 335              		.align	2
 336              		.global	isr_TC_SetPending
 337              		.thumb
 338              		.thumb_func
 339              		.type	isr_TC_SetPending, %function
 340              	isr_TC_SetPending:
 341              	.LFB74:
 353:Generated_Source\PSoC5/isr_TC.c **** }
 354:Generated_Source\PSoC5/isr_TC.c **** 
 355:Generated_Source\PSoC5/isr_TC.c **** 
 356:Generated_Source\PSoC5/isr_TC.c **** /*******************************************************************************
 357:Generated_Source\PSoC5/isr_TC.c **** * Function Name: isr_TC_SetPending
 358:Generated_Source\PSoC5/isr_TC.c **** ********************************************************************************
 359:Generated_Source\PSoC5/isr_TC.c **** *
 360:Generated_Source\PSoC5/isr_TC.c **** * Summary:
 361:Generated_Source\PSoC5/isr_TC.c **** *   Causes the Interrupt to enter the pending state, a software method of
 362:Generated_Source\PSoC5/isr_TC.c **** *   generating the interrupt.
 363:Generated_Source\PSoC5/isr_TC.c **** *
 364:Generated_Source\PSoC5/isr_TC.c **** * Parameters:
 365:Generated_Source\PSoC5/isr_TC.c **** *   None
 366:Generated_Source\PSoC5/isr_TC.c **** *
 367:Generated_Source\PSoC5/isr_TC.c **** * Return:
 368:Generated_Source\PSoC5/isr_TC.c **** *   None
 369:Generated_Source\PSoC5/isr_TC.c **** *
 370:Generated_Source\PSoC5/isr_TC.c **** * Side Effects:
 371:Generated_Source\PSoC5/isr_TC.c **** *   If interrupts are enabled and the interrupt is set up properly, the ISR is
 372:Generated_Source\PSoC5/isr_TC.c **** *   entered (depending on the priority of this interrupt and other pending 
 373:Generated_Source\PSoC5/isr_TC.c **** *   interrupts).
 374:Generated_Source\PSoC5/isr_TC.c **** *
 375:Generated_Source\PSoC5/isr_TC.c **** *******************************************************************************/
 376:Generated_Source\PSoC5/isr_TC.c **** void isr_TC_SetPending(void)
 377:Generated_Source\PSoC5/isr_TC.c **** {
 342              		.loc 1 377 0
 343              		.cfi_startproc
 344              		@ args = 0, pretend = 0, frame = 0
 345              		@ frame_needed = 0, uses_anonymous_args = 0
 346              		@ link register save eliminated.
 378:Generated_Source\PSoC5/isr_TC.c ****     *isr_TC_INTC_SET_PD = isr_TC__INTC_MASK;
 347              		.loc 1 378 0
 348 0000 4FF40032 		mov	r2, #131072
 349 0004 014B     		ldr	r3, .L36
 350 0006 1A60     		str	r2, [r3]
ARM GAS  C:\Users\sela847\AppData\Local\Temp\ccySwTds.s 			page 14


 351 0008 7047     		bx	lr
 352              	.L37:
 353 000a 00BF     		.align	2
 354              	.L36:
 355 000c 00E200E0 		.word	-536813056
 356              		.cfi_endproc
 357              	.LFE74:
 358              		.size	isr_TC_SetPending, .-isr_TC_SetPending
 359              		.section	.text.isr_TC_ClearPending,"ax",%progbits
 360              		.align	2
 361              		.global	isr_TC_ClearPending
 362              		.thumb
 363              		.thumb_func
 364              		.type	isr_TC_ClearPending, %function
 365              	isr_TC_ClearPending:
 366              	.LFB75:
 379:Generated_Source\PSoC5/isr_TC.c **** }
 380:Generated_Source\PSoC5/isr_TC.c **** 
 381:Generated_Source\PSoC5/isr_TC.c **** 
 382:Generated_Source\PSoC5/isr_TC.c **** /*******************************************************************************
 383:Generated_Source\PSoC5/isr_TC.c **** * Function Name: isr_TC_ClearPending
 384:Generated_Source\PSoC5/isr_TC.c **** ********************************************************************************
 385:Generated_Source\PSoC5/isr_TC.c **** *
 386:Generated_Source\PSoC5/isr_TC.c **** * Summary:
 387:Generated_Source\PSoC5/isr_TC.c **** *   Clears a pending interrupt in the interrupt controller.
 388:Generated_Source\PSoC5/isr_TC.c **** *
 389:Generated_Source\PSoC5/isr_TC.c **** *   Note Some interrupt sources are clear-on-read and require the block 
 390:Generated_Source\PSoC5/isr_TC.c **** *   interrupt/status register to be read/cleared with the appropriate block API 
 391:Generated_Source\PSoC5/isr_TC.c **** *   (GPIO, UART, and so on). Otherwise the ISR will continue to remain in 
 392:Generated_Source\PSoC5/isr_TC.c **** *   pending state even though the interrupt itself is cleared using this API.
 393:Generated_Source\PSoC5/isr_TC.c **** *
 394:Generated_Source\PSoC5/isr_TC.c **** * Parameters:
 395:Generated_Source\PSoC5/isr_TC.c **** *   None
 396:Generated_Source\PSoC5/isr_TC.c **** *
 397:Generated_Source\PSoC5/isr_TC.c **** * Return:
 398:Generated_Source\PSoC5/isr_TC.c **** *   None
 399:Generated_Source\PSoC5/isr_TC.c **** *
 400:Generated_Source\PSoC5/isr_TC.c **** *******************************************************************************/
 401:Generated_Source\PSoC5/isr_TC.c **** void isr_TC_ClearPending(void)
 402:Generated_Source\PSoC5/isr_TC.c **** {
 367              		.loc 1 402 0
 368              		.cfi_startproc
 369              		@ args = 0, pretend = 0, frame = 0
 370              		@ frame_needed = 0, uses_anonymous_args = 0
 371              		@ link register save eliminated.
 403:Generated_Source\PSoC5/isr_TC.c ****     *isr_TC_INTC_CLR_PD = isr_TC__INTC_MASK;
 372              		.loc 1 403 0
 373 0000 4FF40032 		mov	r2, #131072
 374 0004 014B     		ldr	r3, .L39
 375 0006 1A60     		str	r2, [r3]
 376 0008 7047     		bx	lr
 377              	.L40:
 378 000a 00BF     		.align	2
 379              	.L39:
 380 000c 80E200E0 		.word	-536812928
 381              		.cfi_endproc
 382              	.LFE75:
ARM GAS  C:\Users\sela847\AppData\Local\Temp\ccySwTds.s 			page 15


 383              		.size	isr_TC_ClearPending, .-isr_TC_ClearPending
 384              		.text
 385              	.Letext0:
 386              		.file 2 "c:\\program files (x86)\\cypress\\psoc creator\\4.2\\psoc creator\\import\\gnu\\arm\\5.4.
 387              		.file 3 "c:\\program files (x86)\\cypress\\psoc creator\\4.2\\psoc creator\\import\\gnu\\arm\\5.4.
 388              		.file 4 "Generated_Source\\PSoC5/cytypes.h"
 389              		.file 5 "Generated_Source\\PSoC5/core_cm3.h"