ARM GAS  C:\Users\Janit\AppData\Local\Temp\ccEjtrbm.s 			page 1


   1              		.syntax unified
   2              		.cpu cortex-m3
   3              		.fpu softvfp
   4              		.eabi_attribute 20, 1
   5              		.eabi_attribute 21, 1
   6              		.eabi_attribute 23, 3
   7              		.eabi_attribute 24, 1
   8              		.eabi_attribute 25, 1
   9              		.eabi_attribute 26, 1
  10              		.eabi_attribute 30, 6
  11              		.eabi_attribute 34, 1
  12              		.eabi_attribute 18, 4
  13              		.thumb
  14              		.syntax unified
  15              		.file	"main.c"
  16              		.text
  17              	.Ltext0:
  18              		.cfi_sections	.debug_frame
  19              		.global	ts
  20              		.bss
  21              		.type	ts, %object
  22              		.size	ts, 1
  23              	ts:
  24 0000 00       		.space	1
  25              		.global	ts_enc
  26 0001 00       		.align	1
  27              		.type	ts_enc, %object
  28              		.size	ts_enc, 2
  29              	ts_enc:
  30 0002 0000     		.space	2
  31              		.global	ts_update
  32              		.align	1
  33              		.type	ts_update, %object
  34              		.size	ts_update, 2
  35              	ts_update:
  36 0004 0000     		.space	2
  37              		.global	ts_speed
  38              		.align	1
  39              		.type	ts_speed, %object
  40              		.size	ts_speed, 2
  41              	ts_speed:
  42 0006 0000     		.space	2
  43              		.global	ts_display
  44              		.align	1
  45              		.type	ts_display, %object
  46              		.size	ts_display, 2
  47              	ts_display:
  48 0008 0000     		.space	2
  49              		.global	flag_ts_enc
  50              		.type	flag_ts_enc, %object
  51              		.size	flag_ts_enc, 1
  52              	flag_ts_enc:
  53 000a 00       		.space	1
  54              		.global	flag_ts_update
  55              		.type	flag_ts_update, %object
  56              		.size	flag_ts_update, 1
  57              	flag_ts_update:
ARM GAS  C:\Users\Janit\AppData\Local\Temp\ccEjtrbm.s 			page 2


  58 000b 00       		.space	1
  59              		.global	flag_ts_speed
  60              		.type	flag_ts_speed, %object
  61              		.size	flag_ts_speed, 1
  62              	flag_ts_speed:
  63 000c 00       		.space	1
  64              		.global	flag_ts_display
  65              		.type	flag_ts_display, %object
  66              		.size	flag_ts_display, 1
  67              	flag_ts_display:
  68 000d 00       		.space	1
  69              		.global	flag_rx
  70              		.type	flag_rx, %object
  71              		.size	flag_rx, 1
  72              	flag_rx:
  73 000e 00       		.space	1
  74              		.global	flag_packet
  75              		.type	flag_packet, %object
  76              		.size	flag_packet, 1
  77              	flag_packet:
  78 000f 00       		.space	1
  79              		.global	flag_KB_string
  80              		.type	flag_KB_string, %object
  81              		.size	flag_KB_string, 1
  82              	flag_KB_string:
  83 0010 00       		.space	1
  84              		.global	dataready_flag
  85              		.type	dataready_flag, %object
  86              		.size	dataready_flag, 1
  87              	dataready_flag:
  88 0011 00       		.space	1
  89              		.global	flag_rf_transmission_active
  90              		.data
  91              		.type	flag_rf_transmission_active, %object
  92              		.size	flag_rf_transmission_active, 1
  93              	flag_rf_transmission_active:
  94 0000 0A       		.byte	10
  95              		.global	displaystring
  96 0001 000000   		.align	2
  97              		.type	displaystring, %object
  98              		.size	displaystring, 64
  99              	displaystring:
 100 0004 43533330 		.ascii	"CS301 2016\012\000"
 100      31203230 
 100      31360A00 
 101 0010 00000000 		.space	52
 101      00000000 
 101      00000000 
 101      00000000 
 101      00000000 
 102              		.comm	line,64,4
 103              		.comm	entry,64,4
 104              		.comm	usbBuffer,64,4
 105              		.comm	system_state,32,4
 106              		.section	.text.main,"ax",%progbits
 107              		.align	2
 108              		.global	main
ARM GAS  C:\Users\Janit\AppData\Local\Temp\ccEjtrbm.s 			page 3


 109              		.thumb
 110              		.thumb_func
 111              		.type	main, %function
 112              	main:
 113              	.LFB64:
 114              		.file 1 "main.c"
   1:main.c        **** /* ========================================
   2:main.c        ****  * Fully working code: 
   3:main.c        ****  * PWM      : 
   4:main.c        ****  * Encoder  : 
   5:main.c        ****  * ADC      :
   6:main.c        ****  * USB      : port displays speed and position.
   7:main.c        ****  * CMD: "PW xx"
   8:main.c        ****  * Copyright Univ of Auckland, 2016
   9:main.c        ****  * All Rights Reserved
  10:main.c        ****  * UNPUBLISHED, LICENSED SOFTWARE.
  11:main.c        ****  *
  12:main.c        ****  * CONFIDENTIAL AND PROPRIETARY INFORMATION
  13:main.c        ****  * WHICH IS THE PROPERTY OF Univ of Auckland.
  14:main.c        ****  *
  15:main.c        ****  * ========================================
  16:main.c        **** */
  17:main.c        **** #include <stdio.h>
  18:main.c        **** #include <string.h>
  19:main.c        **** #include <stdlib.h>
  20:main.c        **** #include <project.h>
  21:main.c        **** //* ========================================
  22:main.c        **** #include "defines.h"
  23:main.c        **** #include "vars.h"
  24:main.c        **** //* ========================================
  25:main.c        **** //* ==== Our functionsality Includes =======
  26:main.c        **** #include "movement.h"
  27:main.c        **** #include "states.h"
  28:main.c        **** 
  29:main.c        **** //*=========================================
  30:main.c        **** void usbPutString(char *s);
  31:main.c        **** void usbPutChar(char c);
  32:main.c        **** void handle_usb();
  33:main.c        **** //* ========================================
  34:main.c        **** 
  35:main.c        **** int main(){
 115              		.loc 1 35 0
 116              		.cfi_startproc
 117              		@ args = 0, pretend = 0, frame = 0
 118              		@ frame_needed = 1, uses_anonymous_args = 0
 119 0000 80B5     		push	{r7, lr}
 120              		.cfi_def_cfa_offset 8
 121              		.cfi_offset 7, -8
 122              		.cfi_offset 14, -4
 123 0002 00AF     		add	r7, sp, #0
 124              		.cfi_def_cfa_register 7
  36:main.c        ****     
  37:main.c        **** // --------------------------------    
  38:main.c        **** // ----- INITIALIZATIONS ----------
  39:main.c        ****         CYGlobalIntEnable;   
 125              		.loc 1 39 0
 126              		.syntax unified
ARM GAS  C:\Users\Janit\AppData\Local\Temp\ccEjtrbm.s 			page 4


 127              	@ 39 "main.c" 1
 128 0004 62B6     		CPSIE   i
 129              	@ 0 "" 2
  40:main.c        ****     
  41:main.c        ****     M2_INV_Write(1);
 130              		.loc 1 41 0
 131              		.thumb
 132              		.syntax unified
 133 0006 0120     		movs	r0, #1
 134 0008 FFF7FEFF 		bl	M2_INV_Write
  42:main.c        ****     
  43:main.c        ****     //PWM1
  44:main.c        ****     PWM_1_Start();
 135              		.loc 1 44 0
 136 000c FFF7FEFF 		bl	PWM_1_Start
  45:main.c        ****     //PWM2
  46:main.c        ****     PWM_2_Start();   
 137              		.loc 1 46 0
 138 0010 FFF7FEFF 		bl	PWM_2_Start
  47:main.c        ****     
  48:main.c        ****     controlWheels(STOP, STOP);
 139              		.loc 1 48 0
 140 0014 3221     		movs	r1, #50
 141 0016 3220     		movs	r0, #50
 142 0018 FFF7FEFF 		bl	controlWheels
 143              	.L21:
  49:main.c        ****     
  50:main.c        ****     for(;;){ 
  51:main.c        ****         //stop all
  52:main.c        ****         if (Q1_Read() && Q2_Read() && Q3_Read() && Q4_Read() && Q5_Read() && Q6_Read() && Q7_Read()
 144              		.loc 1 52 0
 145 001c FFF7FEFF 		bl	Q1_Read
 146 0020 0346     		mov	r3, r0
 147 0022 002B     		cmp	r3, #0
 148 0024 22D0     		beq	.L2
 149              		.loc 1 52 0 is_stmt 0 discriminator 1
 150 0026 FFF7FEFF 		bl	Q2_Read
 151 002a 0346     		mov	r3, r0
 152 002c 002B     		cmp	r3, #0
 153 002e 1DD0     		beq	.L2
 154              		.loc 1 52 0 discriminator 2
 155 0030 FFF7FEFF 		bl	Q3_Read
 156 0034 0346     		mov	r3, r0
 157 0036 002B     		cmp	r3, #0
 158 0038 18D0     		beq	.L2
 159              		.loc 1 52 0 discriminator 3
 160 003a FFF7FEFF 		bl	Q4_Read
 161 003e 0346     		mov	r3, r0
 162 0040 002B     		cmp	r3, #0
 163 0042 13D0     		beq	.L2
 164              		.loc 1 52 0 discriminator 4
 165 0044 FFF7FEFF 		bl	Q5_Read
 166 0048 0346     		mov	r3, r0
 167 004a 002B     		cmp	r3, #0
 168 004c 0ED0     		beq	.L2
 169              		.loc 1 52 0 discriminator 5
 170 004e FFF7FEFF 		bl	Q6_Read
ARM GAS  C:\Users\Janit\AppData\Local\Temp\ccEjtrbm.s 			page 5


 171 0052 0346     		mov	r3, r0
 172 0054 002B     		cmp	r3, #0
 173 0056 09D0     		beq	.L2
 174              		.loc 1 52 0 discriminator 6
 175 0058 FFF7FEFF 		bl	Q7_Read
 176 005c 0346     		mov	r3, r0
 177 005e 002B     		cmp	r3, #0
 178 0060 04D0     		beq	.L2
  53:main.c        ****             controlWheels(STOP, STOP);
 179              		.loc 1 53 0 is_stmt 1
 180 0062 3221     		movs	r1, #50
 181 0064 3220     		movs	r0, #50
 182 0066 FFF7FEFF 		bl	controlWheels
 183 006a A2E0     		b	.L3
 184              	.L2:
  54:main.c        ****         }
  55:main.c        ****         else if (Q1_Read() && Q2_Read() && Q3_Read()){
 185              		.loc 1 55 0
 186 006c FFF7FEFF 		bl	Q1_Read
 187 0070 0346     		mov	r3, r0
 188 0072 002B     		cmp	r3, #0
 189 0074 4BD0     		beq	.L4
 190              		.loc 1 55 0 is_stmt 0 discriminator 1
 191 0076 FFF7FEFF 		bl	Q2_Read
 192 007a 0346     		mov	r3, r0
 193 007c 002B     		cmp	r3, #0
 194 007e 46D0     		beq	.L4
 195              		.loc 1 55 0 discriminator 2
 196 0080 FFF7FEFF 		bl	Q3_Read
 197 0084 0346     		mov	r3, r0
 198 0086 002B     		cmp	r3, #0
 199 0088 41D0     		beq	.L4
  56:main.c        ****             LED_Write(0);
 200              		.loc 1 56 0 is_stmt 1
 201 008a 0020     		movs	r0, #0
 202 008c FFF7FEFF 		bl	LED_Write
  57:main.c        ****             controlWheels(64, MEDIUM_FORWARD);
 203              		.loc 1 57 0
 204 0090 4121     		movs	r1, #65
 205 0092 4020     		movs	r0, #64
 206 0094 FFF7FEFF 		bl	controlWheels
  58:main.c        ****             
  59:main.c        ****             //If a left turn is detected
  60:main.c        ****             if (!Q5_Read()){
 207              		.loc 1 60 0
 208 0098 FFF7FEFF 		bl	Q5_Read
 209 009c 0346     		mov	r3, r0
 210 009e 002B     		cmp	r3, #0
 211 00a0 18D1     		bne	.L5
 212              	.L9:
  61:main.c        ****                 while(TRUE){
  62:main.c        ****                     //if (!Q3_Read() || (!Q5_Read() && Q6_Read() && !Q2_Read())){
  63:main.c        ****                     if (!Q2_Read() || !Q3_Read()){
 213              		.loc 1 63 0
 214 00a2 FFF7FEFF 		bl	Q2_Read
 215 00a6 0346     		mov	r3, r0
 216 00a8 002B     		cmp	r3, #0
ARM GAS  C:\Users\Janit\AppData\Local\Temp\ccEjtrbm.s 			page 6


 217 00aa 04D0     		beq	.L6
 218              		.loc 1 63 0 is_stmt 0 discriminator 1
 219 00ac FFF7FEFF 		bl	Q3_Read
 220 00b0 0346     		mov	r3, r0
 221 00b2 002B     		cmp	r3, #0
 222 00b4 09D1     		bne	.L7
 223              	.L6:
  64:main.c        ****                         controlWheels(STOP, STOP);
 224              		.loc 1 64 0 is_stmt 1
 225 00b6 3221     		movs	r1, #50
 226 00b8 3220     		movs	r0, #50
 227 00ba FFF7FEFF 		bl	controlWheels
  65:main.c        ****                         break;
 228              		.loc 1 65 0
 229 00be 00BF     		nop
  66:main.c        ****                     }
  67:main.c        ****                     controlWheels(MEDIUM_REVERSE, MEDIUM_FORWARD);
  68:main.c        ****                 }
  69:main.c        ****                 controlWheels(64, MEDIUM_FORWARD);
 230              		.loc 1 69 0
 231 00c0 4121     		movs	r1, #65
 232 00c2 4020     		movs	r0, #64
 233 00c4 FFF7FEFF 		bl	controlWheels
  60:main.c        ****                 while(TRUE){
 234              		.loc 1 60 0
 235 00c8 70E0     		b	.L22
 236              	.L7:
  67:main.c        ****                 }
 237              		.loc 1 67 0
 238 00ca 4121     		movs	r1, #65
 239 00cc 2320     		movs	r0, #35
 240 00ce FFF7FEFF 		bl	controlWheels
  68:main.c        ****                 controlWheels(64, MEDIUM_FORWARD);
 241              		.loc 1 68 0
 242 00d2 E6E7     		b	.L9
 243              	.L5:
  70:main.c        ****                 //controlWheels(MEDIUM_REVERSE, MEDIUM_FORWARD);
  71:main.c        ****             }
  72:main.c        ****             //If a right turn is detected
  73:main.c        ****             else if (!Q4_Read()){
 244              		.loc 1 73 0
 245 00d4 FFF7FEFF 		bl	Q4_Read
 246 00d8 0346     		mov	r3, r0
 247 00da 002B     		cmp	r3, #0
 248 00dc 66D1     		bne	.L22
 249              	.L14:
  74:main.c        ****                 while(TRUE){
  75:main.c        ****                     controlWheels(64, MEDIUM_REVERSE);
 250              		.loc 1 75 0
 251 00de 2321     		movs	r1, #35
 252 00e0 4020     		movs	r0, #64
 253 00e2 FFF7FEFF 		bl	controlWheels
  76:main.c        ****                     if (!Q2_Read() || !Q1_Read()){
 254              		.loc 1 76 0
 255 00e6 FFF7FEFF 		bl	Q2_Read
 256 00ea 0346     		mov	r3, r0
 257 00ec 002B     		cmp	r3, #0
ARM GAS  C:\Users\Janit\AppData\Local\Temp\ccEjtrbm.s 			page 7


 258 00ee 04D0     		beq	.L11
 259              		.loc 1 76 0 is_stmt 0 discriminator 1
 260 00f0 FFF7FEFF 		bl	Q1_Read
 261 00f4 0346     		mov	r3, r0
 262 00f6 002B     		cmp	r3, #0
 263 00f8 F1D1     		bne	.L14
 264              	.L11:
  77:main.c        ****                     //if (!Q1_Read() || ((!Q4_Read()) && Q6_Read() && !Q2_Read())){
  78:main.c        ****                         controlWheels(STOP, STOP);
 265              		.loc 1 78 0 is_stmt 1
 266 00fa 3221     		movs	r1, #50
 267 00fc 3220     		movs	r0, #50
 268 00fe FFF7FEFF 		bl	controlWheels
  79:main.c        ****                         break;
 269              		.loc 1 79 0
 270 0102 00BF     		nop
  80:main.c        ****                     }
  81:main.c        ****                 }
  82:main.c        ****                 controlWheels(64, MEDIUM_FORWARD);
 271              		.loc 1 82 0
 272 0104 4121     		movs	r1, #65
 273 0106 4020     		movs	r0, #64
 274 0108 FFF7FEFF 		bl	controlWheels
  60:main.c        ****                 while(TRUE){
 275              		.loc 1 60 0
 276 010c 4EE0     		b	.L22
 277              	.L4:
  83:main.c        ****                 //controlWheels(MEDIUM_FORWARD, MEDIUM_REVERSE);
  84:main.c        ****             }
  85:main.c        ****         }
  86:main.c        ****         else if (!(Q1_Read() && Q2_Read() && Q3_Read())) {
 278              		.loc 1 86 0
 279 010e FFF7FEFF 		bl	Q1_Read
 280 0112 0346     		mov	r3, r0
 281 0114 002B     		cmp	r3, #0
 282 0116 0AD0     		beq	.L15
 283              		.loc 1 86 0 is_stmt 0 discriminator 1
 284 0118 FFF7FEFF 		bl	Q2_Read
 285 011c 0346     		mov	r3, r0
 286 011e 002B     		cmp	r3, #0
 287 0120 05D0     		beq	.L15
 288              		.loc 1 86 0 discriminator 2
 289 0122 FFF7FEFF 		bl	Q3_Read
 290 0126 0346     		mov	r3, r0
 291 0128 002B     		cmp	r3, #0
 292 012a 7FF477AF 		bne	.L21
 293              	.L15:
  87:main.c        ****             controlWheels(64, MEDIUM_FORWARD);
 294              		.loc 1 87 0 is_stmt 1
 295 012e 4121     		movs	r1, #65
 296 0130 4020     		movs	r0, #64
 297 0132 FFF7FEFF 		bl	controlWheels
  88:main.c        ****             LED_Write(1);
 298              		.loc 1 88 0
 299 0136 0120     		movs	r0, #1
 300 0138 FFF7FEFF 		bl	LED_Write
  89:main.c        ****             // While the line is not in between the four surrounding sensors
ARM GAS  C:\Users\Janit\AppData\Local\Temp\ccEjtrbm.s 			page 8


  90:main.c        ****             // run correction code
  91:main.c        ****             while ((Q1_Read() && Q2_Read()) || (Q2_Read() && Q3_Read())){
 301              		.loc 1 91 0
 302 013c 20E0     		b	.L16
 303              	.L20:
  92:main.c        ****                 if (Q1_Read() && Q2_Read() && Q3_Read()){
 304              		.loc 1 92 0
 305 013e FFF7FEFF 		bl	Q1_Read
 306 0142 0346     		mov	r3, r0
 307 0144 002B     		cmp	r3, #0
 308 0146 09D0     		beq	.L17
 309              		.loc 1 92 0 is_stmt 0 discriminator 1
 310 0148 FFF7FEFF 		bl	Q2_Read
 311 014c 0346     		mov	r3, r0
 312 014e 002B     		cmp	r3, #0
 313 0150 04D0     		beq	.L17
 314              		.loc 1 92 0 discriminator 2
 315 0152 FFF7FEFF 		bl	Q3_Read
 316 0156 0346     		mov	r3, r0
 317 0158 002B     		cmp	r3, #0
 318 015a 29D1     		bne	.L23
 319              	.L17:
  93:main.c        ****                     break;
  94:main.c        ****                 }
  95:main.c        ****                 // right correction
  96:main.c        ****                 if (!Q3_Read()){
 320              		.loc 1 96 0 is_stmt 1
 321 015c FFF7FEFF 		bl	Q3_Read
 322 0160 0346     		mov	r3, r0
 323 0162 002B     		cmp	r3, #0
 324 0164 03D1     		bne	.L18
  97:main.c        ****                         controlWheels(MEDIUM_FORWARD, SLOW_FORWARD);
 325              		.loc 1 97 0
 326 0166 3721     		movs	r1, #55
 327 0168 4120     		movs	r0, #65
 328 016a FFF7FEFF 		bl	controlWheels
 329              	.L18:
  98:main.c        ****                 }
  99:main.c        ****                 // left correction
 100:main.c        ****                 if (!Q1_Read()){
 330              		.loc 1 100 0
 331 016e FFF7FEFF 		bl	Q1_Read
 332 0172 0346     		mov	r3, r0
 333 0174 002B     		cmp	r3, #0
 334 0176 03D1     		bne	.L16
 101:main.c        ****                     controlWheels(SLOW_FORWARD, MEDIUM_FORWARD);  
 335              		.loc 1 101 0
 336 0178 4121     		movs	r1, #65
 337 017a 3720     		movs	r0, #55
 338 017c FFF7FEFF 		bl	controlWheels
 339              	.L16:
  91:main.c        ****                 if (Q1_Read() && Q2_Read() && Q3_Read()){
 340              		.loc 1 91 0
 341 0180 FFF7FEFF 		bl	Q1_Read
 342 0184 0346     		mov	r3, r0
 343 0186 002B     		cmp	r3, #0
 344 0188 04D0     		beq	.L19
ARM GAS  C:\Users\Janit\AppData\Local\Temp\ccEjtrbm.s 			page 9


  91:main.c        ****                 if (Q1_Read() && Q2_Read() && Q3_Read()){
 345              		.loc 1 91 0 is_stmt 0 discriminator 1
 346 018a FFF7FEFF 		bl	Q2_Read
 347 018e 0346     		mov	r3, r0
 348 0190 002B     		cmp	r3, #0
 349 0192 D4D1     		bne	.L20
 350              	.L19:
  91:main.c        ****                 if (Q1_Read() && Q2_Read() && Q3_Read()){
 351              		.loc 1 91 0 discriminator 3
 352 0194 FFF7FEFF 		bl	Q2_Read
 353 0198 0346     		mov	r3, r0
 354 019a 002B     		cmp	r3, #0
 355 019c 3FF43EAF 		beq	.L21
  91:main.c        ****                 if (Q1_Read() && Q2_Read() && Q3_Read()){
 356              		.loc 1 91 0 discriminator 4
 357 01a0 FFF7FEFF 		bl	Q3_Read
 358 01a4 0346     		mov	r3, r0
 359 01a6 002B     		cmp	r3, #0
 360 01a8 C9D1     		bne	.L20
 361 01aa 37E7     		b	.L21
 362              	.L22:
  60:main.c        ****                 while(TRUE){
 363              		.loc 1 60 0 is_stmt 1
 364 01ac 00BF     		nop
 365 01ae 35E7     		b	.L21
 366              	.L23:
  93:main.c        ****                 }
 367              		.loc 1 93 0
 368 01b0 00BF     		nop
 369              	.L3:
 102:main.c        ****                 }
 103:main.c        ****             }
 104:main.c        ****         }
 105:main.c        ****     }  
 370              		.loc 1 105 0 discriminator 1
 371 01b2 33E7     		b	.L21
 372              		.cfi_endproc
 373              	.LFE64:
 374              		.size	main, .-main
 375              		.section	.text.usbPutString,"ax",%progbits
 376              		.align	2
 377              		.global	usbPutString
 378              		.thumb
 379              		.thumb_func
 380              		.type	usbPutString, %function
 381              	usbPutString:
 382              	.LFB65:
 106:main.c        **** }//End main
 107:main.c        **** 
 108:main.c        **** 
 109:main.c        **** 
 110:main.c        **** //* ========================================
 111:main.c        **** void usbPutString(char *s)
 112:main.c        **** {
 383              		.loc 1 112 0
 384              		.cfi_startproc
 385              		@ args = 0, pretend = 0, frame = 8
ARM GAS  C:\Users\Janit\AppData\Local\Temp\ccEjtrbm.s 			page 10


 386              		@ frame_needed = 1, uses_anonymous_args = 0
 387 0000 80B5     		push	{r7, lr}
 388              		.cfi_def_cfa_offset 8
 389              		.cfi_offset 7, -8
 390              		.cfi_offset 14, -4
 391 0002 82B0     		sub	sp, sp, #8
 392              		.cfi_def_cfa_offset 16
 393 0004 00AF     		add	r7, sp, #0
 394              		.cfi_def_cfa_register 7
 395 0006 7860     		str	r0, [r7, #4]
 113:main.c        **** // !! Assumes that *s is a string with allocated space >=64 chars     
 114:main.c        **** //  Since USB implementation retricts data packets to 64 chars, this function truncates the
 115:main.c        **** //  length to 62 char (63rd char is a '!')
 116:main.c        **** 
 117:main.c        **** #ifdef USE_USB     
 118:main.c        ****     while (USBUART_CDCIsReady() == 0);
 396              		.loc 1 118 0
 397 0008 00BF     		nop
 398              	.L25:
 399              		.loc 1 118 0 is_stmt 0 discriminator 1
 400 000a FFF7FEFF 		bl	USBUART_CDCIsReady
 401 000e 0346     		mov	r3, r0
 402 0010 002B     		cmp	r3, #0
 403 0012 FAD0     		beq	.L25
 119:main.c        ****     s[63]='\0';
 404              		.loc 1 119 0 is_stmt 1
 405 0014 7B68     		ldr	r3, [r7, #4]
 406 0016 3F33     		adds	r3, r3, #63
 407 0018 0022     		movs	r2, #0
 408 001a 1A70     		strb	r2, [r3]
 120:main.c        ****     s[62]='!';
 409              		.loc 1 120 0
 410 001c 7B68     		ldr	r3, [r7, #4]
 411 001e 3E33     		adds	r3, r3, #62
 412 0020 2122     		movs	r2, #33
 413 0022 1A70     		strb	r2, [r3]
 121:main.c        ****     USBUART_PutData((uint8*)s,strlen(s));
 414              		.loc 1 121 0
 415 0024 7868     		ldr	r0, [r7, #4]
 416 0026 FFF7FEFF 		bl	strlen
 417 002a 0346     		mov	r3, r0
 418 002c 9BB2     		uxth	r3, r3
 419 002e 1946     		mov	r1, r3
 420 0030 7868     		ldr	r0, [r7, #4]
 421 0032 FFF7FEFF 		bl	USBUART_PutData
 122:main.c        **** #endif
 123:main.c        **** }
 422              		.loc 1 123 0
 423 0036 00BF     		nop
 424 0038 0837     		adds	r7, r7, #8
 425              		.cfi_def_cfa_offset 8
 426 003a BD46     		mov	sp, r7
 427              		.cfi_def_cfa_register 13
 428              		@ sp needed
 429 003c 80BD     		pop	{r7, pc}
 430              		.cfi_endproc
 431              	.LFE65:
ARM GAS  C:\Users\Janit\AppData\Local\Temp\ccEjtrbm.s 			page 11


 432              		.size	usbPutString, .-usbPutString
 433 003e 00BF     		.section	.text.usbPutChar,"ax",%progbits
 434              		.align	2
 435              		.global	usbPutChar
 436              		.thumb
 437              		.thumb_func
 438              		.type	usbPutChar, %function
 439              	usbPutChar:
 440              	.LFB66:
 124:main.c        **** //* ========================================
 125:main.c        **** void usbPutChar(char c)
 126:main.c        **** {
 441              		.loc 1 126 0
 442              		.cfi_startproc
 443              		@ args = 0, pretend = 0, frame = 8
 444              		@ frame_needed = 1, uses_anonymous_args = 0
 445 0000 80B5     		push	{r7, lr}
 446              		.cfi_def_cfa_offset 8
 447              		.cfi_offset 7, -8
 448              		.cfi_offset 14, -4
 449 0002 82B0     		sub	sp, sp, #8
 450              		.cfi_def_cfa_offset 16
 451 0004 00AF     		add	r7, sp, #0
 452              		.cfi_def_cfa_register 7
 453 0006 0346     		mov	r3, r0
 454 0008 FB71     		strb	r3, [r7, #7]
 127:main.c        **** #ifdef USE_USB     
 128:main.c        ****     while (USBUART_CDCIsReady() == 0);
 455              		.loc 1 128 0
 456 000a 00BF     		nop
 457              	.L27:
 458              		.loc 1 128 0 is_stmt 0 discriminator 1
 459 000c FFF7FEFF 		bl	USBUART_CDCIsReady
 460 0010 0346     		mov	r3, r0
 461 0012 002B     		cmp	r3, #0
 462 0014 FAD0     		beq	.L27
 129:main.c        ****     USBUART_PutChar(c);
 463              		.loc 1 129 0 is_stmt 1
 464 0016 FB79     		ldrb	r3, [r7, #7]	@ zero_extendqisi2
 465 0018 1846     		mov	r0, r3
 466 001a FFF7FEFF 		bl	USBUART_PutChar
 130:main.c        **** #endif    
 131:main.c        **** }
 467              		.loc 1 131 0
 468 001e 00BF     		nop
 469 0020 0837     		adds	r7, r7, #8
 470              		.cfi_def_cfa_offset 8
 471 0022 BD46     		mov	sp, r7
 472              		.cfi_def_cfa_register 13
 473              		@ sp needed
 474 0024 80BD     		pop	{r7, pc}
 475              		.cfi_endproc
 476              	.LFE66:
 477              		.size	usbPutChar, .-usbPutChar
 478 0026 00BF     		.text
 479              	.Letext0:
 480              		.file 2 "c:\\program files (x86)\\cypress\\psoc creator\\4.2\\psoc creator\\import\\gnu\\arm\\5.4.
ARM GAS  C:\Users\Janit\AppData\Local\Temp\ccEjtrbm.s 			page 12


 481              		.file 3 "c:\\program files (x86)\\cypress\\psoc creator\\4.2\\psoc creator\\import\\gnu\\arm\\5.4.
 482              		.file 4 "Generated_Source\\PSoC5/cytypes.h"
 483              		.file 5 "vars.h"
 484              		.file 6 "Generated_Source\\PSoC5/core_cm3.h"