ARM GAS  C:\Users\rsef899\AppData\Local\Temp\cc8w9RAA.s 			page 1


   1              		.syntax unified
   2              		.cpu cortex-m3
   3              		.fpu softvfp
   4              		.eabi_attribute 20, 1
   5              		.eabi_attribute 21, 1
   6              		.eabi_attribute 23, 3
   7              		.eabi_attribute 24, 1
   8              		.eabi_attribute 25, 1
   9              		.eabi_attribute 26, 1
  10              		.eabi_attribute 30, 6
  11              		.eabi_attribute 34, 1
  12              		.eabi_attribute 18, 4
  13              		.thumb
  14              		.syntax unified
  15              		.file	"main.c"
  16              		.text
  17              	.Ltext0:
  18              		.cfi_sections	.debug_frame
  19              		.global	ts
  20              		.bss
  21              		.type	ts, %object
  22              		.size	ts, 1
  23              	ts:
  24 0000 00       		.space	1
  25              		.global	ts_enc
  26 0001 00       		.align	1
  27              		.type	ts_enc, %object
  28              		.size	ts_enc, 2
  29              	ts_enc:
  30 0002 0000     		.space	2
  31              		.global	ts_update
  32              		.align	1
  33              		.type	ts_update, %object
  34              		.size	ts_update, 2
  35              	ts_update:
  36 0004 0000     		.space	2
  37              		.global	ts_speed
  38              		.align	1
  39              		.type	ts_speed, %object
  40              		.size	ts_speed, 2
  41              	ts_speed:
  42 0006 0000     		.space	2
  43              		.global	ts_display
  44              		.align	1
  45              		.type	ts_display, %object
  46              		.size	ts_display, 2
  47              	ts_display:
  48 0008 0000     		.space	2
  49              		.global	flag_ts_enc
  50              		.type	flag_ts_enc, %object
  51              		.size	flag_ts_enc, 1
  52              	flag_ts_enc:
  53 000a 00       		.space	1
  54              		.global	flag_ts_update
  55              		.type	flag_ts_update, %object
  56              		.size	flag_ts_update, 1
  57              	flag_ts_update:
ARM GAS  C:\Users\rsef899\AppData\Local\Temp\cc8w9RAA.s 			page 2


  58 000b 00       		.space	1
  59              		.global	flag_ts_speed
  60              		.type	flag_ts_speed, %object
  61              		.size	flag_ts_speed, 1
  62              	flag_ts_speed:
  63 000c 00       		.space	1
  64              		.global	flag_ts_display
  65              		.type	flag_ts_display, %object
  66              		.size	flag_ts_display, 1
  67              	flag_ts_display:
  68 000d 00       		.space	1
  69              		.global	flag_rx
  70              		.type	flag_rx, %object
  71              		.size	flag_rx, 1
  72              	flag_rx:
  73 000e 00       		.space	1
  74              		.global	flag_packet
  75              		.type	flag_packet, %object
  76              		.size	flag_packet, 1
  77              	flag_packet:
  78 000f 00       		.space	1
  79              		.global	flag_KB_string
  80              		.type	flag_KB_string, %object
  81              		.size	flag_KB_string, 1
  82              	flag_KB_string:
  83 0010 00       		.space	1
  84              		.global	dataready_flag
  85              		.type	dataready_flag, %object
  86              		.size	dataready_flag, 1
  87              	dataready_flag:
  88 0011 00       		.space	1
  89              		.global	flag_rf_transmission_active
  90              		.data
  91              		.type	flag_rf_transmission_active, %object
  92              		.size	flag_rf_transmission_active, 1
  93              	flag_rf_transmission_active:
  94 0000 0A       		.byte	10
  95              		.global	displaystring
  96 0001 000000   		.align	2
  97              		.type	displaystring, %object
  98              		.size	displaystring, 64
  99              	displaystring:
 100 0004 43533330 		.ascii	"CS301 2016\012\000"
 100      31203230 
 100      31360A00 
 101 0010 00000000 		.space	52
 101      00000000 
 101      00000000 
 101      00000000 
 101      00000000 
 102              		.comm	line,64,4
 103              		.comm	entry,64,4
 104              		.comm	usbBuffer,64,4
 105              		.comm	system_state,32,4
 106              		.section	.text.main,"ax",%progbits
 107              		.align	2
 108              		.global	main
ARM GAS  C:\Users\rsef899\AppData\Local\Temp\cc8w9RAA.s 			page 3


 109              		.thumb
 110              		.thumb_func
 111              		.type	main, %function
 112              	main:
 113              	.LFB64:
 114              		.file 1 "main.c"
   1:main.c        **** /* ========================================
   2:main.c        ****  * Fully working code: 
   3:main.c        ****  * PWM      : 
   4:main.c        ****  * Encoder  : 
   5:main.c        ****  * ADC      :
   6:main.c        ****  * USB      : port displays speed and position.
   7:main.c        ****  * CMD: "PW xx"
   8:main.c        ****  * Copyright Univ of Auckland, 2016
   9:main.c        ****  * All Rights Reserved
  10:main.c        ****  * UNPUBLISHED, LICENSED SOFTWARE.
  11:main.c        ****  *
  12:main.c        ****  * CONFIDENTIAL AND PROPRIETARY INFORMATION
  13:main.c        ****  * WHICH IS THE PROPERTY OF Univ of Auckland.
  14:main.c        ****  *
  15:main.c        ****  * ========================================
  16:main.c        **** */
  17:main.c        **** #include <stdio.h>
  18:main.c        **** #include <string.h>
  19:main.c        **** #include <stdlib.h>
  20:main.c        **** #include <project.h>
  21:main.c        **** //* ========================================
  22:main.c        **** #include "defines.h"
  23:main.c        **** #include "vars.h"
  24:main.c        **** //* ========================================
  25:main.c        **** void usbPutString(char *s);
  26:main.c        **** void usbPutChar(char c);
  27:main.c        **** void handle_usb();
  28:main.c        **** //* ========================================
  29:main.c        **** void changeDutyCycle(char* dutyValue);
  30:main.c        **** 
  31:main.c        **** 
  32:main.c        **** int main()
  33:main.c        **** {
 115              		.loc 1 33 0
 116              		.cfi_startproc
 117              		@ args = 0, pretend = 0, frame = 0
 118              		@ frame_needed = 1, uses_anonymous_args = 0
 119 0000 80B5     		push	{r7, lr}
 120              		.cfi_def_cfa_offset 8
 121              		.cfi_offset 7, -8
 122              		.cfi_offset 14, -4
 123 0002 00AF     		add	r7, sp, #0
 124              		.cfi_def_cfa_register 7
  34:main.c        ****     
  35:main.c        **** 
  36:main.c        **** // --------------------------------    
  37:main.c        **** // ----- INITIALIZATIONS ----------
  38:main.c        ****     CYGlobalIntEnable;
 125              		.loc 1 38 0
 126              		.syntax unified
 127              	@ 38 "main.c" 1
ARM GAS  C:\Users\rsef899\AppData\Local\Temp\cc8w9RAA.s 			page 4


 128 0004 62B6     		CPSIE   i
 129              	@ 0 "" 2
  39:main.c        **** 
  40:main.c        **** // ------USB SETUP ----------------    
  41:main.c        **** #ifdef USE_USB    
  42:main.c        ****     USBUART_Start(0,USBUART_5V_OPERATION);
 130              		.loc 1 42 0
 131              		.thumb
 132              		.syntax unified
 133 0006 0121     		movs	r1, #1
 134 0008 0020     		movs	r0, #0
 135 000a FFF7FEFF 		bl	USBUART_Start
  43:main.c        **** #endif        
  44:main.c        ****         
  45:main.c        ****     RF_BT_SELECT_Write(0);
 136              		.loc 1 45 0
 137 000e 0020     		movs	r0, #0
 138 0010 FFF7FEFF 		bl	RF_BT_SELECT_Write
  46:main.c        **** 
  47:main.c        ****     usbPutString(displaystring);
 139              		.loc 1 47 0
 140 0014 0A48     		ldr	r0, .L4
 141 0016 FFF7FEFF 		bl	usbPutString
  48:main.c        ****     
  49:main.c        ****     //PWM
  50:main.c        ****     PWM_1_Start();
 142              		.loc 1 50 0
 143 001a FFF7FEFF 		bl	PWM_1_Start
 144              	.L3:
  51:main.c        ****     
  52:main.c        ****     
  53:main.c        ****     for(;;)
  54:main.c        ****     {
  55:main.c        ****         /* Place your application code here. */
  56:main.c        ****         handle_usb();
 145              		.loc 1 56 0
 146 001e FFF7FEFF 		bl	handle_usb
  57:main.c        ****         if (flag_KB_string == 1)
 147              		.loc 1 57 0
 148 0022 084B     		ldr	r3, .L4+4
 149 0024 1B78     		ldrb	r3, [r3]	@ zero_extendqisi2
 150 0026 012B     		cmp	r3, #1
 151 0028 F9D1     		bne	.L3
  58:main.c        ****         {
  59:main.c        ****             usbPutString(line);
 152              		.loc 1 59 0
 153 002a 0748     		ldr	r0, .L4+8
 154 002c FFF7FEFF 		bl	usbPutString
  60:main.c        ****             flag_KB_string = 0;
 155              		.loc 1 60 0
 156 0030 044B     		ldr	r3, .L4+4
 157 0032 0022     		movs	r2, #0
 158 0034 1A70     		strb	r2, [r3]
  61:main.c        ****             changeDutyCycle(line);
 159              		.loc 1 61 0
 160 0036 0448     		ldr	r0, .L4+8
 161 0038 FFF7FEFF 		bl	changeDutyCycle
ARM GAS  C:\Users\rsef899\AppData\Local\Temp\cc8w9RAA.s 			page 5


  62:main.c        ****         }        
  63:main.c        ****     }  
 162              		.loc 1 63 0
 163 003c EFE7     		b	.L3
 164              	.L5:
 165 003e 00BF     		.align	2
 166              	.L4:
 167 0040 00000000 		.word	displaystring
 168 0044 00000000 		.word	flag_KB_string
 169 0048 00000000 		.word	line
 170              		.cfi_endproc
 171              	.LFE64:
 172              		.size	main, .-main
 173              		.section	.text.changeDutyCycle,"ax",%progbits
 174              		.align	2
 175              		.global	changeDutyCycle
 176              		.thumb
 177              		.thumb_func
 178              		.type	changeDutyCycle, %function
 179              	changeDutyCycle:
 180              	.LFB65:
  64:main.c        **** }
  65:main.c        **** 
  66:main.c        **** void changeDutyCycle(char* dutyValue){
 181              		.loc 1 66 0
 182              		.cfi_startproc
 183              		@ args = 0, pretend = 0, frame = 8
 184              		@ frame_needed = 1, uses_anonymous_args = 0
 185 0000 80B5     		push	{r7, lr}
 186              		.cfi_def_cfa_offset 8
 187              		.cfi_offset 7, -8
 188              		.cfi_offset 14, -4
 189 0002 82B0     		sub	sp, sp, #8
 190              		.cfi_def_cfa_offset 16
 191 0004 00AF     		add	r7, sp, #0
 192              		.cfi_def_cfa_register 7
 193 0006 7860     		str	r0, [r7, #4]
  67:main.c        ****     PWM_1_WriteCompare((uint8_t)(255*(atoi(dutyValue))/100));
 194              		.loc 1 67 0
 195 0008 7868     		ldr	r0, [r7, #4]
 196 000a FFF7FEFF 		bl	atoi
 197 000e 0246     		mov	r2, r0
 198 0010 1346     		mov	r3, r2
 199 0012 1B02     		lsls	r3, r3, #8
 200 0014 9B1A     		subs	r3, r3, r2
 201 0016 074A     		ldr	r2, .L7
 202 0018 82FB0312 		smull	r1, r2, r2, r3
 203 001c 5211     		asrs	r2, r2, #5
 204 001e DB17     		asrs	r3, r3, #31
 205 0020 D31A     		subs	r3, r2, r3
 206 0022 DBB2     		uxtb	r3, r3
 207 0024 1846     		mov	r0, r3
 208 0026 FFF7FEFF 		bl	PWM_1_WriteCompare
  68:main.c        **** 
  69:main.c        **** }
 209              		.loc 1 69 0
 210 002a 00BF     		nop
ARM GAS  C:\Users\rsef899\AppData\Local\Temp\cc8w9RAA.s 			page 6


 211 002c 0837     		adds	r7, r7, #8
 212              		.cfi_def_cfa_offset 8
 213 002e BD46     		mov	sp, r7
 214              		.cfi_def_cfa_register 13
 215              		@ sp needed
 216 0030 80BD     		pop	{r7, pc}
 217              	.L8:
 218 0032 00BF     		.align	2
 219              	.L7:
 220 0034 1F85EB51 		.word	1374389535
 221              		.cfi_endproc
 222              	.LFE65:
 223              		.size	changeDutyCycle, .-changeDutyCycle
 224              		.section	.text.usbPutString,"ax",%progbits
 225              		.align	2
 226              		.global	usbPutString
 227              		.thumb
 228              		.thumb_func
 229              		.type	usbPutString, %function
 230              	usbPutString:
 231              	.LFB66:
  70:main.c        **** 
  71:main.c        **** 
  72:main.c        **** 
  73:main.c        **** //* ========================================
  74:main.c        **** void usbPutString(char *s)
  75:main.c        **** {
 232              		.loc 1 75 0
 233              		.cfi_startproc
 234              		@ args = 0, pretend = 0, frame = 8
 235              		@ frame_needed = 1, uses_anonymous_args = 0
 236 0000 80B5     		push	{r7, lr}
 237              		.cfi_def_cfa_offset 8
 238              		.cfi_offset 7, -8
 239              		.cfi_offset 14, -4
 240 0002 82B0     		sub	sp, sp, #8
 241              		.cfi_def_cfa_offset 16
 242 0004 00AF     		add	r7, sp, #0
 243              		.cfi_def_cfa_register 7
 244 0006 7860     		str	r0, [r7, #4]
  76:main.c        **** // !! Assumes that *s is a string with allocated space >=64 chars     
  77:main.c        **** //  Since USB implementation retricts data packets to 64 chars, this function truncates the
  78:main.c        **** //  length to 62 char (63rd char is a '!')
  79:main.c        **** 
  80:main.c        **** #ifdef USE_USB     
  81:main.c        ****     while (USBUART_CDCIsReady() == 0);
 245              		.loc 1 81 0
 246 0008 00BF     		nop
 247              	.L10:
 248              		.loc 1 81 0 is_stmt 0 discriminator 1
 249 000a FFF7FEFF 		bl	USBUART_CDCIsReady
 250 000e 0346     		mov	r3, r0
 251 0010 002B     		cmp	r3, #0
 252 0012 FAD0     		beq	.L10
  82:main.c        ****     s[63]='\0';
 253              		.loc 1 82 0 is_stmt 1
 254 0014 7B68     		ldr	r3, [r7, #4]
ARM GAS  C:\Users\rsef899\AppData\Local\Temp\cc8w9RAA.s 			page 7


 255 0016 3F33     		adds	r3, r3, #63
 256 0018 0022     		movs	r2, #0
 257 001a 1A70     		strb	r2, [r3]
  83:main.c        ****     s[62]='!';
 258              		.loc 1 83 0
 259 001c 7B68     		ldr	r3, [r7, #4]
 260 001e 3E33     		adds	r3, r3, #62
 261 0020 2122     		movs	r2, #33
 262 0022 1A70     		strb	r2, [r3]
  84:main.c        ****     USBUART_PutData((uint8*)s,strlen(s));
 263              		.loc 1 84 0
 264 0024 7868     		ldr	r0, [r7, #4]
 265 0026 FFF7FEFF 		bl	strlen
 266 002a 0346     		mov	r3, r0
 267 002c 9BB2     		uxth	r3, r3
 268 002e 1946     		mov	r1, r3
 269 0030 7868     		ldr	r0, [r7, #4]
 270 0032 FFF7FEFF 		bl	USBUART_PutData
  85:main.c        **** #endif
  86:main.c        **** }
 271              		.loc 1 86 0
 272 0036 00BF     		nop
 273 0038 0837     		adds	r7, r7, #8
 274              		.cfi_def_cfa_offset 8
 275 003a BD46     		mov	sp, r7
 276              		.cfi_def_cfa_register 13
 277              		@ sp needed
 278 003c 80BD     		pop	{r7, pc}
 279              		.cfi_endproc
 280              	.LFE66:
 281              		.size	usbPutString, .-usbPutString
 282 003e 00BF     		.section	.text.usbPutChar,"ax",%progbits
 283              		.align	2
 284              		.global	usbPutChar
 285              		.thumb
 286              		.thumb_func
 287              		.type	usbPutChar, %function
 288              	usbPutChar:
 289              	.LFB67:
  87:main.c        **** //* ========================================
  88:main.c        **** void usbPutChar(char c)
  89:main.c        **** {
 290              		.loc 1 89 0
 291              		.cfi_startproc
 292              		@ args = 0, pretend = 0, frame = 8
 293              		@ frame_needed = 1, uses_anonymous_args = 0
 294 0000 80B5     		push	{r7, lr}
 295              		.cfi_def_cfa_offset 8
 296              		.cfi_offset 7, -8
 297              		.cfi_offset 14, -4
 298 0002 82B0     		sub	sp, sp, #8
 299              		.cfi_def_cfa_offset 16
 300 0004 00AF     		add	r7, sp, #0
 301              		.cfi_def_cfa_register 7
 302 0006 0346     		mov	r3, r0
 303 0008 FB71     		strb	r3, [r7, #7]
  90:main.c        **** #ifdef USE_USB     
ARM GAS  C:\Users\rsef899\AppData\Local\Temp\cc8w9RAA.s 			page 8


  91:main.c        ****     while (USBUART_CDCIsReady() == 0);
 304              		.loc 1 91 0
 305 000a 00BF     		nop
 306              	.L12:
 307              		.loc 1 91 0 is_stmt 0 discriminator 1
 308 000c FFF7FEFF 		bl	USBUART_CDCIsReady
 309 0010 0346     		mov	r3, r0
 310 0012 002B     		cmp	r3, #0
 311 0014 FAD0     		beq	.L12
  92:main.c        ****     USBUART_PutChar(c);
 312              		.loc 1 92 0 is_stmt 1
 313 0016 FB79     		ldrb	r3, [r7, #7]	@ zero_extendqisi2
 314 0018 1846     		mov	r0, r3
 315 001a FFF7FEFF 		bl	USBUART_PutChar
  93:main.c        **** #endif    
  94:main.c        **** }
 316              		.loc 1 94 0
 317 001e 00BF     		nop
 318 0020 0837     		adds	r7, r7, #8
 319              		.cfi_def_cfa_offset 8
 320 0022 BD46     		mov	sp, r7
 321              		.cfi_def_cfa_register 13
 322              		@ sp needed
 323 0024 80BD     		pop	{r7, pc}
 324              		.cfi_endproc
 325              	.LFE67:
 326              		.size	usbPutChar, .-usbPutChar
 327 0026 00BF     		.section	.text.handle_usb,"ax",%progbits
 328              		.align	2
 329              		.global	handle_usb
 330              		.thumb
 331              		.thumb_func
 332              		.type	handle_usb, %function
 333              	handle_usb:
 334              	.LFB68:
  95:main.c        **** //* ========================================
  96:main.c        **** void handle_usb()
  97:main.c        **** {
 335              		.loc 1 97 0
 336              		.cfi_startproc
 337              		@ args = 0, pretend = 0, frame = 8
 338              		@ frame_needed = 1, uses_anonymous_args = 0
 339 0000 80B5     		push	{r7, lr}
 340              		.cfi_def_cfa_offset 8
 341              		.cfi_offset 7, -8
 342              		.cfi_offset 14, -4
 343 0002 82B0     		sub	sp, sp, #8
 344              		.cfi_def_cfa_offset 16
 345 0004 00AF     		add	r7, sp, #0
 346              		.cfi_def_cfa_register 7
  98:main.c        ****     // handles input at terminal, echos it back to the terminal
  99:main.c        ****     // turn echo OFF, key emulation: only CR
 100:main.c        ****     // entered string is made available in 'line' and 'flag_KB_string' is set
 101:main.c        ****     
 102:main.c        ****     static uint8 usbStarted = FALSE;
 103:main.c        ****     static uint16 usbBufCount = 0;
 104:main.c        ****     uint8 c; 
ARM GAS  C:\Users\rsef899\AppData\Local\Temp\cc8w9RAA.s 			page 9


 105:main.c        ****     
 106:main.c        **** 
 107:main.c        ****     if (!usbStarted)
 347              		.loc 1 107 0
 348 0006 2B4B     		ldr	r3, .L23
 349 0008 1B78     		ldrb	r3, [r3]	@ zero_extendqisi2
 350 000a 002B     		cmp	r3, #0
 351 000c 0AD1     		bne	.L14
 108:main.c        ****     {
 109:main.c        ****         if (USBUART_GetConfiguration())
 352              		.loc 1 109 0
 353 000e FFF7FEFF 		bl	USBUART_GetConfiguration
 354 0012 0346     		mov	r3, r0
 355 0014 002B     		cmp	r3, #0
 356 0016 49D0     		beq	.L22
 110:main.c        ****         {
 111:main.c        ****             USBUART_CDC_Init();
 357              		.loc 1 111 0
 358 0018 FFF7FEFF 		bl	USBUART_CDC_Init
 112:main.c        ****             usbStarted = TRUE;
 359              		.loc 1 112 0
 360 001c 254B     		ldr	r3, .L23
 361 001e 0122     		movs	r2, #1
 362 0020 1A70     		strb	r2, [r3]
 113:main.c        ****         }
 114:main.c        ****     }
 115:main.c        ****     else
 116:main.c        ****     {
 117:main.c        ****         if (USBUART_DataIsReady() != 0)
 118:main.c        ****         {  
 119:main.c        ****             c = USBUART_GetChar();
 120:main.c        **** 
 121:main.c        ****             if ((c == 13) || (c == 10))
 122:main.c        ****             {
 123:main.c        **** //                if (usbBufCount > 0)
 124:main.c        ****                 {
 125:main.c        ****                     entry[usbBufCount]= '\0';
 126:main.c        ****                     strcpy(line,entry);
 127:main.c        ****                     usbBufCount = 0;
 128:main.c        ****                     flag_KB_string = 1;
 129:main.c        ****                 }
 130:main.c        ****             }
 131:main.c        ****             else 
 132:main.c        ****             {
 133:main.c        ****                 if (((c == CHAR_BACKSP) || (c == CHAR_DEL) ) && (usbBufCount > 0) )
 134:main.c        ****                     usbBufCount--;
 135:main.c        ****                 else
 136:main.c        ****                 {
 137:main.c        ****                     if (usbBufCount > (BUF_SIZE-2) ) // one less else strtok triggers a crash
 138:main.c        ****                     {
 139:main.c        ****                        USBUART_PutChar('!');        
 140:main.c        ****                     }
 141:main.c        ****                     else
 142:main.c        ****                         entry[usbBufCount++] = c;  
 143:main.c        ****                 }  
 144:main.c        ****             }
 145:main.c        ****         }
ARM GAS  C:\Users\rsef899\AppData\Local\Temp\cc8w9RAA.s 			page 10


 146:main.c        ****     }    
 147:main.c        **** }
 363              		.loc 1 147 0
 364 0022 43E0     		b	.L22
 365              	.L14:
 117:main.c        ****         {  
 366              		.loc 1 117 0
 367 0024 FFF7FEFF 		bl	USBUART_DataIsReady
 368 0028 0346     		mov	r3, r0
 369 002a 002B     		cmp	r3, #0
 370 002c 3ED0     		beq	.L22
 119:main.c        **** 
 371              		.loc 1 119 0
 372 002e FFF7FEFF 		bl	USBUART_GetChar
 373 0032 0346     		mov	r3, r0
 374 0034 FB71     		strb	r3, [r7, #7]
 121:main.c        ****             {
 375              		.loc 1 121 0
 376 0036 FB79     		ldrb	r3, [r7, #7]	@ zero_extendqisi2
 377 0038 0D2B     		cmp	r3, #13
 378 003a 02D0     		beq	.L17
 121:main.c        ****             {
 379              		.loc 1 121 0 is_stmt 0 discriminator 1
 380 003c FB79     		ldrb	r3, [r7, #7]	@ zero_extendqisi2
 381 003e 0A2B     		cmp	r3, #10
 382 0040 10D1     		bne	.L18
 383              	.L17:
 125:main.c        ****                     strcpy(line,entry);
 384              		.loc 1 125 0 is_stmt 1
 385 0042 1D4B     		ldr	r3, .L23+4
 386 0044 1B88     		ldrh	r3, [r3]
 387 0046 1A46     		mov	r2, r3
 388 0048 1C4B     		ldr	r3, .L23+8
 389 004a 0021     		movs	r1, #0
 390 004c 9954     		strb	r1, [r3, r2]
 126:main.c        ****                     usbBufCount = 0;
 391              		.loc 1 126 0
 392 004e 1B49     		ldr	r1, .L23+8
 393 0050 1B48     		ldr	r0, .L23+12
 394 0052 FFF7FEFF 		bl	strcpy
 127:main.c        ****                     flag_KB_string = 1;
 395              		.loc 1 127 0
 396 0056 184B     		ldr	r3, .L23+4
 397 0058 0022     		movs	r2, #0
 398 005a 1A80     		strh	r2, [r3]	@ movhi
 128:main.c        ****                 }
 399              		.loc 1 128 0
 400 005c 194B     		ldr	r3, .L23+16
 401 005e 0122     		movs	r2, #1
 402 0060 1A70     		strb	r2, [r3]
 403 0062 23E0     		b	.L16
 404              	.L18:
 133:main.c        ****                     usbBufCount--;
 405              		.loc 1 133 0
 406 0064 FB79     		ldrb	r3, [r7, #7]	@ zero_extendqisi2
 407 0066 082B     		cmp	r3, #8
 408 0068 02D0     		beq	.L19
ARM GAS  C:\Users\rsef899\AppData\Local\Temp\cc8w9RAA.s 			page 11


 133:main.c        ****                     usbBufCount--;
 409              		.loc 1 133 0 is_stmt 0 discriminator 2
 410 006a FB79     		ldrb	r3, [r7, #7]	@ zero_extendqisi2
 411 006c 7F2B     		cmp	r3, #127
 412 006e 0AD1     		bne	.L20
 413              	.L19:
 133:main.c        ****                     usbBufCount--;
 414              		.loc 1 133 0 discriminator 3
 415 0070 114B     		ldr	r3, .L23+4
 416 0072 1B88     		ldrh	r3, [r3]
 417 0074 002B     		cmp	r3, #0
 418 0076 06D0     		beq	.L20
 134:main.c        ****                 else
 419              		.loc 1 134 0 is_stmt 1
 420 0078 0F4B     		ldr	r3, .L23+4
 421 007a 1B88     		ldrh	r3, [r3]
 422 007c 013B     		subs	r3, r3, #1
 423 007e 9AB2     		uxth	r2, r3
 424 0080 0D4B     		ldr	r3, .L23+4
 425 0082 1A80     		strh	r2, [r3]	@ movhi
 426 0084 12E0     		b	.L16
 427              	.L20:
 137:main.c        ****                     {
 428              		.loc 1 137 0
 429 0086 0C4B     		ldr	r3, .L23+4
 430 0088 1B88     		ldrh	r3, [r3]
 431 008a 3E2B     		cmp	r3, #62
 432 008c 03D9     		bls	.L21
 139:main.c        ****                     }
 433              		.loc 1 139 0
 434 008e 2120     		movs	r0, #33
 435 0090 FFF7FEFF 		bl	USBUART_PutChar
 436              		.loc 1 147 0
 437 0094 0AE0     		b	.L22
 438              	.L21:
 142:main.c        ****                 }  
 439              		.loc 1 142 0
 440 0096 084B     		ldr	r3, .L23+4
 441 0098 1B88     		ldrh	r3, [r3]
 442 009a 5A1C     		adds	r2, r3, #1
 443 009c 91B2     		uxth	r1, r2
 444 009e 064A     		ldr	r2, .L23+4
 445 00a0 1180     		strh	r1, [r2]	@ movhi
 446 00a2 1946     		mov	r1, r3
 447 00a4 054A     		ldr	r2, .L23+8
 448 00a6 FB79     		ldrb	r3, [r7, #7]
 449 00a8 5354     		strb	r3, [r2, r1]
 450              		.loc 1 147 0
 451 00aa FFE7     		b	.L22
 452              	.L16:
 453              	.L22:
 454 00ac 00BF     		nop
 455 00ae 0837     		adds	r7, r7, #8
 456              		.cfi_def_cfa_offset 8
 457 00b0 BD46     		mov	sp, r7
 458              		.cfi_def_cfa_register 13
 459              		@ sp needed
ARM GAS  C:\Users\rsef899\AppData\Local\Temp\cc8w9RAA.s 			page 12


 460 00b2 80BD     		pop	{r7, pc}
 461              	.L24:
 462              		.align	2
 463              	.L23:
 464 00b4 12000000 		.word	usbStarted.8132
 465 00b8 14000000 		.word	usbBufCount.8133
 466 00bc 00000000 		.word	entry
 467 00c0 00000000 		.word	line
 468 00c4 00000000 		.word	flag_KB_string
 469              		.cfi_endproc
 470              	.LFE68:
 471              		.size	handle_usb, .-handle_usb
 472              		.bss
 473              	usbStarted.8132:
 474 0012 00       		.space	1
 475 0013 00       		.align	1
 476              	usbBufCount.8133:
 477 0014 0000     		.space	2
 478              		.text
 479              	.Letext0:
 480              		.file 2 "c:\\program files (x86)\\cypress\\psoc creator\\4.2\\psoc creator\\import\\gnu\\arm\\5.4.
 481              		.file 3 "c:\\program files (x86)\\cypress\\psoc creator\\4.2\\psoc creator\\import\\gnu\\arm\\5.4.
 482              		.file 4 "Generated_Source\\PSoC5/cytypes.h"
 483              		.file 5 "vars.h"
 484              		.file 6 "Generated_Source\\PSoC5/core_cm3.h"